(dp0
I26347
(lp1
sI3076
(lp2
sI1729
(lp3
sI25764
(lp4
sI1802
(lp5
sI8587
(lp6
I884
asI12
(lp7
sI23954
(lp8
sI1554
(lp9
I5024
asI5187
(lp10
I9795
aI9797
asI16152
(lp11
sI20250
(lp12
sI3995
(lp13
sI23964
(lp14
sI2717
(lp15
I12498
aI18776
asI3359
(lp16
sI5024
(lp17
I1554
asI12498
(lp18
I2717
asI9764
(lp19
sI9381
(lp20
sI1830
(lp21
sI20977
(lp22
sI11688
(lp23
sI19754
(lp24
sI26285
(lp25
sI26141
(lp26
sI26161
(lp27
sI1203
(lp28
I1204
asI3252
(lp29
sI13494
(lp30
sI21129
(lp31
I4556
asI1204
(lp32
I1203
asI1850
(lp33
sI14140
(lp34
sI16160
(lp35
sI26178
(lp36
sI9795
(lp37
I5187
asI25925
(lp38
sI3782
(lp39
sI25030
(lp40
sI13772
(lp41
sI4556
(lp42
I4611
aI21129
asI24013
(lp43
sI9797
(lp44
I5187
asI25298
(lp45
sI26067
(lp46
sI981
(lp47
sI20823
(lp48
sI18776
(lp49
I2717
asI5028
(lp50
sI2248
(lp51
sI26415
(lp52
sI10077
(lp53
sI8805
(lp54
sI1888
(lp55
sI24546
(lp56
sI17915
(lp57
I17914
asI14565
(lp58
sI25961
(lp59
sI24443
(lp60
sI14060
(lp61
sI15597
(lp62
sI9967
(lp63
sI4611
(lp64
I4556
asI1777
(lp65
sI883
(lp66
I884
asI884
(lp67
I883
aI8587
asI21237
(lp68
sI21366
(lp69
sI17914
(lp70
I17915
asI10235
(lp71
sI22015
(lp72
s.