(dp0
I2560
(lp1
sI12289
(lp2
sI19973
(lp3
sI2566
(lp4
sI12297
(lp5
sI2570
(lp6
sI14219
(lp7
sI12301
(lp8
sI2579
(lp9
sI5140
(lp10
sI23869
(lp11
I2268
asI12312
(lp12
sI25626
(lp13
sI2078
(lp14
sI2821
(lp15
sI2595
(lp16
sI2596
(lp17
sI8745
(lp18
sI3115
(lp19
sI6322
(lp20
sI1583
(lp21
sI13726
(lp22
sI2615
(lp23
sI3129
(lp24
sI25695
(lp25
sI1598
(lp26
sI14261
(lp27
sI1600
(lp28
sI6209
(lp29
sI5188
(lp30
I5189
asI2629
(lp31
sI13897
(lp32
sI12359
(lp33
I6332
asI2633
(lp34
sI15947
(lp35
sI13388
(lp36
sI2638
(lp37
sI4175
(lp38
sI8803
(lp39
sI6230
(lp40
sI25687
(lp41
sI2648
(lp42
sI5220
(lp43
I5211
aI5213
asI5211
(lp44
I5212
aI5213
aI5218
aI5219
aI5220
aI5221
aI5225
asI5212
(lp45
I5211
asI5213
(lp46
I5211
aI5220
asI2142
(lp47
sI4197
(lp48
sI5218
(lp49
I5211
asI5219
(lp50
I5211
asI14239
(lp51
sI5221
(lp52
I5211
asI23142
(lp53
sI2748
(lp54
sI4716
(lp55
sI5742
(lp56
sI2671
(lp57
sI1138
(lp58
sI2676
(lp59
sI5225
(lp60
I5211
asI11896
(lp61
sI3197
(lp62
sI14233
(lp63
sI16371
(lp64
sI12420
(lp65
sI17542
(lp66
sI1671
(lp67
sI20844
(lp68
sI2702
(lp69
sI5263
(lp70
sI5231
(lp71
sI16036
(lp72
sI3239
(lp73
sI12971
(lp74
I12972
asI12972
(lp75
I12971
asI12463
(lp76
sI700
(lp77
sI2797
(lp78
sI3251
(lp79
I14611
asI11958
(lp80
sI2233
(lp81
sI6332
(lp82
I12359
asI19658
(lp83
I19659
asI1727
(lp84
sI8899
(lp85
sI13508
(lp86
I3563
aI26064
asI2246
(lp87
sI25800
(lp88
sI20681
(lp89
sI8906
(lp90
sI25803
(lp91
sI20684
(lp92
sI1230
(lp93
sI8912
(lp94
sI8918
(lp95
sI1239
(lp96
sI8922
(lp97
sI2267
(lp98
I2268
asI2268
(lp99
I2267
aI13892
aI23869
asI10461
(lp100
I265
asI8926
(lp101
sI12470
(lp102
sI2273
(lp103
I2274
asI2274
(lp104
I2273
asI12003
(lp105
sI18284
(lp106
sI3306
(lp107
sI10988
(lp108
sI2285
(lp109
I2299
aI2300
aI2305
asI5870
(lp110
sI8943
(lp111
sI8659
(lp112
I484
asI17140
(lp113
sI894
(lp114
sI10488
(lp115
sI2299
(lp116
I2285
aI2305
asI2300
(lp117
I2285
aI2305
asI1277
(lp118
sI22271
(lp119
sI18012
(lp120
sI2305
(lp121
I2285
aI2299
aI2300
asI12037
(lp122
sI6406
(lp123
sI10504
(lp124
sI265
(lp125
I10461
aI24427
asI21259
(lp126
sI19728
(lp127
sI14611
(lp128
I3251
asI25804
(lp129
sI9317
(lp130
sI10012
(lp131
sI5850
(lp132
sI5408
(lp133
sI16673
(lp134
sI19659
(lp135
I19658
asI20772
(lp136
sI5415
(lp137
sI15147
(lp138
sI12588
(lp139
sI4909
(lp140
sI12079
(lp141
sI2353
(lp142
sI2866
(lp143
sI14643
(lp144
sI10548
(lp145
sI5854
(lp146
sI14649
(lp147
sI317
(lp148
sI22847
(lp149
sI25923
(lp150
I14253
asI4933
(lp151
sI5345
(lp152
sI6478
(lp153
sI338
(lp154
I340
asI340
(lp155
I338
asI8022
(lp156
sI13881
(lp157
sI23386
(lp158
sI2959
(lp159
sI12131
(lp160
sI20324
(lp161
sI2407
(lp162
sI17768
(lp163
I13892
asI24427
(lp164
I265
asI2924
(lp165
sI2413
(lp166
sI829
(lp167
sI4976
(lp168
I3563
asI20857
(lp169
sI3451
(lp170
sI14204
(lp171
sI14205
(lp172
sI14206
(lp173
sI2431
(lp174
sI9093
(lp175
sI2441
(lp176
sI12183
(lp177
sI14220
(lp178
sI12175
(lp179
sI12510
(lp180
sI8084
(lp181
sI12782
(lp182
sI26006
(lp183
sI14231
(lp184
sI14232
(lp185
sI13892
(lp186
I2268
aI17768
asI14234
(lp187
sI14237
(lp188
sI14238
(lp189
sI5189
(lp190
I5188
asI9120
(lp191
sI16290
(lp192
sI14245
(lp193
sI937
(lp194
sI14253
(lp195
I25923
asI19376
(lp196
I19378
asI19378
(lp197
I19376
asI9715
(lp198
sI9118
(lp199
sI16969
(lp200
sI14264
(lp201
sI14267
(lp202
sI444
(lp203
sI20925
(lp204
sI9153
(lp205
sI14276
(lp206
sI2487
(lp207
sI9160
(lp208
sI14282
(lp209
sI13730
(lp210
sI26064
(lp211
I13508
asI5075
(lp212
sI8660
(lp213
I484
aI8667
asI20949
(lp214
sI8667
(lp215
I484
aI8660
asI8670
(lp216
I484
asI12256
(lp217
sI11745
(lp218
sI2530
(lp219
sI484
(lp220
I8659
aI8660
aI8667
aI8670
asI5093
(lp221
sI5094
(lp222
sI6633
(lp223
sI2026
(lp224
sI3563
(lp225
I4976
aI13508
asI2386
(lp226
sI12270
(lp227
sI5104
(lp228
I5107
asI5107
(lp229
I5104
asI7669
(lp230
sI16297
(lp231
sI12287
(lp232
s.