(dp0
I24580
(lp1
I6742
asI24581
(lp2
sI22641
(lp3
sI24592
(lp4
sI1368
(lp5
sI16402
(lp6
sI27
(lp7
sI16415
(lp8
sI24608
(lp9
sI24612
(lp10
I20518
asI8231
(lp11
sI24619
(lp12
sI16430
(lp13
sI47
(lp14
I22208
asI50
(lp15
I276
asI51
(lp16
sI52
(lp17
sI55
(lp18
I14364
asI16440
(lp19
I5355
asI24634
(lp20
sI16444
(lp21
sI63
(lp22
sI64
(lp23
sI24643
(lp24
sI24644
(lp25
sI24646
(lp26
sI16456
(lp27
sI77
(lp28
sI24656
(lp29
sI81
(lp30
sI83
(lp31
sI89
(lp32
sI8284
(lp33
sI24674
(lp34
sI100
(lp35
sI16487
(lp36
sI24683
(lp37
sI24688
(lp38
sI114
(lp39
I112
asI115
(lp40
sI8308
(lp41
sI15931
(lp42
I3459
aI3461
asI24695
(lp43
sI24700
(lp44
sI24702
(lp45
sI135
(lp46
sI16521
(lp47
sI16522
(lp48
sI9552
(lp49
I2039
asI24723
(lp50
sI9582
(lp51
I2340
asI151
(lp52
sI16545
(lp53
sI165
(lp54
sI171
(lp55
sI16556
(lp56
sI21874
(lp57
I21875
asI16562
(lp58
sI16565
(lp59
sI16570
(lp60
sI24764
(lp61
I3765
asI24765
(lp62
sI24766
(lp63
sI24769
(lp64
sI24770
(lp65
sI19147
(lp66
sI16581
(lp67
I14619
asI16582
(lp68
sI24775
(lp69
sI24776
(lp70
sI16588
(lp71
sI4130
(lp72
I22112
asI24782
(lp73
sI24783
(lp74
sI16592
(lp75
sI24786
(lp76
sI24787
(lp77
sI24788
(lp78
sI16598
(lp79
sI16600
(lp80
sI24793
(lp81
sI219
(lp82
I584
aI936
aI2488
aI4898
aI18812
asI227
(lp83
sI20518
(lp84
I24612
asI16614
(lp85
I1274
asI16615
(lp86
sI16616
(lp87
sI16423
(lp88
sI16620
(lp89
I4844
asI24817
(lp90
I24818
asI24818
(lp91
I24817
asI16627
(lp92
sI24821
(lp93
sI24822
(lp94
sI16631
(lp95
I4392
asI248
(lp96
sI24827
(lp97
sI253
(lp98
I272
asI16648
(lp99
sI24832
(lp100
sI9600
(lp101
I2340
asI258
(lp102
I2440
aI3649
aI3650
asI24835
(lp103
I24834
asI260
(lp104
I541
asI16645
(lp105
sI24838
(lp106
I4755
asI24839
(lp107
I6291
asI264
(lp108
I23400
asI24842
(lp109
sI267
(lp110
sI270
(lp111
sI4141
(lp112
sI272
(lp113
I253
asI276
(lp114
I50
asI20526
(lp115
sI278
(lp116
sI19161
(lp117
sI281
(lp118
sI286
(lp119
sI24865
(lp120
sI16675
(lp121
sI4145
(lp122
I4144
asI16680
(lp123
sI299
(lp124
sI20530
(lp125
sI302
(lp126
sI23262
(lp127
sI311
(lp128
sI24890
(lp129
sI24891
(lp130
sI24894
(lp131
sI16703
(lp132
sI4332
(lp133
sI13708
(lp134
I26218
asI16717
(lp135
sI16718
(lp136
sI16720
(lp137
sI16724
(lp138
sI16725
(lp139
sI8536
(lp140
sI16731
(lp141
sI9286
(lp142
sI8542
(lp143
sI8547
(lp144
sI357
(lp145
sI24935
(lp146
sI24937
(lp147
sI17743
(lp148
sI16758
(lp149
sI16759
(lp150
sI16765
(lp151
sI8574
(lp152
I7326
asI16772
(lp153
sI13718
(lp154
I541
asI8583
(lp155
I2977
asI16777
(lp156
I3596
asI8742
(lp157
sI397
(lp158
sI16783
(lp159
I3596
asI16786
(lp160
I3596
asI67
(lp161
sI16788
(lp162
I3596
asI24982
(lp163
sI407
(lp164
sI23298
(lp165
sI24986
(lp166
sI8603
(lp167
I777
asI8604
(lp168
I7293
asI24989
(lp169
sI16799
(lp170
sI8610
(lp171
I2587
asI16803
(lp172
sI420
(lp173
I421
aI422
aI423
aI424
asI421
(lp174
I420
aI5355
asI422
(lp175
I420
aI18972
asI423
(lp176
I420
asI424
(lp177
I420
asI11108
(lp178
I5371
aI6186
asI16811
(lp179
sI25008
(lp180
sI25010
(lp181
sI19187
(lp182
sI9630
(lp183
sI25017
(lp184
sI25018
(lp185
sI25019
(lp186
sI25020
(lp187
sI16830
(lp188
sI16831
(lp189
I5355
asI16832
(lp190
I16833
asI16833
(lp191
I12281
aI16832
aI25528
asI450
(lp192
sI13654
(lp193
sI25029
(lp194
sI455
(lp195
sI458
(lp196
sI25035
(lp197
sI25036
(lp198
sI25037
(lp199
sI463
(lp200
sI16848
(lp201
sI25041
(lp202
sI25046
(lp203
sI475
(lp204
sI477
(lp205
sI8671
(lp206
I4950
asI480
(lp207
sI8673
(lp208
sI8677
(lp209
I541
asI9639
(lp210
sI8684
(lp211
sI20562
(lp212
sI8687
(lp213
sI16880
(lp214
sI19384
(lp215
sI11006
(lp216
sI16891
(lp217
sI16892
(lp218
sI510
(lp219
sI511
(lp220
sI16896
(lp221
sI6291
(lp222
I24839
asI25100
(lp223
sI525
(lp224
sI21840
(lp225
sI531
(lp226
sI16916
(lp227
sI16917
(lp228
sI534
(lp229
sI8727
(lp230
sI8730
(lp231
sI539
(lp232
sI541
(lp233
I260
aI694
aI726
aI2259
aI3519
aI3693
aI7293
aI8677
aI9871
aI12422
aI12759
aI13285
aI13718
aI16660
aI16967
aI17503
aI17695
aI18409
aI19002
aI19024
asI8734
(lp234
sI8736
(lp235
sI8738
(lp236
sI8739
(lp237
sI11014
(lp238
I22112
asI550
(lp239
I11673
asI8746
(lp240
sI11748
(lp241
sI8750
(lp242
sI559
(lp243
sI8752
(lp244
I1572
asI16949
(lp245
I11847
aI17996
asI25143
(lp246
sI25147
(lp247
sI576
(lp248
I577
asI577
(lp249
I576
aI25612
asI16967
(lp250
I541
asI8776
(lp251
sI585
(lp252
I584
asI16970
(lp253
I1925
asI8779
(lp254
sI8781
(lp255
sI8782
(lp256
I1610
asI593
(lp257
I5363
aI12964
asI8789
(lp258
sI601
(lp259
sI16994
(lp260
sI8804
(lp261
I17061
asI8806
(lp262
sI25191
(lp263
sI617
(lp264
sI17003
(lp265
sI17005
(lp266
sI17007
(lp267
sI17010
(lp268
sI628
(lp269
sI17016
(lp270
sI17020
(lp271
sI17021
(lp272
sI17023
(lp273
sI8832
(lp274
I8831
aI12232
asI26048
(lp275
sI25218
(lp276
sI643
(lp277
I4759
aI17900
aI25433
aI25573
asI8837
(lp278
sI17030
(lp279
sI17034
(lp280
sI8844
(lp281
sI17037
(lp282
sI8846
(lp283
sI17039
(lp284
sI17040
(lp285
sI21955
(lp286
I760
asI17044
(lp287
sI661
(lp288
I662
asI662
(lp289
I661
asI11033
(lp290
sI666
(lp291
sI8859
(lp292
sI670
(lp293
sI13765
(lp294
sI112
(lp295
I114
asI677
(lp296
sI25257
(lp297
sI684
(lp298
sI25261
(lp299
sI17070
(lp300
sI17071
(lp301
sI8881
(lp302
sI8882
(lp303
sI16499
(lp304
I18846
asI694
(lp305
I541
asI8887
(lp306
sI17080
(lp307
sI8891
(lp308
sI25276
(lp309
sI25277
(lp310
sI25278
(lp311
sI703
(lp312
sI25280
(lp313
sI17089
(lp314
sI17093
(lp315
sI711
(lp316
sI25288
(lp317
sI716
(lp318
I15325
asI13773
(lp319
sI17104
(lp320
sI18641
(lp321
I2977
asI724
(lp322
I725
asI725
(lp323
I724
asI726
(lp324
I541
asI727
(lp325
sI23332
(lp326
sI17115
(lp327
sI732
(lp328
sI736
(lp329
sI8930
(lp330
sI20603
(lp331
sI25316
(lp332
sI17125
(lp333
I1510
asI8936
(lp334
I5355
asI745
(lp335
sI26066
(lp336
sI750
(lp337
sI8944
(lp338
sI17137
(lp339
sI17139
(lp340
sI17141
(lp341
sI759
(lp342
I760
asI760
(lp343
I759
aI9200
aI12881
aI21955
asI17146
(lp344
sI17148
(lp345
sI2858
(lp346
I11309
asI25342
(lp347
I5852
asI769
(lp348
I23201
asI25346
(lp349
sI771
(lp350
I5312
aI5315
aI5321
asI8964
(lp351
sI4225
(lp352
sI776
(lp353
I777
asI17161
(lp354
sI21975
(lp355
sI25357
(lp356
sI25365
(lp357
sI19121
(lp358
I11037
asI8986
(lp359
sI9001
(lp360
sI9003
(lp361
sI19940
(lp362
sI17204
(lp363
sI17205
(lp364
sI17206
(lp365
sI20617
(lp366
I4648
asI824
(lp367
I826
asI826
(lp368
I824
asI17887
(lp369
I2940
asI17214
(lp370
sI25408
(lp371
sI25409
(lp372
sI834
(lp373
sI17221
(lp374
sI17229
(lp375
sI25426
(lp376
sI19123
(lp377
I11037
asI17240
(lp378
sI25433
(lp379
I643
asI9303
(lp380
sI20623
(lp381
sI25670
(lp382
I20396
aI21971
asI17246
(lp383
sI9055
(lp384
sI25450
(lp385
I1314
asI21991
(lp386
sI25454
(lp387
sI9077
(lp388
sI25467
(lp389
sI17276
(lp390
sI895
(lp391
I3560
aI12783
asI896
(lp392
sI25473
(lp393
I5355
asI9091
(lp394
sI900
(lp395
I20195
asI17287
(lp396
sI25481
(lp397
sI17291
(lp398
sI2882
(lp399
sI25495
(lp400
sI17311
(lp401
I20873
asI26218
(lp402
I13708
asI9127
(lp403
sI936
(lp404
I219
asI25515
(lp405
sI12852
(lp406
I20175
asI11080
(lp407
I1303
asI17331
(lp408
sI25524
(lp409
I2422
asI9141
(lp410
sI951
(lp411
I4477
aI4480
asI25528
(lp412
I16833
asI9146
(lp413
sI956
(lp414
sI17909
(lp415
sI17346
(lp416
sI25539
(lp417
sI26102
(lp418
sI26104
(lp419
sI9172
(lp420
sI9173
(lp421
sI25558
(lp422
I18222
asI9721
(lp423
sI9178
(lp424
sI988
(lp425
I16640
aI22837
asI17374
(lp426
sI25567
(lp427
sI17376
(lp428
sI25570
(lp429
sI17379
(lp430
sI9188
(lp431
I3753
asI9189
(lp432
sI25574
(lp433
sI9195
(lp434
I1516
asI17389
(lp435
sI9199
(lp436
I9200
asI9200
(lp437
I760
aI9199
asI9201
(lp438
sI9202
(lp439
I9203
asI9203
(lp440
I9202
asI25589
(lp441
sI25590
(lp442
sI1017
(lp443
I1396
aI2340
asI9210
(lp444
sI17404
(lp445
sI17406
(lp446
sI17410
(lp447
sI24747
(lp448
sI25604
(lp449
I4178
asI1029
(lp450
sI17419
(lp451
sI25612
(lp452
I577
asI1037
(lp453
sI17422
(lp454
sI24749
(lp455
sI14835
(lp456
I14837
asI9731
(lp457
sI9237
(lp458
sI9239
(lp459
sI17435
(lp460
sI15146
(lp461
sI9248
(lp462
sI1057
(lp463
I1346
aI14366
aI15564
aI16377
asI25635
(lp464
sI25636
(lp465
I4648
asI9253
(lp466
sI25638
(lp467
sI9259
(lp468
sI17454
(lp469
sI19293
(lp470
I4878
asI25651
(lp471
I2957
asI25652
(lp472
I2957
asI17466
(lp473
sI15199
(lp474
sI1086
(lp475
sI1087
(lp476
sI17476
(lp477
sI9285
(lp478
sI1094
(lp479
sI17480
(lp480
sI13836
(lp481
sI17847
(lp482
sI17485
(lp483
I4201
aI23381
aI23382
asI25682
(lp484
sI9299
(lp485
sI17492
(lp486
sI1111
(lp487
sI17496
(lp488
sI17497
(lp489
sI9306
(lp490
sI9309
(lp491
sI17503
(lp492
I541
asI9312
(lp493
sI17511
(lp494
sI1128
(lp495
sI17515
(lp496
sI17516
(lp497
sI9325
(lp498
sI1134
(lp499
sI25711
(lp500
sI1137
(lp501
sI25714
(lp502
sI9331
(lp503
sI9332
(lp504
sI1143
(lp505
sI17531
(lp506
sI17532
(lp507
sI9350
(lp508
I24189
asI17548
(lp509
sI16578
(lp510
sI9359
(lp511
sI25745
(lp512
sI25746
(lp513
sI9364
(lp514
sI25752
(lp515
sI12484
(lp516
sI16825
(lp517
sI15315
(lp518
sI17568
(lp519
sI17569
(lp520
sI1187
(lp521
sI19313
(lp522
sI25768
(lp523
sI25769
(lp524
sI16583
(lp525
sI1565
(lp526
sI1200
(lp527
sI16584
(lp528
sI17587
(lp529
sI1206
(lp530
I1208
asI25783
(lp531
sI1208
(lp532
I1206
asI1211
(lp533
sI17596
(lp534
sI25789
(lp535
sI11125
(lp536
I11124
aI19747
aI24101
asI25792
(lp537
sI25795
(lp538
sI19408
(lp539
sI25797
(lp540
sI25799
(lp541
I5120
asI9416
(lp542
I9415
asI25801
(lp543
sI1232
(lp544
sI25819
(lp545
sI17629
(lp546
sI9438
(lp547
sI1248
(lp548
I19981
aI24183
asI9442
(lp549
sI9444
(lp550
sI26151
(lp551
sI1262
(lp552
sI25839
(lp553
sI9457
(lp554
sI9458
(lp555
sI25846
(lp556
sI1274
(lp557
I16614
aI20695
asI17663
(lp558
I6687
asI25684
(lp559
sI1281
(lp560
sI9475
(lp561
sI17669
(lp562
sI17674
(lp563
sI9484
(lp564
sI17965
(lp565
sI1297
(lp566
sI1298
(lp567
I11486
aI16126
aI16132
asI17683
(lp568
sI1303
(lp569
I2340
aI5165
aI11078
aI11080
asI1304
(lp570
I1582
asI17690
(lp571
sI9499
(lp572
I4270
asI17693
(lp573
sI17695
(lp574
I541
asI1312
(lp575
sI26160
(lp576
sI1314
(lp577
I19262
aI25450
asI1317
(lp578
sI1319
(lp579
I3450
aI3452
asI9512
(lp580
sI1321
(lp581
I16128
asI17706
(lp582
sI25899
(lp583
sI9516
(lp584
sI1327
(lp585
I2014
aI21815
asI1331
(lp586
sI17719
(lp587
sI1337
(lp588
sI17722
(lp589
sI1341
(lp590
sI17727
(lp591
I3908
asI9536
(lp592
sI1345
(lp593
sI1346
(lp594
I1057
asI9543
(lp595
sI1357
(lp596
sI17742
(lp597
sI11149
(lp598
I14985
asI1360
(lp599
sI9553
(lp600
sI17746
(lp601
I3556
asI24803
(lp602
sI25941
(lp603
sI9560
(lp604
I4977
asI1370
(lp605
I4443
asI17757
(lp606
sI25950
(lp607
sI9569
(lp608
sI9570
(lp609
sI1380
(lp610
I2340
asI17765
(lp611
sI4327
(lp612
sI17774
(lp613
sI24808
(lp614
sI1396
(lp615
I1017
aI3546
asI17792
(lp616
sI17794
(lp617
I4443
asI25989
(lp618
sI17799
(lp619
sI1417
(lp620
I2340
asI1423
(lp621
sI17814
(lp622
sI17815
(lp623
sI9624
(lp624
sI26010
(lp625
I24185
asI26012
(lp626
sI9629
(lp627
sI26014
(lp628
sI17826
(lp629
sI17828
(lp630
sI1447
(lp631
I2359
asI1448
(lp632
sI9644
(lp633
sI17841
(lp634
sI17842
(lp635
sI9653
(lp636
sI9654
(lp637
sI1463
(lp638
I2391
asI26044
(lp639
sI9662
(lp640
sI1472
(lp641
sI9665
(lp642
sI26050
(lp643
I3337
asI26187
(lp644
sI9668
(lp645
sI9669
(lp646
sI9671
(lp647
sI5708
(lp648
sI26061
(lp649
sI22093
(lp650
sI9680
(lp651
sI9682
(lp652
I1949
asI9684
(lp653
sI26070
(lp654
sI1499
(lp655
sI9692
(lp656
sI9693
(lp657
sI26079
(lp658
sI9699
(lp659
sI1509
(lp660
I1510
asI1510
(lp661
I1509
aI6186
aI14747
aI17125
aI21410
aI23283
asI26193
(lp662
sI1513
(lp663
sI19367
(lp664
sI1516
(lp665
I9195
aI12819
asI17901
(lp666
sI17902
(lp667
sI26097
(lp668
sI1522
(lp669
I12111
asI1524
(lp670
sI26101
(lp671
sI9718
(lp672
sI26103
(lp673
sI9720
(lp674
sI26105
(lp675
sI26106
(lp676
sI9723
(lp677
sI17916
(lp678
sI17920
(lp679
I9305
asI16640
(lp680
I988
asI1539
(lp681
I5292
asI9735
(lp682
sI9736
(lp683
sI17931
(lp684
sI26124
(lp685
sI24834
(lp686
I24835
asI9742
(lp687
sI9743
(lp688
sI26132
(lp689
sI9749
(lp690
I5355
asI26134
(lp691
sI26137
(lp692
sI17949
(lp693
sI9758
(lp694
sI1567
(lp695
I1569
asI17952
(lp696
sI1569
(lp697
I1567
asI1572
(lp698
I8752
asI1573
(lp699
sI1575
(lp700
sI26152
(lp701
sI26156
(lp702
sI9773
(lp703
sI1582
(lp704
I772
aI1304
aI2340
aI2927
aI7429
aI15689
aI15927
aI22790
asI1584
(lp705
sI24840
(lp706
sI7091
(lp707
sI9781
(lp708
sI26168
(lp709
sI2996
(lp710
sI9786
(lp711
sI9788
(lp712
sI9789
(lp713
sI9790
(lp714
sI26175
(lp715
sI9794
(lp716
sI1604
(lp717
sI9801
(lp718
sI1610
(lp719
I8782
aI13724
aI15805
aI18828
aI19166
aI20779
aI20782
asI7095
(lp720
I777
aI21313
asI17996
(lp721
I16949
asI17998
(lp722
sI4365
(lp723
sI26192
(lp724
I15174
asI9809
(lp725
sI9810
(lp726
I9811
asI9811
(lp727
I9810
asI9816
(lp728
sI18009
(lp729
sI9819
(lp730
I6375
aI10028
asI9820
(lp731
sI9821
(lp732
sI1630
(lp733
sI5237
(lp734
I5236
asI18016
(lp735
sI19149
(lp736
sI11195
(lp737
sI18021
(lp738
sI9830
(lp739
sI14359
(lp740
I14358
aI18119
asI9833
(lp741
I21593
aI21596
asI18026
(lp742
sI9831
(lp743
sI9841
(lp744
sI9846
(lp745
sI22121
(lp746
sI16660
(lp747
I541
asI1642
(lp748
I1925
asI18047
(lp749
I4201
asI11200
(lp750
I11198
aI15637
asI22123
(lp751
sI9863
(lp752
I2488
asI1677
(lp753
sI9870
(lp754
sI9871
(lp755
I541
asI26262
(lp756
sI25152
(lp757
sI18074
(lp758
sI25216
(lp759
sI1694
(lp760
I2586
aI2778
aI14680
aI15039
asI18079
(lp761
sI1699
(lp762
sI18085
(lp763
sI18086
(lp764
sI18089
(lp765
I2957
asI18091
(lp766
I2957
asI18092
(lp767
sI18093
(lp768
sI18095
(lp769
I2957
asI26289
(lp770
sI18102
(lp771
sI18103
(lp772
sI13941
(lp773
sI13151
(lp774
I3133
asI18117
(lp775
sI18119
(lp776
I14359
asI1657
(lp777
I5919
aI14318
aI16021
aI20110
asI11216
(lp778
sI26339
(lp779
sI18155
(lp780
sI3027
(lp781
I2940
aI4315
asI26365
(lp782
sI16683
(lp783
I4870
asI18180
(lp784
sI18185
(lp785
sI11224
(lp786
sI10002
(lp787
sI18198
(lp788
I4080
asI26394
(lp789
sI26396
(lp790
I4878
asI26397
(lp791
sI18210
(lp792
I4080
asI26406
(lp793
sI10024
(lp794
sI10026
(lp795
sI10028
(lp796
I9819
asI18222
(lp797
I4080
aI25558
asI26416
(lp798
sI18225
(lp799
I4080
asI18227
(lp800
I4080
asI10036
(lp801
sI10037
(lp802
sI10038
(lp803
sI18232
(lp804
sI18239
(lp805
I18240
asI18240
(lp806
I18239
aI22458
asI19424
(lp807
I13464
asI4406
(lp808
sI26438
(lp809
sI10055
(lp810
sI10057
(lp811
sI18250
(lp812
sI18251
(lp813
sI10061
(lp814
sI10062
(lp815
sI18255
(lp816
sI10065
(lp817
sI26254
(lp818
sI11851
(lp819
sI1880
(lp820
sI25704
(lp821
I5358
asI1883
(lp822
I1884
asI1884
(lp823
I1883
asI18271
(lp824
sI18272
(lp825
sI18280
(lp826
sI26473
(lp827
sI26474
(lp828
sI10091
(lp829
sI10097
(lp830
sI18292
(lp831
sI18298
(lp832
sI24895
(lp833
I23221
asI10110
(lp834
I4330
aI10111
asI22165
(lp835
sI10112
(lp836
I2039
asI1922
(lp837
sI1923
(lp838
sI18308
(lp839
sI1925
(lp840
I1642
aI5009
aI16970
asI10120
(lp841
sI18313
(lp842
sI10124
(lp843
I10125
asI10125
(lp844
I2039
aI10124
aI24980
asI18318
(lp845
I3753
asI18319
(lp846
I3753
asI18325
(lp847
I3753
asI10135
(lp848
sI10136
(lp849
sI1947
(lp850
sI1949
(lp851
I9682
aI20045
aI20046
asI1951
(lp852
I1953
asI10144
(lp853
sI1953
(lp854
I1951
asI13979
(lp855
sI1956
(lp856
I1957
asI1957
(lp857
I1956
aI12300
asI11250
(lp858
sI1966
(lp859
sI10159
(lp860
sI1971
(lp861
sI1973
(lp862
sI18358
(lp863
I4837
asI18362
(lp864
sI18365
(lp865
sI17471
(lp866
sI18371
(lp867
sI1990
(lp868
sI13543
(lp869
sI2000
(lp870
I18484
asI10195
(lp871
sI4430
(lp872
sI18394
(lp873
sI10203
(lp874
I18721
asI18396
(lp875
sI2014
(lp876
I1327
asI18403
(lp877
sI2020
(lp878
I5060
aI14330
asI18405
(lp879
sI18407
(lp880
sI18408
(lp881
sI18409
(lp882
I541
asI2029
(lp883
I2030
asI2030
(lp884
I2029
asI18419
(lp885
sI18420
(lp886
sI2038
(lp887
I11063
aI13681
aI13682
asI2039
(lp888
I2040
aI3419
aI3420
aI9552
aI10112
aI10125
aI14300
aI14301
aI14302
aI14304
aI14305
aI14306
aI14308
aI14309
asI2040
(lp889
I2039
aI2041
asI2041
(lp890
I2040
asI18426
(lp891
sI18429
(lp892
sI18430
(lp893
I3126
asI18433
(lp894
I3126
asI18438
(lp895
sI2056
(lp896
sI2058
(lp897
sI2060
(lp898
sI614
(lp899
sI16728
(lp900
sI2067
(lp901
sI18455
(lp902
sI18456
(lp903
sI18461
(lp904
sI2079
(lp905
sI18467
(lp906
sI25438
(lp907
sI18469
(lp908
sI10279
(lp909
sI11799
(lp910
sI18476
(lp911
I5355
asI10287
(lp912
sI10288
(lp913
sI18482
(lp914
sI2099
(lp915
sI18484
(lp916
I2000
aI5827
aI20339
asI11273
(lp917
sI18493
(lp918
sI18495
(lp919
sI4448
(lp920
sI18498
(lp921
sI9834
(lp922
sI2135
(lp923
I2136
asI2136
(lp924
I2135
aI3295
aI24293
asI2138
(lp925
sI18530
(lp926
sI2151
(lp927
I20721
aI22325
asI2154
(lp928
sI26092
(lp929
I22443
asI2156
(lp930
sI18542
(lp931
sI2159
(lp932
sI18544
(lp933
I4201
asI18550
(lp934
sI10364
(lp935
sI10367
(lp936
sI15382
(lp937
sI22210
(lp938
sI18583
(lp939
sI2203
(lp940
sI15387
(lp941
sI2215
(lp942
I11107
asI10408
(lp943
sI10410
(lp944
sI18605
(lp945
sI2226
(lp946
sI18615
(lp947
sI18616
(lp948
I3276
asI2234
(lp949
I11228
aI18724
asI18622
(lp950
I18623
asI18623
(lp951
I18622
asI18624
(lp952
sI20854
(lp953
sI20855
(lp954
sI18636
(lp955
sI4472
(lp956
sI2259
(lp957
I541
asI13987
(lp958
sI2266
(lp959
sI18654
(lp960
sI2280
(lp961
sI10473
(lp962
sI10476
(lp963
sI5842
(lp964
I3367
asI18671
(lp965
sI2288
(lp966
sI2289
(lp967
sI2290
(lp968
sI2291
(lp969
sI2292
(lp970
sI2293
(lp971
sI10492
(lp972
sI2301
(lp973
sI2302
(lp974
sI2306
(lp975
sI18691
(lp976
sI10506
(lp977
sI18701
(lp978
sI2331
(lp979
sI18718
(lp980
sI18721
(lp981
I10203
asI2340
(lp982
I1017
aI1303
aI1380
aI1417
aI1582
aI3546
aI9582
aI9600
asI18725
(lp983
sI18727
(lp984
sI18728
(lp985
sI18735
(lp986
sI18739
(lp987
sI2356
(lp988
sI18742
(lp989
sI4489
(lp990
sI18750
(lp991
sI2371
(lp992
sI11318
(lp993
sI12685
(lp994
I3384
asI2391
(lp995
I1463
asI8591
(lp996
I10947
asI2398
(lp997
sI18788
(lp998
sI18789
(lp999
I3075
asI10602
(lp1000
sI18795
(lp1001
sI24978
(lp1002
sI10606
(lp1003
sI3133
(lp1004
I3337
aI13151
aI13156
asI24979
(lp1005
I2764
asI10613
(lp1006
sI2422
(lp1007
I15006
aI25524
asI2425
(lp1008
sI2428
(lp1009
sI18813
(lp1010
sI2536
(lp1011
I2537
asI18822
(lp1012
I18823
asI18823
(lp1013
I18822
asI2440
(lp1014
I258
asI2442
(lp1015
sI2444
(lp1016
I22351
asI18830
(lp1017
sI2450
(lp1018
sI18836
(lp1019
sI2458
(lp1020
sI18846
(lp1021
I16499
asI15429
(lp1022
sI2471
(lp1023
I20316
asI18860
(lp1024
sI18861
(lp1025
sI18862
(lp1026
sI10675
(lp1027
sI2488
(lp1028
I219
aI9863
asI18874
(lp1029
sI18877
(lp1030
sI2496
(lp1031
sI18890
(lp1032
sI16802
(lp1033
sI11342
(lp1034
sI5881
(lp1035
sI2526
(lp1036
sI16805
(lp1037
sI18912
(lp1038
sI18915
(lp1039
sI18920
(lp1040
sI18921
(lp1041
sI2538
(lp1042
I2539
asI2539
(lp1043
I2538
asI18926
(lp1044
sI2543
(lp1045
sI18928
(lp1046
sI18930
(lp1047
sI2547
(lp1048
sI18934
(lp1049
sI19541
(lp1050
sI14080
(lp1051
sI3158
(lp1052
I14177
asI18959
(lp1053
sI2577
(lp1054
sI2581
(lp1055
I2927
asI15449
(lp1056
sI18969
(lp1057
I5374
asI2586
(lp1058
I1694
asI2587
(lp1059
I8610
aI15585
asI18972
(lp1060
I422
aI25352
asI2589
(lp1061
sI10783
(lp1062
I21543
asI2592
(lp1063
sI12720
(lp1064
sI2594
(lp1065
sI18982
(lp1066
sI2600
(lp1067
sI10793
(lp1068
sI2602
(lp1069
sI18987
(lp1070
sI18989
(lp1071
sI10803
(lp1072
sI2612
(lp1073
sI19002
(lp1074
I541
asI2620
(lp1075
sI2622
(lp1076
sI2623
(lp1077
sI2626
(lp1078
sI5899
(lp1079
sI2628
(lp1080
sI21076
(lp1081
sI2631
(lp1082
I15985
aI17061
aI22565
asI2632
(lp1083
sI2635
(lp1084
I5373
aI5374
aI5375
aI5378
aI5383
aI5386
aI5388
aI5391
aI5396
aI5397
aI5400
aI5401
aI5406
aI5412
aI5416
aI5417
aI5419
aI5421
aI5422
aI5423
aI5424
asI5901
(lp1085
sI19024
(lp1086
I541
asI19025
(lp1087
sI2642
(lp1088
sI2645
(lp1089
sI19030
(lp1090
sI19031
(lp1091
sI19032
(lp1092
sI19033
(lp1093
sI2652
(lp1094
sI19038
(lp1095
sI2655
(lp1096
sI2656
(lp1097
sI12731
(lp1098
sI19044
(lp1099
sI18193
(lp1100
I4080
asI2667
(lp1101
I11145
aI11880
aI11881
asI2668
(lp1102
sI2673
(lp1103
I4178
aI4179
asI19063
(lp1104
I2977
asI2680
(lp1105
sI11546
(lp1106
sI25023
(lp1107
sI2685
(lp1108
sI19070
(lp1109
sI2692
(lp1110
sI2693
(lp1111
sI19084
(lp1112
sI16834
(lp1113
I12179
asI2703
(lp1114
sI19094
(lp1115
sI2711
(lp1116
sI2714
(lp1117
sI23663
(lp1118
sI19104
(lp1119
sI2721
(lp1120
sI2725
(lp1121
sI10921
(lp1122
sI2731
(lp1123
sI2737
(lp1124
sI2738
(lp1125
sI2739
(lp1126
sI10934
(lp1127
sI2745
(lp1128
sI2747
(lp1129
sI2749
(lp1130
sI19135
(lp1131
sI10947
(lp1132
I8591
asI10949
(lp1133
sI19143
(lp1134
I3065
asI19144
(lp1135
I19145
asI19145
(lp1136
I19144
aI19522
asI10954
(lp1137
sI2763
(lp1138
sI2764
(lp1139
I9511
aI24979
asI10957
(lp1140
sI19150
(lp1141
sI10965
(lp1142
sI10969
(lp1143
sI2778
(lp1144
I1694
asI19163
(lp1145
sI10972
(lp1146
sI19166
(lp1147
I1610
asI19167
(lp1148
sI19168
(lp1149
sI25040
(lp1150
sI11388
(lp1151
sI10989
(lp1152
sI19182
(lp1153
sI2803
(lp1154
sI2804
(lp1155
sI2805
(lp1156
sI19190
(lp1157
sI2807
(lp1158
sI2809
(lp1159
sI21916
(lp1160
sI2813
(lp1161
sI2814
(lp1162
I3142
aI12680
asI11007
(lp1163
sI2817
(lp1164
sI2819
(lp1165
sI2822
(lp1166
sI11015
(lp1167
sI2824
(lp1168
sI11019
(lp1169
sI19212
(lp1170
I3728
asI11022
(lp1171
sI5277
(lp1172
sI26414
(lp1173
sI19588
(lp1174
sI19226
(lp1175
sI11036
(lp1176
I11037
asI11037
(lp1177
I11036
aI11106
aI11114
aI19121
aI19123
asI19589
(lp1178
sI19232
(lp1179
sI18224
(lp1180
I4080
asI2850
(lp1181
sI19242
(lp1182
sI2859
(lp1183
sI11052
(lp1184
sI19246
(lp1185
I19247
asI19247
(lp1186
I19246
asI11058
(lp1187
I3048
asI2867
(lp1188
sI11063
(lp1189
I2038
asI19259
(lp1190
sI19262
(lp1191
I1314
asI11071
(lp1192
sI11074
(lp1193
sI2883
(lp1194
sI19268
(lp1195
I19269
asI19269
(lp1196
I19268
asI11078
(lp1197
I1303
asI19271
(lp1198
sI19272
(lp1199
sI11085
(lp1200
sI19279
(lp1201
sI2901
(lp1202
sI2904
(lp1203
sI19289
(lp1204
sI2907
(lp1205
sI2909
(lp1206
sI2912
(lp1207
sI11106
(lp1208
I6186
aI11037
asI2915
(lp1209
sI2916
(lp1210
sI11112
(lp1211
I6186
asI11114
(lp1212
I6186
aI11037
asI19309
(lp1213
sI11118
(lp1214
sI2927
(lp1215
I1582
aI2581
aI15927
asI2929
(lp1216
sI2931
(lp1217
I15145
asI11124
(lp1218
I11125
asI2933
(lp1219
sI19323
(lp1220
sI2940
(lp1221
I3027
aI17887
asI2946
(lp1222
sI2948
(lp1223
sI15510
(lp1224
sI2950
(lp1225
sI26433
(lp1226
sI11145
(lp1227
I2667
asI11146
(lp1228
sI2957
(lp1229
I18089
aI18091
aI18095
aI24551
aI25651
aI25652
asI2958
(lp1230
sI15512
(lp1231
sI11154
(lp1232
I11155
asI11155
(lp1233
I11154
asI2965
(lp1234
sI2970
(lp1235
I23548
asI19359
(lp1236
sI2976
(lp1237
sI2977
(lp1238
I8583
aI14291
aI18641
aI19063
asI19363
(lp1239
sI2980
(lp1240
sI11174
(lp1241
sI2983
(lp1242
sI19368
(lp1243
sI2987
(lp1244
sI11180
(lp1245
sI2989
(lp1246
sI4657
(lp1247
sI19613
(lp1248
sI11185
(lp1249
sI2995
(lp1250
sI19380
(lp1251
sI18249
(lp1252
sI3000
(lp1253
I4080
asI3002
(lp1254
sI19387
(lp1255
sI3005
(lp1256
sI11198
(lp1257
I11199
aI11200
aI11201
asI11199
(lp1258
I11198
aI15637
asI3008
(lp1259
sI11201
(lp1260
I11198
asI19394
(lp1261
sI10059
(lp1262
sI3013
(lp1263
sI3014
(lp1264
sI20559
(lp1265
sI11211
(lp1266
sI17096
(lp1267
I17095
asI11215
(lp1268
sI3024
(lp1269
sI19410
(lp1270
sI11219
(lp1271
sI3032
(lp1272
sI11228
(lp1273
I2234
asI19421
(lp1274
I3916
asI19422
(lp1275
sI3040
(lp1276
sI19428
(lp1277
sI3045
(lp1278
sI3048
(lp1279
I11058
asI3054
(lp1280
sI3058
(lp1281
sI3062
(lp1282
I18404
aI21164
asI11256
(lp1283
sI3065
(lp1284
I19143
asI3075
(lp1285
I18789
aI21164
asI3077
(lp1286
sI3078
(lp1287
sI3079
(lp1288
sI19465
(lp1289
sI11275
(lp1290
sI19468
(lp1291
sI19469
(lp1292
sI19470
(lp1293
sI18264
(lp1294
sI3090
(lp1295
sI11283
(lp1296
sI3093
(lp1297
sI11286
(lp1298
sI19480
(lp1299
sI3097
(lp1300
sI19482
(lp1301
sI19487
(lp1302
sI19489
(lp1303
sI3110
(lp1304
sI11307
(lp1305
sI11309
(lp1306
I2858
asI3122
(lp1307
sI11317
(lp1308
sI3126
(lp1309
I14990
aI18430
aI18433
asI19513
(lp1310
sI19514
(lp1311
sI19515
(lp1312
sI11324
(lp1313
sI11325
(lp1314
sI3137
(lp1315
sI19522
(lp1316
I19145
asI3142
(lp1317
I2814
aI25866
asI16908
(lp1318
sI3150
(lp1319
sI3151
(lp1320
sI19536
(lp1321
sI19538
(lp1322
sI11347
(lp1323
sI3157
(lp1324
sI19542
(lp1325
sI11352
(lp1326
sI19546
(lp1327
I21587
asI3163
(lp1328
sI3164
(lp1329
sI3176
(lp1330
sI3177
(lp1331
sI3183
(lp1332
sI3184
(lp1333
sI25107
(lp1334
sI3189
(lp1335
sI3191
(lp1336
sI3193
(lp1337
sI3194
(lp1338
sI3195
(lp1339
sI3196
(lp1340
sI3204
(lp1341
I3432
asI4630
(lp1342
sI19590
(lp1343
sI3208
(lp1344
sI3211
(lp1345
I777
asI11406
(lp1346
sI3216
(lp1347
sI19602
(lp1348
I8072
asI19604
(lp1349
sI3222
(lp1350
sI4633
(lp1351
sI3224
(lp1352
sI11421
(lp1353
sI3232
(lp1354
sI11427
(lp1355
sI3236
(lp1356
sI3237
(lp1357
sI3238
(lp1358
sI3242
(lp1359
sI3243
(lp1360
sI3247
(lp1361
sI3256
(lp1362
sI3257
(lp1363
sI11450
(lp1364
sI11452
(lp1365
sI19646
(lp1366
sI3263
(lp1367
sI22390
(lp1368
sI3271
(lp1369
sI19656
(lp1370
sI3276
(lp1371
I4144
aI13662
aI18616
aI22777
aI22778
asI22226
(lp1372
sI3280
(lp1373
sI6008
(lp1374
sI3282
(lp1375
sI19670
(lp1376
sI11479
(lp1377
sI22394
(lp1378
sI3294
(lp1379
sI3295
(lp1380
I2136
asI3296
(lp1381
sI3297
(lp1382
sI3298
(lp1383
sI11492
(lp1384
I11493
asI3301
(lp1385
sI3303
(lp1386
sI3304
(lp1387
sI19695
(lp1388
sI11505
(lp1389
I4878
asI11506
(lp1390
sI3315
(lp1391
sI3323
(lp1392
sI12842
(lp1393
sI11519
(lp1394
sI3330
(lp1395
sI3331
(lp1396
sI11478
(lp1397
I4879
asI3335
(lp1398
sI3337
(lp1399
I3133
aI3380
aI4080
aI14992
aI26050
asI11533
(lp1400
sI11534
(lp1401
sI11535
(lp1402
sI19734
(lp1403
sI19735
(lp1404
sI3354
(lp1405
sI11547
(lp1406
sI19740
(lp1407
sI11550
(lp1408
sI18309
(lp1409
sI19747
(lp1410
I11125
asI3367
(lp1411
I2061
aI5842
aI7915
aI11690
aI14497
aI14498
aI14500
aI14501
aI14502
aI14503
aI14507
asI3369
(lp1412
sI19757
(lp1413
sI19677
(lp1414
sI3376
(lp1415
sI3378
(lp1416
sI19763
(lp1417
sI3380
(lp1418
I3337
asI11486
(lp1419
I1298
asI11575
(lp1420
sI3384
(lp1421
I12685
aI14749
asI3385
(lp1422
sI9660
(lp1423
sI19772
(lp1424
I14498
asI19773
(lp1425
sI3392
(lp1426
I3393
asI3393
(lp1427
I3392
asI19781
(lp1428
sI19783
(lp1429
sI3401
(lp1430
I3402
asI3402
(lp1431
I3401
asI23027
(lp1432
I5885
asI3409
(lp1433
I3411
asI3411
(lp1434
I3409
asI3416
(lp1435
sI19801
(lp1436
sI3419
(lp1437
I2039
aI3420
asI3420
(lp1438
I2039
aI3419
asI11614
(lp1439
sI11493
(lp1440
I11492
asI19810
(lp1441
sI3427
(lp1442
sI3428
(lp1443
sI19813
(lp1444
sI19814
(lp1445
sI11623
(lp1446
sI3432
(lp1447
I3204
aI3446
asI20573
(lp1448
sI3446
(lp1449
I3432
asI19831
(lp1450
sI11640
(lp1451
I11641
asI11641
(lp1452
I11640
asI3450
(lp1453
I1319
asI19835
(lp1454
sI3452
(lp1455
I1319
asI19841
(lp1456
sI3459
(lp1457
I13900
aI15931
asI19845
(lp1458
sI16961
(lp1459
sI19848
(lp1460
sI11658
(lp1461
sI19851
(lp1462
sI19853
(lp1463
sI3472
(lp1464
sI11667
(lp1465
sI11668
(lp1466
sI19861
(lp1467
sI3479
(lp1468
sI11673
(lp1469
I550
aI11674
asI11674
(lp1470
I11673
asI19869
(lp1471
sI11678
(lp1472
sI19871
(lp1473
sI11680
(lp1474
sI10139
(lp1475
sI11684
(lp1476
sI11685
(lp1477
sI11690
(lp1478
I2061
aI3367
asI584
(lp1479
I219
aI585
asI19892
(lp1480
sI19896
(lp1481
sI11707
(lp1482
sI3519
(lp1483
I541
asI11716
(lp1484
I12076
asI3525
(lp1485
sI11722
(lp1486
I4080
asI11723
(lp1487
sI11725
(lp1488
sI20849
(lp1489
sI11728
(lp1490
I11727
asI19928
(lp1491
sI18340
(lp1492
sI3546
(lp1493
I1396
aI2340
aI14070
aI22201
asI12879
(lp1494
sI19991
(lp1495
sI3549
(lp1496
sI3555
(lp1497
I3556
asI3556
(lp1498
I3555
aI14489
aI17746
asI23032
(lp1499
sI3560
(lp1500
I895
asI11754
(lp1501
sI25760
(lp1502
sI5895
(lp1503
sI11759
(lp1504
sI3570
(lp1505
sI11763
(lp1506
sI3573
(lp1507
sI11766
(lp1508
sI19959
(lp1509
sI3577
(lp1510
sI3583
(lp1511
sI19968
(lp1512
sI11778
(lp1513
sI19977
(lp1514
sI11786
(lp1515
sI3596
(lp1516
I15266
aI15543
aI16777
aI16783
aI16786
aI16787
aI16788
asI19981
(lp1517
I1248
aI4878
asI11793
(lp1518
I11794
asI19986
(lp1519
sI19989
(lp1520
sI3607
(lp1521
sI19992
(lp1522
sI19993
(lp1523
I19995
asI3610
(lp1524
sI11803
(lp1525
sI3612
(lp1526
sI11805
(lp1527
sI11810
(lp1528
sI11814
(lp1529
sI11815
(lp1530
sI3628
(lp1531
sI20013
(lp1532
sI3638
(lp1533
sI12669
(lp1534
sI25217
(lp1535
sI3643
(lp1536
I3646
asI3646
(lp1537
I3643
asI6069
(lp1538
sI3649
(lp1539
I258
asI3650
(lp1540
I258
asI11847
(lp1541
I16949
asI3658
(lp1542
sI20043
(lp1543
sI3660
(lp1544
sI3661
(lp1545
sI20046
(lp1546
I1949
asI23821
(lp1547
sI3665
(lp1548
sI11859
(lp1549
sI3673
(lp1550
sI3674
(lp1551
sI3676
(lp1552
sI11869
(lp1553
sI11871
(lp1554
sI11872
(lp1555
sI11874
(lp1556
sI3684
(lp1557
sI20069
(lp1558
sI11878
(lp1559
sI11879
(lp1560
sI3688
(lp1561
sI11881
(lp1562
I2667
asI3693
(lp1563
I541
asI11886
(lp1564
I4044
aI11885
asI3695
(lp1565
I3696
asI3696
(lp1566
I3695
asI20082
(lp1567
sI20083
(lp1568
sI3700
(lp1569
sI11894
(lp1570
sI3704
(lp1571
sI3705
(lp1572
sI3706
(lp1573
sI20093
(lp1574
sI3711
(lp1575
sI11904
(lp1576
sI3713
(lp1577
sI3717
(lp1578
sI19764
(lp1579
sI26157
(lp1580
sI20108
(lp1581
sI20110
(lp1582
I1657
asI20111
(lp1583
sI3728
(lp1584
I19212
asI3730
(lp1585
I13973
aI23769
asI16491
(lp1586
sI20116
(lp1587
sI20117
(lp1588
sI20118
(lp1589
sI20119
(lp1590
sI11929
(lp1591
sI11930
(lp1592
sI7450
(lp1593
sI3751
(lp1594
sI11945
(lp1595
sI20140
(lp1596
sI3759
(lp1597
sI3760
(lp1598
sI20145
(lp1599
sI12915
(lp1600
sI3765
(lp1601
I24764
asI3767
(lp1602
sI20152
(lp1603
sI11961
(lp1604
sI3774
(lp1605
I16876
asI3776
(lp1606
sI11971
(lp1607
sI11972
(lp1608
sI11973
(lp1609
sI20168
(lp1610
sI11977
(lp1611
sI11979
(lp1612
sI3789
(lp1613
sI3790
(lp1614
sI3791
(lp1615
sI20312
(lp1616
sI11986
(lp1617
sI399
(lp1618
sI11990
(lp1619
sI20184
(lp1620
sI11994
(lp1621
sI20188
(lp1622
sI11997
(lp1623
sI3807
(lp1624
sI3808
(lp1625
I6214
asI12002
(lp1626
sI20195
(lp1627
I900
asI20196
(lp1628
sI12005
(lp1629
sI20198
(lp1630
sI8828
(lp1631
sI20203
(lp1632
sI20204
(lp1633
sI20206
(lp1634
sI12021
(lp1635
sI12024
(lp1636
sI8831
(lp1637
I8832
asI17024
(lp1638
sI20229
(lp1639
sI12038
(lp1640
sI12039
(lp1641
sI12042
(lp1642
sI3852
(lp1643
sI12046
(lp1644
sI20241
(lp1645
sI12050
(lp1646
sI12054
(lp1647
sI3863
(lp1648
sI20248
(lp1649
sI13495
(lp1650
sI20254
(lp1651
sI12063
(lp1652
sI20256
(lp1653
sI3876
(lp1654
sI12072
(lp1655
sI12935
(lp1656
sI12076
(lp1657
I11716
asI14301
(lp1658
I2039
asI12084
(lp1659
sI3895
(lp1660
sI20281
(lp1661
sI20283
(lp1662
sI20284
(lp1663
sI3903
(lp1664
sI21131
(lp1665
sI3908
(lp1666
I17727
aI20340
asI12103
(lp1667
sI25228
(lp1668
sI20299
(lp1669
sI3916
(lp1670
I19421
asI3919
(lp1671
sI19768
(lp1672
sI12114
(lp1673
sI12115
(lp1674
sI12116
(lp1675
sI21134
(lp1676
sI19769
(lp1677
sI12120
(lp1678
sI18404
(lp1679
I3062
asI12122
(lp1680
sI8847
(lp1681
sI20316
(lp1682
I2471
asI3935
(lp1683
sI3936
(lp1684
sI8848
(lp1685
I8879
asI20326
(lp1686
sI3943
(lp1687
sI12136
(lp1688
sI22285
(lp1689
sI12139
(lp1690
sI12141
(lp1691
sI20339
(lp1692
I5827
aI18484
asI12148
(lp1693
sI20341
(lp1694
sI12150
(lp1695
sI20343
(lp1696
sI12155
(lp1697
sI22500
(lp1698
sI3966
(lp1699
sI12162
(lp1700
sI3972
(lp1701
sI2860
(lp1702
sI12170
(lp1703
sI20365
(lp1704
sI20366
(lp1705
sI12177
(lp1706
sI20370
(lp1707
sI12179
(lp1708
I16834
asI20373
(lp1709
sI3993
(lp1710
sI17050
(lp1711
sI21147
(lp1712
sI20388
(lp1713
sI4006
(lp1714
I4010
asI20393
(lp1715
sI4010
(lp1716
I4006
asI20395
(lp1717
I20396
asI20396
(lp1718
I20395
aI25670
asI20402
(lp1719
sI21150
(lp1720
sI12216
(lp1721
sI20411
(lp1722
sI12224
(lp1723
sI20418
(lp1724
I22548
aI24500
asI20419
(lp1725
I17590
aI23005
aI25287
asI12232
(lp1726
I8832
asI20425
(lp1727
sI17976
(lp1728
sI4044
(lp1729
I11885
aI11886
aI11887
asI20429
(lp1730
sI20431
(lp1731
sI4048
(lp1732
sI20433
(lp1733
I20434
asI20434
(lp1734
I20433
asI12243
(lp1735
sI20437
(lp1736
sI4055
(lp1737
I8072
asI12248
(lp1738
I4190
asI4061
(lp1739
I4063
asI12254
(lp1740
sI4063
(lp1741
I4061
asI4065
(lp1742
sI4080
(lp1743
I3000
aI3337
aI5841
aI6312
aI11722
aI14575
aI15839
aI16183
aI18193
aI18198
aI18210
aI18222
aI18224
aI18225
aI18227
asI12277
(lp1744
sI12279
(lp1745
sI12280
(lp1746
sI12281
(lp1747
I16833
asI26214
(lp1748
sI4093
(lp1749
sI12290
(lp1750
sI4100
(lp1751
sI20485
(lp1752
sI20490
(lp1753
sI12300
(lp1754
I1957
asI12304
(lp1755
sI19800
(lp1756
sI8878
(lp1757
sI12310
(lp1758
sI12314
(lp1759
sI12315
(lp1760
sI4124
(lp1761
sI4125
(lp1762
sI12322
(lp1763
sI20515
(lp1764
sI12324
(lp1765
sI12326
(lp1766
sI20519
(lp1767
sI12328
(lp1768
sI20522
(lp1769
sI4140
(lp1770
sI12333
(lp1771
sI12334
(lp1772
sI4144
(lp1773
I3276
aI4145
aI4146
asI18440
(lp1774
sI4146
(lp1775
I4144
asI20532
(lp1776
sI12342
(lp1777
sI12348
(lp1778
sI12349
(lp1779
sI20545
(lp1780
I3461
asI17078
(lp1781
I23862
aI24539
asI20550
(lp1782
sI2061
(lp1783
I3367
aI11690
asI4177
(lp1784
I4178
aI4179
asI4178
(lp1785
I2673
aI4177
aI25604
asI4179
(lp1786
I2673
aI4177
asI4187
(lp1787
sI12381
(lp1788
sI4190
(lp1789
I12248
asI4194
(lp1790
sI4198
(lp1791
sI4201
(lp1792
I15177
aI17485
aI18047
aI18543
aI18544
asI12394
(lp1793
sI20587
(lp1794
I23201
asI12396
(lp1795
sI12403
(lp1796
sI11321
(lp1797
sI20598
(lp1798
sI12407
(lp1799
sI20600
(lp1800
sI22548
(lp1801
I20418
aI22550
asI12410
(lp1802
sI4219
(lp1803
sI12412
(lp1804
sI9415
(lp1805
I9416
asI12415
(lp1806
sI12417
(lp1807
sI4226
(lp1808
sI20611
(lp1809
sI14358
(lp1810
I14359
asI12422
(lp1811
I541
asI12425
(lp1812
sI12427
(lp1813
sI12428
(lp1814
sI4238
(lp1815
sI4239
(lp1816
sI12434
(lp1817
sI4243
(lp1818
sI12436
(lp1819
sI12443
(lp1820
sI12444
(lp1821
sI20643
(lp1822
sI12452
(lp1823
sI12453
(lp1824
sI12454
(lp1825
sI12457
(lp1826
sI25287
(lp1827
I20419
asI4269
(lp1828
I4270
asI4270
(lp1829
I4269
aI9499
asI6173
(lp1830
sI20328
(lp1831
sI4274
(lp1832
sI4275
(lp1833
sI3629
(lp1834
sI4282
(lp1835
sI12481
(lp1836
sI4292
(lp1837
sI4293
(lp1838
sI4294
(lp1839
sI12490
(lp1840
sI3447
(lp1841
sI20695
(lp1842
I1274
asI20696
(lp1843
sI4315
(lp1844
I3027
asI12508
(lp1845
sI12513
(lp1846
sI20707
(lp1847
sI20708
(lp1848
I11880
asI13783
(lp1849
sI12519
(lp1850
sI4329
(lp1851
I14716
asI4330
(lp1852
I5236
aI5885
aI10110
aI22392
aI23404
aI23405
aI23406
asI4331
(lp1853
sI20716
(lp1854
sI4335
(lp1855
sI20721
(lp1856
I2151
asI20724
(lp1857
sI12534
(lp1858
sI25300
(lp1859
sI14378
(lp1860
sI20734
(lp1861
sI4351
(lp1862
sI4352
(lp1863
sI4356
(lp1864
sI4360
(lp1865
sI4361
(lp1866
sI4364
(lp1867
sI20749
(lp1868
sI20751
(lp1869
sI20752
(lp1870
sI4824
(lp1871
sI4374
(lp1872
sI4375
(lp1873
sI4379
(lp1874
I4380
asI4380
(lp1875
I4379
asI4382
(lp1876
sI4383
(lp1877
sI4387
(lp1878
sI15750
(lp1879
sI4391
(lp1880
I4392
asI4392
(lp1881
I4391
aI16631
asI12585
(lp1882
sI20779
(lp1883
I1610
asI21696
(lp1884
I20171
asI12589
(lp1885
sI20782
(lp1886
I1610
asI4402
(lp1887
sI20790
(lp1888
sI4409
(lp1889
sI20795
(lp1890
sI10995
(lp1891
sI12609
(lp1892
sI4421
(lp1893
I4422
asI4422
(lp1894
I4421
asI4423
(lp1895
sI4424
(lp1896
sI4426
(lp1897
sI20812
(lp1898
sI20814
(lp1899
sI4431
(lp1900
sI12625
(lp1901
sI4435
(lp1902
I4436
aI4438
asI4436
(lp1903
I4435
asI4438
(lp1904
I4435
aI13898
asI17124
(lp1905
sI4443
(lp1906
I1370
aI13982
aI16077
aI17794
asI20828
(lp1907
sI12639
(lp1908
sI20832
(lp1909
sI11664
(lp1910
sI12643
(lp1911
sI20841
(lp1912
sI744
(lp1913
sI20850
(lp1914
sI4470
(lp1915
sI25321
(lp1916
sI20856
(lp1917
sI12666
(lp1918
sI12667
(lp1919
sI4477
(lp1920
I951
asI4480
(lp1921
I951
asI12673
(lp1922
I12674
asI12674
(lp1923
I12673
aI14845
asI12675
(lp1924
sI20868
(lp1925
I20869
asI20869
(lp1926
I20868
asI12680
(lp1927
I2814
asI20873
(lp1928
I17311
asI4490
(lp1929
sI4493
(lp1930
sI4498
(lp1931
sI17134
(lp1932
sI3481
(lp1933
sI4507
(lp1934
sI8879
(lp1935
I8848
asI4512
(lp1936
sI20903
(lp1937
sI12715
(lp1938
sI4527
(lp1939
sI4528
(lp1940
sI20915
(lp1941
sI4532
(lp1942
I14338
asI20917
(lp1943
sI4534
(lp1944
sI12727
(lp1945
sI4538
(lp1946
sI4539
(lp1947
I4552
aI15827
aI15828
asI4549
(lp1948
sI12743
(lp1949
sI4552
(lp1950
I4539
asI20941
(lp1951
sI4559
(lp1952
sI4566
(lp1953
sI12759
(lp1954
I541
asI12762
(lp1955
sI4571
(lp1956
sI4573
(lp1957
sI20958
(lp1958
sI19877
(lp1959
sI4576
(lp1960
sI20962
(lp1961
sI20963
(lp1962
sI4580
(lp1963
I6006
asI25340
(lp1964
I23549
asI20970
(lp1965
sI4587
(lp1966
sI20973
(lp1967
I14837
aI19995
asI12783
(lp1968
I895
asI4592
(lp1969
sI20978
(lp1970
sI12787
(lp1971
I12786
asI20981
(lp1972
sI20986
(lp1973
sI12811
(lp1974
I14580
asI4620
(lp1975
sI12817
(lp1976
sI12819
(lp1977
I1516
asI12820
(lp1978
sI12822
(lp1979
sI772
(lp1980
I1582
aI5310
aI5312
aI5315
aI5320
aI5321
asI18522
(lp1981
sI4638
(lp1982
sI21028
(lp1983
sI12837
(lp1984
sI4648
(lp1985
I20617
aI25636
asI4649
(lp1986
sI4650
(lp1987
sI25351
(lp1988
sI4654
(lp1989
sI17160
(lp1990
sI12850
(lp1991
sI4660
(lp1992
sI21046
(lp1993
sI777
(lp1994
I776
aI3211
aI7095
aI7740
aI7915
aI7937
aI8001
aI8603
asI4668
(lp1995
sI4669
(lp1996
sI4670
(lp1997
sI21055
(lp1998
I21056
asI21056
(lp1999
I21055
asI21057
(lp2000
sI4674
(lp2001
sI4675
(lp2002
sI4687
(lp2003
sI12880
(lp2004
sI12881
(lp2005
I760
asI21074
(lp2006
sI4691
(lp2007
sI4692
(lp2008
sI21081
(lp2009
sI13072
(lp2010
sI4708
(lp2011
sI12901
(lp2012
sI24980
(lp2013
I10125
asI4717
(lp2014
sI4723
(lp2015
sI4724
(lp2016
sI12917
(lp2017
sI12920
(lp2018
sI21117
(lp2019
sI21122
(lp2020
sI21123
(lp2021
sI21127
(lp2022
sI21271
(lp2023
sI21132
(lp2024
sI21133
(lp2025
sI4750
(lp2026
sI4752
(lp2027
sI4753
(lp2028
sI4755
(lp2029
I7926
aI22514
aI24838
asI12949
(lp2030
sI4759
(lp2031
I643
asI12953
(lp2032
sI4763
(lp2033
sI21148
(lp2034
sI4765
(lp2035
sI4766
(lp2036
sI21151
(lp2037
sI21152
(lp2038
sI4769
(lp2039
sI4771
(lp2040
sI12964
(lp2041
I593
asI4774
(lp2042
sI16253
(lp2043
I16254
asI12968
(lp2044
sI21164
(lp2045
I3062
aI3075
asI4785
(lp2046
sI4786
(lp2047
sI21172
(lp2048
sI4791
(lp2049
sI21176
(lp2050
I5355
asI21179
(lp2051
sI4797
(lp2052
sI21187
(lp2053
sI4805
(lp2054
sI12999
(lp2055
sI21192
(lp2056
sI4811
(lp2057
I5044
asI13004
(lp2058
sI19917
(lp2059
sI21201
(lp2060
sI21204
(lp2061
sI21208
(lp2062
sI11727
(lp2063
I11728
asI21213
(lp2064
sI4836
(lp2065
sI4837
(lp2066
I18358
asI21222
(lp2067
sI4839
(lp2068
sI4844
(lp2069
I16620
asI21229
(lp2070
sI4846
(lp2071
sI14461
(lp2072
sI4848
(lp2073
sI11107
(lp2074
I2215
aI6186
asI21247
(lp2075
sI21251
(lp2076
sI4869
(lp2077
sI4870
(lp2078
I16683
aI23394
asI4872
(lp2079
sI4873
(lp2080
sI4876
(lp2081
sI4877
(lp2082
sI4878
(lp2083
I11505
aI15211
aI19293
aI19981
aI23143
aI23394
aI26396
asI4879
(lp2084
I11478
asI4880
(lp2085
sI21267
(lp2086
sI4884
(lp2087
sI4885
(lp2088
sI4887
(lp2089
sI4893
(lp2090
sI4898
(lp2091
I219
aI4979
asI4899
(lp2092
sI4900
(lp2093
sI4902
(lp2094
sI4905
(lp2095
sI4908
(lp2096
sI4912
(lp2097
sI4914
(lp2098
sI4916
(lp2099
sI13530
(lp2100
I13529
asI4922
(lp2101
I14747
aI23283
asI4923
(lp2102
sI21313
(lp2103
I7095
asI21315
(lp2104
sI13124
(lp2105
sI21320
(lp2106
sI21322
(lp2107
sI13141
(lp2108
sI13142
(lp2109
sI21335
(lp2110
sI4952
(lp2111
sI21337
(lp2112
sI4958
(lp2113
sI11749
(lp2114
sI4961
(lp2115
sI4962
(lp2116
sI13156
(lp2117
I3133
asI13157
(lp2118
sI13161
(lp2119
sI4972
(lp2120
sI4974
(lp2121
sI4977
(lp2122
I9560
asI4979
(lp2123
I4898
aI15044
asI4983
(lp2124
sI4984
(lp2125
sI4985
(lp2126
sI4986
(lp2127
sI4987
(lp2128
sI4991
(lp2129
sI4993
(lp2130
sI21378
(lp2131
sI11755
(lp2132
sI21384
(lp2133
sI13193
(lp2134
I3753
asI5002
(lp2135
sI13198
(lp2136
sI21392
(lp2137
sI21393
(lp2138
sI5010
(lp2139
sI5011
(lp2140
sI22681
(lp2141
sI5016
(lp2142
sI5020
(lp2143
sI21407
(lp2144
sI5025
(lp2145
I5026
aI5029
aI5030
asI21410
(lp2146
I1510
asI21411
(lp2147
sI21412
(lp2148
sI5029
(lp2149
I5025
asI5030
(lp2150
I5025
asI13223
(lp2151
sI21416
(lp2152
sI21417
(lp2153
sI5035
(lp2154
sI5040
(lp2155
I5041
asI5041
(lp2156
I5040
asI5042
(lp2157
sI5044
(lp2158
I4811
asI21429
(lp2159
sI5049
(lp2160
sI21434
(lp2161
sI13244
(lp2162
sI5053
(lp2163
I5052
asI15861
(lp2164
sI5058
(lp2165
I5060
asI5060
(lp2166
I2020
aI5058
asI5062
(lp2167
sI5065
(lp2168
sI21454
(lp2169
sI21456
(lp2170
sI5073
(lp2171
sI13268
(lp2172
sI21461
(lp2173
sI5078
(lp2174
sI21463
(lp2175
sI5081
(lp2176
sI5083
(lp2177
sI5084
(lp2178
sI17900
(lp2179
I643
asI5087
(lp2180
sI5088
(lp2181
sI5090
(lp2182
I2537
asI13283
(lp2183
sI22694
(lp2184
sI5098
(lp2185
sI22695
(lp2186
I8072
asI21484
(lp2187
sI21486
(lp2188
sI5103
(lp2189
sI22696
(lp2190
sI21494
(lp2191
sI5111
(lp2192
sI5112
(lp2193
sI21498
(lp2194
sI19967
(lp2195
sI5117
(lp2196
sI5119
(lp2197
I5120
asI5120
(lp2198
I5119
aI25799
asI5123
(lp2199
sI4950
(lp2200
I8671
asI21510
(lp2201
sI21511
(lp2202
sI21515
(lp2203
sI19970
(lp2204
sI5134
(lp2205
sI5137
(lp2206
sI5139
(lp2207
sI5141
(lp2208
sI5142
(lp2209
sI5144
(lp2210
sI5147
(lp2211
I3753
aI5148
asI5148
(lp2212
I5147
asI5150
(lp2213
sI13343
(lp2214
sI13344
(lp2215
sI21541
(lp2216
sI21542
(lp2217
sI21543
(lp2218
I10783
asI21544
(lp2219
sI21545
(lp2220
sI13354
(lp2221
sI5165
(lp2222
I1303
asI21550
(lp2223
sI13360
(lp2224
sI5172
(lp2225
sI21557
(lp2226
sI13368
(lp2227
sI5178
(lp2228
sI863
(lp2229
sI21564
(lp2230
sI19978
(lp2231
sI21571
(lp2232
sI5191
(lp2233
sI13384
(lp2234
sI21580
(lp2235
sI21582
(lp2236
sI5200
(lp2237
I5203
asI21585
(lp2238
sI5203
(lp2239
I5200
asI21592
(lp2240
sI21593
(lp2241
I9833
asI21596
(lp2242
I9833
asI21597
(lp2243
sI21599
(lp2244
sI13408
(lp2245
sI21603
(lp2246
sI13412
(lp2247
sI13414
(lp2248
sI15889
(lp2249
sI13416
(lp2250
sI13419
(lp2251
sI11794
(lp2252
I11793
asI13424
(lp2253
I13425
asI5233
(lp2254
sI21619
(lp2255
I5426
asI5236
(lp2256
I4330
aI5237
asI21621
(lp2257
sI21623
(lp2258
sI5240
(lp2259
sI21627
(lp2260
sI11797
(lp2261
sI5248
(lp2262
sI21633
(lp2263
sI5251
(lp2264
sI5253
(lp2265
sI13451
(lp2266
sI5260
(lp2267
sI12723
(lp2268
sI13456
(lp2269
I13457
asI13457
(lp2270
I13456
aI22796
asI21652
(lp2271
I13492
asI5270
(lp2272
sI21655
(lp2273
sI13464
(lp2274
I19424
asI21658
(lp2275
sI5275
(lp2276
sI5276
(lp2277
sI21661
(lp2278
sI5278
(lp2279
sI5279
(lp2280
sI19995
(lp2281
I19993
aI20973
asI13478
(lp2282
I13479
asI13479
(lp2283
I13478
asI5289
(lp2284
sI5292
(lp2285
I1539
asI13486
(lp2286
sI13487
(lp2287
sI13492
(lp2288
I21652
asI5303
(lp2289
sI5304
(lp2290
sI5308
(lp2291
sI5310
(lp2292
I772
asI13503
(lp2293
sI5312
(lp2294
I771
aI772
asI5315
(lp2295
I771
aI772
asI13509
(lp2296
sI21702
(lp2297
sI13511
(lp2298
sI5320
(lp2299
I772
asI5321
(lp2300
I771
aI772
asI13517
(lp2301
sI21710
(lp2302
sI13519
(lp2303
sI21713
(lp2304
sI5331
(lp2305
sI21716
(lp2306
sI5333
(lp2307
sI5334
(lp2308
sI13529
(lp2309
I13530
asI5338
(lp2310
sI5340
(lp2311
sI5341
(lp2312
sI21726
(lp2313
sI5343
(lp2314
sI21730
(lp2315
sI21731
(lp2316
sI21735
(lp2317
sI5352
(lp2318
sI5355
(lp2319
I421
aI7482
aI8936
aI9749
aI10884
aI16440
aI16831
aI18476
aI20143
aI21176
aI24386
aI25473
aI26442
asI13548
(lp2320
sI5358
(lp2321
I25704
asI5363
(lp2322
I593
asI21748
(lp2323
sI21749
(lp2324
sI13558
(lp2325
sI12181
(lp2326
sI13562
(lp2327
sI21755
(lp2328
sI17364
(lp2329
sI5373
(lp2330
I2635
asI13566
(lp2331
sI5375
(lp2332
I2635
asI5378
(lp2333
I2635
aI15320
asI15915
(lp2334
sI21764
(lp2335
sI21767
(lp2336
sI13577
(lp2337
sI5386
(lp2338
I2635
asI5388
(lp2339
I2635
asI5391
(lp2340
I2635
asI21777
(lp2341
sI5396
(lp2342
I2635
asI5397
(lp2343
I2635
asI5400
(lp2344
I2635
asI5401
(lp2345
I2635
asI21786
(lp2346
sI13595
(lp2347
I14453
aI14455
asI5406
(lp2348
I2635
aI5423
asI5412
(lp2349
I2635
asI13605
(lp2350
sI13607
(lp2351
sI5416
(lp2352
I2635
asI5417
(lp2353
I2635
asI5419
(lp2354
I2635
asI5421
(lp2355
I2635
asI13614
(lp2356
sI5423
(lp2357
I2635
aI5406
asI5424
(lp2358
I2635
asI5426
(lp2359
I21619
asI13619
(lp2360
sI13623
(lp2361
sI13624
(lp2362
sI5433
(lp2363
sI13626
(lp2364
sI13629
(lp2365
sI21823
(lp2366
sI5443
(lp2367
sI21830
(lp2368
sI13640
(lp2369
I13641
asI13641
(lp2370
I13640
asI5456
(lp2371
sI13651
(lp2372
sI5462
(lp2373
sI5469
(lp2374
sI13662
(lp2375
I3276
asI21857
(lp2376
sI5475
(lp2377
sI13669
(lp2378
sI5009
(lp2379
I1925
asI24124
(lp2380
sI22759
(lp2381
I22760
asI17095
(lp2382
I17096
asI13681
(lp2383
I2038
asI13682
(lp2384
I2038
asI21875
(lp2385
I21874
asI5494
(lp2386
sI21881
(lp2387
sI23915
(lp2388
I15711
asI21460
(lp2389
sI13693
(lp2390
sI21890
(lp2391
sI5508
(lp2392
sI5383
(lp2393
I2635
asI21896
(lp2394
sI21897
(lp2395
sI21898
(lp2396
sI21900
(lp2397
sI5520
(lp2398
sI21906
(lp2399
sI21908
(lp2400
sI21909
(lp2401
I22278
asI21910
(lp2402
sI21911
(lp2403
sI5528
(lp2404
sI21913
(lp2405
sI2287
(lp2406
sI13724
(lp2407
I1610
asI21917
(lp2408
sI10111
(lp2409
I10110
asI21919
(lp2410
sI21920
(lp2411
sI21922
(lp2412
I21923
asI21923
(lp2413
I21922
asI21924
(lp2414
sI15942
(lp2415
sI21928
(lp2416
sI21931
(lp2417
sI13742
(lp2418
sI13745
(lp2419
sI5023
(lp2420
sI21953
(lp2421
sI13763
(lp2422
sI15734
(lp2423
sI21960
(lp2424
I7697
asI11852
(lp2425
sI21962
(lp2426
sI21963
(lp2427
sI5026
(lp2428
I5025
asI20045
(lp2429
I1949
asI13776
(lp2430
sI21971
(lp2431
I25670
asI21972
(lp2432
sI11854
(lp2433
sI5590
(lp2434
sI22777
(lp2435
I3276
asI21979
(lp2436
sI21980
(lp2437
sI13791
(lp2438
sI5601
(lp2439
sI13796
(lp2440
sI13799
(lp2441
sI5624
(lp2442
sI22012
(lp2443
sI5629
(lp2444
sI5637
(lp2445
sI3461
(lp2446
I13900
aI15931
aI20545
asI5644
(lp2447
sI13838
(lp2448
sI5649
(lp2449
sI5651
(lp2450
sI22041
(lp2451
sI13851
(lp2452
sI13852
(lp2453
sI22047
(lp2454
sI13282
(lp2455
sI13860
(lp2456
sI13862
(lp2457
sI13873
(lp2458
sI13877
(lp2459
sI22073
(lp2460
I22074
asI22074
(lp2461
I22073
asI5692
(lp2462
sI22077
(lp2463
sI17333
(lp2464
sI22084
(lp2465
sI22085
(lp2466
sI22087
(lp2467
sI13896
(lp2468
sI13898
(lp2469
I4438
asI22091
(lp2470
sI22092
(lp2471
sI13901
(lp2472
sI22094
(lp2473
sI22095
(lp2474
sI11876
(lp2475
sI22106
(lp2476
sI5050
(lp2477
sI22112
(lp2478
I4130
aI11014
asI5729
(lp2479
I5730
asI5730
(lp2480
I5729
asI22118
(lp2481
sI5052
(lp2482
I5053
asI13930
(lp2483
sI5739
(lp2484
sI22127
(lp2485
sI22128
(lp2486
sI11880
(lp2487
I2667
aI20708
asI13938
(lp2488
sI22131
(lp2489
sI5749
(lp2490
sI13942
(lp2491
sI22135
(lp2492
sI13945
(lp2493
sI13947
(lp2494
sI5762
(lp2495
sI5763
(lp2496
sI3738
(lp2497
sI5771
(lp2498
sI22156
(lp2499
sI16787
(lp2500
I3596
asI11885
(lp2501
I4044
aI11886
asI13973
(lp2502
I3730
asI13975
(lp2503
sI13978
(lp2504
sI11887
(lp2505
I4044
aI6214
asI13982
(lp2506
I4443
asI22178
(lp2507
sI18715
(lp2508
sI5797
(lp2509
sI13991
(lp2510
sI22197
(lp2511
sI22201
(lp2512
I3546
asI15989
(lp2513
sI22208
(lp2514
I47
asI5826
(lp2515
sI5827
(lp2516
I18484
aI20339
asI14021
(lp2517
sI5836
(lp2518
I20180
asI5841
(lp2519
I4080
asI14034
(lp2520
sI18724
(lp2521
I2234
asI5852
(lp2522
I25342
asI20090
(lp2523
sI14629
(lp2524
sI5858
(lp2525
sI25553
(lp2526
sI22255
(lp2527
sI14067
(lp2528
sI14068
(lp2529
sI22261
(lp2530
sI14070
(lp2531
I3546
asI5076
(lp2532
sI14074
(lp2533
sI5883
(lp2534
sI5885
(lp2535
I4330
aI23027
asI22272
(lp2536
sI14081
(lp2537
sI22278
(lp2538
I21909
asI11905
(lp2539
sI5896
(lp2540
sI5897
(lp2541
sI12587
(lp2542
sI14091
(lp2543
sI14093
(lp2544
sI5905
(lp2545
sI17109
(lp2546
sI22297
(lp2547
sI22299
(lp2548
sI14108
(lp2549
sI14109
(lp2550
sI5918
(lp2551
sI5919
(lp2552
I1657
asI16006
(lp2553
sI14125
(lp2554
I5422
asI14128
(lp2555
sI14130
(lp2556
sI22325
(lp2557
I2151
asI14144
(lp2558
sI22337
(lp2559
sI5954
(lp2560
sI14149
(lp2561
sI17061
(lp2562
I2631
aI8804
asI2359
(lp2563
I1447
asI22348
(lp2564
sI22349
(lp2565
sI22351
(lp2566
I2444
asI25571
(lp2567
sI22357
(lp2568
I22359
asI5974
(lp2569
sI5975
(lp2570
sI22360
(lp2571
sI14170
(lp2572
sI11383
(lp2573
sI5980
(lp2574
sI13285
(lp2575
I541
asI14177
(lp2576
I3158
asI14183
(lp2577
sI5999
(lp2578
sI14196
(lp2579
sI6006
(lp2580
I4580
asI22392
(lp2581
I4330
asI14202
(lp2582
sI22396
(lp2583
sI6013
(lp2584
sI21044
(lp2585
sI22403
(lp2586
sI22405
(lp2587
sI14218
(lp2588
sI5102
(lp2589
sI3737
(lp2590
sI14235
(lp2591
sI14236
(lp2592
sI7834
(lp2593
I14580
asI14240
(lp2594
sI22437
(lp2595
sI22442
(lp2596
I22443
asI22443
(lp2597
I22442
aI26092
asI1020
(lp2598
sI22451
(lp2599
sI22453
(lp2600
sI14265
(lp2601
sI22458
(lp2602
I18240
asI13843
(lp2603
sI22465
(lp2604
sI14275
(lp2605
sI6084
(lp2606
sI22469
(lp2607
sI14281
(lp2608
sI22475
(lp2609
sI25026
(lp2610
sI14290
(lp2611
I14291
asI14291
(lp2612
I2977
aI14290
asI9209
(lp2613
sI22489
(lp2614
sI14300
(lp2615
I2039
asI5114
(lp2616
sI14302
(lp2617
I2039
aI14749
asI14388
(lp2618
sI14304
(lp2619
I2039
asI14305
(lp2620
I2039
asI14306
(lp2621
I2039
asI6115
(lp2622
sI14308
(lp2623
I2039
asI14309
(lp2624
I2039
aI22896
asI14311
(lp2625
sI25596
(lp2626
sI14316
(lp2627
sI14318
(lp2628
I1657
asI14319
(lp2629
sI6128
(lp2630
sI22514
(lp2631
I4755
asI22517
(lp2632
sI14326
(lp2633
sI3753
(lp2634
I5147
aI6616
aI9188
aI13193
aI14381
aI14651
aI16020
aI18318
aI18319
aI18325
asI14330
(lp2635
I2020
asI25573
(lp2636
I643
asI6142
(lp2637
sI14338
(lp2638
I4532
asI14340
(lp2639
sI6149
(lp2640
sI14343
(lp2641
sI22536
(lp2642
sI22537
(lp2643
sI14346
(lp2644
sI22544
(lp2645
sI14354
(lp2646
sI4024
(lp2647
sI6164
(lp2648
sI14117
(lp2649
sI22550
(lp2650
I22548
asI6167
(lp2651
sI22552
(lp2652
sI20143
(lp2653
I5355
asI14364
(lp2654
I55
asI22557
(lp2655
sI14366
(lp2656
I1057
asI19573
(lp2657
sI6176
(lp2658
sI14370
(lp2659
sI14371
(lp2660
sI22565
(lp2661
I2631
asI22566
(lp2662
sI11953
(lp2663
sI6184
(lp2664
sI6186
(lp2665
I1510
aI11106
aI11107
aI11108
aI11112
aI11114
asI14381
(lp2666
I3753
asI6195
(lp2667
sI22580
(lp2668
sI22583
(lp2669
sI22585
(lp2670
sI14401
(lp2671
sI25611
(lp2672
sI14405
(lp2673
I5371
asI6214
(lp2674
I3808
aI11887
asI22599
(lp2675
sI9228
(lp2676
I7326
asI14410
(lp2677
sI14415
(lp2678
sI14420
(lp2679
I14421
asI14421
(lp2680
I14420
asI14424
(lp2681
I7507
asI6237
(lp2682
sI14434
(lp2683
sI6244
(lp2684
sI14442
(lp2685
sI15484
(lp2686
sI6259
(lp2687
sI6260
(lp2688
sI14453
(lp2689
I13595
asI14455
(lp2690
I13595
asI25850
(lp2691
sI14458
(lp2692
sI23395
(lp2693
sI6268
(lp2694
sI2410
(lp2695
sI25683
(lp2696
sI22665
(lp2697
sI3779
(lp2698
sI6294
(lp2699
sI14489
(lp2700
I3556
asI22686
(lp2701
sI20165
(lp2702
sI14497
(lp2703
I3367
asI14498
(lp2704
I3367
aI19772
asI14500
(lp2705
I3367
asI14501
(lp2706
I3367
asI14502
(lp2707
I3367
asI14503
(lp2708
I3367
asI6312
(lp2709
I4080
asI14507
(lp2710
I3367
asI22700
(lp2711
sI14513
(lp2712
sI14519
(lp2713
sI22715
(lp2714
sI14527
(lp2715
sI22720
(lp2716
sI3787
(lp2717
sI14539
(lp2718
sI14541
(lp2719
sI11981
(lp2720
sI24762
(lp2721
I14619
asI9759
(lp2722
sI20175
(lp2723
I12852
asI14558
(lp2724
sI6375
(lp2725
I9819
asI22760
(lp2726
I22759
asI18812
(lp2727
I219
aI20306
asI6381
(lp2728
sI14575
(lp2729
I4080
asI22035
(lp2730
sI14580
(lp2731
I7834
aI12811
asI6392
(lp2732
sI6393
(lp2733
sI22778
(lp2734
I3276
asI22784
(lp2735
sI22790
(lp2736
I1582
asI22796
(lp2737
I13457
asI14606
(lp2738
sI22806
(lp2739
sI22807
(lp2740
I24185
asI22808
(lp2741
sI22809
(lp2742
sI22810
(lp2743
sI14619
(lp2744
I16581
aI24762
asI22812
(lp2745
sI19036
(lp2746
sI14625
(lp2747
sI14627
(lp2748
sI14628
(lp2749
sI22821
(lp2750
sI22823
(lp2751
sI22829
(lp2752
sI14641
(lp2753
sI22834
(lp2754
sI22837
(lp2755
I988
asI22842
(lp2756
sI14651
(lp2757
I3753
asI22845
(lp2758
sI22848
(lp2759
sI14661
(lp2760
sI18828
(lp2761
I1610
asI22860
(lp2762
I7113
asI22866
(lp2763
I22867
asI22867
(lp2764
I22866
asI14680
(lp2765
I1694
asI6503
(lp2766
sI22888
(lp2767
sI5180
(lp2768
sI22890
(lp2769
sI18834
(lp2770
I7700
asI6511
(lp2771
sI22896
(lp2772
I14309
asI22897
(lp2773
sI22898
(lp2774
sI22902
(lp2775
sI23949
(lp2776
sI14714
(lp2777
sI22907
(lp2778
sI14716
(lp2779
I4329
asI14719
(lp2780
sI25586
(lp2781
sI22923
(lp2782
sI14747
(lp2783
I1510
aI4922
asI14748
(lp2784
sI14749
(lp2785
I3384
aI14302
asI22942
(lp2786
sI14757
(lp2787
sI14762
(lp2788
sI22955
(lp2789
sI22959
(lp2790
sI14770
(lp2791
sI25279
(lp2792
sI22970
(lp2793
sI14780
(lp2794
sI3829
(lp2795
sI6594
(lp2796
sI14794
(lp2797
sI22989
(lp2798
sI22998
(lp2799
sI6616
(lp2800
I3753
asI14810
(lp2801
sI23005
(lp2802
I20419
asI14814
(lp2803
sI6565
(lp2804
sI13392
(lp2805
sI6627
(lp2806
sI6628
(lp2807
sI14825
(lp2808
sI21587
(lp2809
I19546
asI23029
(lp2810
sI14839
(lp2811
sI14840
(lp2812
sI9300
(lp2813
sI14845
(lp2814
I12674
asI14846
(lp2815
sI14848
(lp2816
sI14855
(lp2817
sI23049
(lp2818
sI23051
(lp2819
sI23053
(lp2820
sI23054
(lp2821
sI23060
(lp2822
sI9305
(lp2823
I17920
asI14874
(lp2824
sI6687
(lp2825
I17663
asI23075
(lp2826
sI23076
(lp2827
sI6700
(lp2828
sI23087
(lp2829
sI23088
(lp2830
sI23090
(lp2831
sI2483
(lp2832
I23975
asI14905
(lp2833
sI6718
(lp2834
sI23103
(lp2835
sI14922
(lp2836
sI14926
(lp2837
sI14928
(lp2838
sI23122
(lp2839
sI23124
(lp2840
sI6742
(lp2841
I24580
asI14938
(lp2842
sI14939
(lp2843
sI14946
(lp2844
sI14949
(lp2845
sI14950
(lp2846
sI23143
(lp2847
I4878
asI9319
(lp2848
sI23152
(lp2849
sI5224
(lp2850
sI6774
(lp2851
sI23160
(lp2852
sI23161
(lp2853
sI22975
(lp2854
sI23165
(lp2855
sI5227
(lp2856
sI23172
(lp2857
sI23173
(lp2858
sI14985
(lp2859
I11149
asI20247
(lp2860
sI22978
(lp2861
sI14990
(lp2862
I3126
asI25709
(lp2863
sI14992
(lp2864
I3337
asI14999
(lp2865
sI15006
(lp2866
I2422
asI15007
(lp2867
sI15008
(lp2868
sI23201
(lp2869
I769
aI20587
asI15011
(lp2870
sI13425
(lp2871
I13424
asI23212
(lp2872
sI23219
(lp2873
sI23221
(lp2874
I24895
asI15031
(lp2875
sI23224
(lp2876
sI23225
(lp2877
sI23226
(lp2878
sI15039
(lp2879
I1694
asI15044
(lp2880
I4979
asI23248
(lp2881
sI21624
(lp2882
sI23251
(lp2883
sI6869
(lp2884
sI15065
(lp2885
sI6875
(lp2886
sI15070
(lp2887
sI23264
(lp2888
sI23265
(lp2889
sI23266
(lp2890
sI15085
(lp2891
sI23280
(lp2892
sI23281
(lp2893
sI23283
(lp2894
I1510
aI4922
asI21631
(lp2895
sI15102
(lp2896
sI6914
(lp2897
sI23305
(lp2898
sI15129
(lp2899
sI23322
(lp2900
sI23323
(lp2901
sI15139
(lp2902
sI15140
(lp2903
sI23333
(lp2904
sI11121
(lp2905
sI23335
(lp2906
sI15144
(lp2907
sI15145
(lp2908
I2931
asI23338
(lp2909
sI15148
(lp2910
I15149
asI15149
(lp2911
I15148
asI23344
(lp2912
sI15155
(lp2913
I15156
asI15156
(lp2914
I15155
asI6622
(lp2915
sI23359
(lp2916
sI15168
(lp2917
sI15169
(lp2918
sI15171
(lp2919
sI15174
(lp2920
I26192
asI15176
(lp2921
sI15177
(lp2922
I4201
asI15180
(lp2923
sI15186
(lp2924
sI23381
(lp2925
I17485
asI23382
(lp2926
I17485
asI15192
(lp2927
sI15193
(lp2928
sI15195
(lp2929
sI23391
(lp2930
sI23394
(lp2931
I4870
aI4878
asI15203
(lp2932
sI23397
(lp2933
sI15207
(lp2934
sI23400
(lp2935
I264
asI23401
(lp2936
sI15211
(lp2937
I4878
asI23404
(lp2938
I4330
asI23405
(lp2939
I4330
asI23406
(lp2940
I4330
asI15217
(lp2941
sI2537
(lp2942
I2536
aI5090
asI23423
(lp2943
sI23428
(lp2944
sI15237
(lp2945
sI13463
(lp2946
sI23436
(lp2947
sI23441
(lp2948
sI23447
(lp2949
sI20292
(lp2950
sI23453
(lp2951
sI15263
(lp2952
sI15264
(lp2953
sI23457
(lp2954
sI15266
(lp2955
I3596
asI21659
(lp2956
sI23460
(lp2957
sI13469
(lp2958
sI15282
(lp2959
sI23475
(lp2960
sI21662
(lp2961
sI23479
(lp2962
sI21663
(lp2963
sI16876
(lp2964
I3774
asI14837
(lp2965
I14835
aI20973
asI9511
(lp2966
I2764
asI9784
(lp2967
sI7113
(lp2968
I22860
asI15307
(lp2969
sI15309
(lp2970
sI23505
(lp2971
sI23507
(lp2972
I7326
asI15320
(lp2973
I5378
asI12111
(lp2974
I1522
asI15325
(lp2975
I716
asI7140
(lp2976
sI20306
(lp2977
I18812
asI12786
(lp2978
I12787
asI23538
(lp2979
sI23539
(lp2980
sI15351
(lp2981
sI3924
(lp2982
sI23548
(lp2983
I2970
asI23549
(lp2984
I7392
aI25340
asI15365
(lp2985
sI15366
(lp2986
sI3927
(lp2987
sI7185
(lp2988
sI23574
(lp2989
sI7195
(lp2990
sI15389
(lp2991
sI15391
(lp2992
sI24790
(lp2993
sI23602
(lp2994
sI7221
(lp2995
sI15422
(lp2996
sI15427
(lp2997
sI17590
(lp2998
I20419
asI15430
(lp2999
sI23625
(lp3000
sI23626
(lp3001
sI21687
(lp3002
sI23630
(lp3003
sI23631
(lp3004
sI13496
(lp3005
sI15442
(lp3006
sI23639
(lp3007
sI23641
(lp3008
sI15450
(lp3009
sI15452
(lp3010
sI15455
(lp3011
sI7266
(lp3012
sI15459
(lp3013
sI23656
(lp3014
sI13500
(lp3015
sI23661
(lp3016
sI15470
(lp3017
sI7279
(lp3018
sI7281
(lp3019
sI15475
(lp3020
sI15476
(lp3021
sI22065
(lp3022
sI25791
(lp3023
sI22338
(lp3024
sI7293
(lp3025
I541
aI8604
asI13504
(lp3026
sI23684
(lp3027
sI23975
(lp3028
I2483
asI18543
(lp3029
I4201
asI15500
(lp3030
sI21699
(lp3031
sI23702
(lp3032
sI23704
(lp3033
sI15515
(lp3034
sI15516
(lp3035
sI7326
(lp3036
I8574
aI9228
aI23507
asI18971
(lp3037
sI23716
(lp3038
sI15528
(lp3039
sI21703
(lp3040
sI23726
(lp3041
sI23727
(lp3042
sI15536
(lp3043
sI15541
(lp3044
sI15543
(lp3045
I3596
asI20340
(lp3046
I3908
asI15554
(lp3047
sI7365
(lp3048
sI7367
(lp3049
sI15562
(lp3050
sI15564
(lp3051
I1057
asI23759
(lp3052
sI23769
(lp3053
I3730
asI15578
(lp3054
sI7390
(lp3055
sI7392
(lp3056
I23549
asI15585
(lp3057
I2587
asI23781
(lp3058
sI13521
(lp3059
sI15593
(lp3060
sI15599
(lp3061
sI23792
(lp3062
sI7413
(lp3063
sI23801
(lp3064
sI23805
(lp3065
sI21717
(lp3066
sI15620
(lp3067
sI7429
(lp3068
I1582
asI23816
(lp3069
I8072
asI15625
(lp3070
I15626
asI15626
(lp3071
I15625
asI20354
(lp3072
sI23822
(lp3073
sI15636
(lp3074
sI15637
(lp3075
I11199
aI11200
asI15638
(lp3076
sI15639
(lp3077
sI15642
(lp3078
sI7451
(lp3079
sI15644
(lp3080
sI15645
(lp3081
sI23843
(lp3082
sI23844
(lp3083
sI7461
(lp3084
sI13143
(lp3085
sI13532
(lp3086
sI21725
(lp3087
sI15665
(lp3088
sI23859
(lp3089
sI15668
(lp3090
sI23861
(lp3091
sI23862
(lp3092
I17078
asI15671
(lp3093
sI7482
(lp3094
I5355
asI9440
(lp3095
sI15683
(lp3096
I15684
asI15684
(lp3097
I15683
asI15689
(lp3098
I1582
asI7507
(lp3099
I14424
asI23899
(lp3100
sI15709
(lp3101
sI15711
(lp3102
I23915
asI24464
(lp3103
sI15717
(lp3104
sI15723
(lp3105
sI23919
(lp3106
sI15728
(lp3107
sI23102
(lp3108
sI23926
(lp3109
sI15736
(lp3110
sI15743
(lp3111
sI23938
(lp3112
sI7558
(lp3113
sI15751
(lp3114
sI5356
(lp3115
sI23947
(lp3116
sI15757
(lp3117
sI21709
(lp3118
sI15762
(lp3119
sI9454
(lp3120
sI15767
(lp3121
I8072
asI23960
(lp3122
sI23962
(lp3123
sI23969
(lp3124
sI15780
(lp3125
sI15782
(lp3126
sI1265
(lp3127
sI15786
(lp3128
sI15796
(lp3129
sI13556
(lp3130
sI23995
(lp3131
sI15805
(lp3132
I1610
asI23999
(lp3133
sI15809
(lp3134
sI15811
(lp3135
sI15812
(lp3136
sI24007
(lp3137
sI24008
(lp3138
sI24010
(lp3139
sI13560
(lp3140
sI15827
(lp3141
I4539
asI15828
(lp3142
I4539
asI7637
(lp3143
sI15836
(lp3144
sI5370
(lp3145
I5371
asI15838
(lp3146
sI15839
(lp3147
I4080
asI5371
(lp3148
I5370
aI11108
aI14405
asI15844
(lp3149
sI20390
(lp3150
sI26442
(lp3151
I5355
asI6738
(lp3152
sI24047
(lp3153
sI24051
(lp3154
sI15860
(lp3155
sI5374
(lp3156
I2635
aI18969
asI7674
(lp3157
sI15867
(lp3158
sI15868
(lp3159
sI19029
(lp3160
sI15874
(lp3161
sI15876
(lp3162
sI15880
(lp3163
sI15881
(lp3164
sI26443
(lp3165
sI25352
(lp3166
I18972
asI24079
(lp3167
sI7697
(lp3168
I21960
asI7700
(lp3169
I18834
asI24086
(lp3170
sI7704
(lp3171
sI23130
(lp3172
sI24097
(lp3173
sI24101
(lp3174
I11125
asI7721
(lp3175
sI24107
(lp3176
sI15916
(lp3177
sI24109
(lp3178
sI15919
(lp3179
sI15921
(lp3180
sI24114
(lp3181
sI24116
(lp3182
sI15927
(lp3183
I1582
aI2927
asI19039
(lp3184
sI7740
(lp3185
I777
asI25866
(lp3186
I3142
asI15940
(lp3187
sI20171
(lp3188
I21696
asI15534
(lp3189
sI15952
(lp3190
sI24145
(lp3191
sI24147
(lp3192
sI9533
(lp3193
sI15968
(lp3194
sI15980
(lp3195
sI15984
(lp3196
sI15985
(lp3197
I2631
asI9491
(lp3198
sI24181
(lp3199
sI24183
(lp3200
I1248
asI24185
(lp3201
I22807
aI26010
asI24189
(lp3202
I9350
asI16000
(lp3203
sI7814
(lp3204
sI16008
(lp3205
sI16016
(lp3206
sI16017
(lp3207
sI16018
(lp3208
sI16020
(lp3209
I3753
aI16021
asI16021
(lp3210
I1657
aI16020
asI16024
(lp3211
sI16025
(lp3212
sI16026
(lp3213
sI16029
(lp3214
sI13900
(lp3215
I3459
aI3461
asI1307
(lp3216
sI16040
(lp3217
sI1309
(lp3218
sI25903
(lp3219
sI16051
(lp3220
sI16061
(lp3221
sI16068
(lp3222
sI24261
(lp3223
sI16075
(lp3224
sI16077
(lp3225
I4443
asI16081
(lp3226
I16082
asI16082
(lp3227
I16081
asI24275
(lp3228
sI16093
(lp3229
sI16097
(lp3230
sI14175
(lp3231
sI16100
(lp3232
sI24293
(lp3233
I2136
asI7915
(lp3234
I777
aI3367
asI16108
(lp3235
sI24304
(lp3236
sI22359
(lp3237
I22357
asI7923
(lp3238
sI7926
(lp3239
I4755
asI16120
(lp3240
sI16126
(lp3241
I1298
asI16128
(lp3242
I1321
asI7937
(lp3243
I777
asI16132
(lp3244
I1298
asI7944
(lp3245
sI24329
(lp3246
sI7950
(lp3247
sI4056
(lp3248
sI24339
(lp3249
sI5422
(lp3250
I2635
aI14125
asI10884
(lp3251
I5355
asI9519
(lp3252
sI16156
(lp3253
sI16157
(lp3254
sI16168
(lp3255
sI20445
(lp3256
sI9523
(lp3257
sI16181
(lp3258
sI16183
(lp3259
I4080
asI24383
(lp3260
sI8001
(lp3261
I777
asI24386
(lp3262
I5355
asI21815
(lp3263
I1327
asI12542
(lp3264
sI20180
(lp3265
I5836
asI8029
(lp3266
sI24416
(lp3267
sI16227
(lp3268
sI17725
(lp3269
sI24435
(lp3270
sI24436
(lp3271
sI16248
(lp3272
sI16249
(lp3273
sI24445
(lp3274
sI16254
(lp3275
I16253
asI16258
(lp3276
sI9537
(lp3277
sI8072
(lp3278
I4055
aI15767
aI19602
aI22695
aI23816
asI16272
(lp3279
sI16274
(lp3280
sI16275
(lp3281
sI16278
(lp3282
sI24471
(lp3283
sI16286
(lp3284
sI16292
(lp3285
sI24496
(lp3286
sI24500
(lp3287
I20418
asI24502
(lp3288
sI24503
(lp3289
sI16313
(lp3290
sI16317
(lp3291
sI23200
(lp3292
sI24515
(lp3293
sI24517
(lp3294
sI16329
(lp3295
sI24539
(lp3296
I17078
asI19109
(lp3297
sI24545
(lp3298
sI24551
(lp3299
I2957
asI24564
(lp3300
sI16377
(lp3301
I1057
as.