(dp0
I21249
(lp1
sI16597
(lp2
I2181
asI21379
(lp3
sI16900
(lp4
sI2181
(lp5
I16597
aI22196
asI15327
(lp6
sI14471
(lp7
sI704
(lp8
I370
aI11039
aI15768
aI22296
aI25782
asI22296
(lp9
I704
asI11280
(lp10
sI20113
(lp11
sI9235
(lp12
sI9876
(lp13
sI21269
(lp14
sI13078
(lp15
sI15768
(lp16
I704
asI18564
(lp17
sI22420
(lp18
sI10011
(lp19
sI20892
(lp20
sI11039
(lp21
I704
asI9183
(lp22
sI4643
(lp23
I18819
asI24577
(lp24
I8366
asI18966
(lp25
sI20974
(lp26
sI682
(lp27
sI20011
(lp28
sI3620
(lp29
I3498
asI8366
(lp30
I24577
asI21295
(lp31
sI20959
(lp32
sI5764
(lp33
I18819
asI1715
(lp34
sI22196
(lp35
I2181
asI13878
(lp36
sI21304
(lp37
sI7519
(lp38
sI4799
(lp39
sI21312
(lp40
sI9921
(lp41
sI17602
(lp42
sI10307
(lp43
sI9899
(lp44
sI21318
(lp45
sI15542
(lp46
sI5332
(lp47
sI21333
(lp48
sI17145
(lp49
sI7641
(lp50
sI13403
(lp51
sI3498
(lp52
I3620
asI18819
(lp53
I4643
aI5764
asI5215
(lp54
sI21472
(lp55
sI21217
(lp56
sI5222
(lp57
sI9575
(lp58
sI18428
(lp59
sI1130
(lp60
sI21357
(lp61
sI2798
(lp62
sI15997
(lp63
I15996
asI19057
(lp64
sI370
(lp65
I704
asI10099
(lp66
sI13828
(lp67
sI15222
(lp68
sI6521
(lp69
sI15996
(lp70
I15997
asI11005
(lp71
sI25782
(lp72
I704
as.