(dp0
I18432
(lp1
sI22530
(lp2
I456
aI1338
asI2053
(lp3
I572
asI22543
(lp4
I442
asI2064
(lp5
I452
aI572
asI17
(lp6
sI24596
(lp7
I4999
asI18457
(lp8
I345
asI4127
(lp9
I345
asI8233
(lp10
sI2093
(lp11
I1305
asI2095
(lp12
I572
aI1305
asI2096
(lp13
I1305
aI9542
asI2102
(lp14
I1305
asI2103
(lp15
I1305
asI9226
(lp16
sI2110
(lp17
I572
asI2402
(lp18
I345
aI452
asI8272
(lp19
sI14418
(lp20
I2350
asI14693
(lp21
I1282
asI2150
(lp22
sI22631
(lp23
I12500
asI2155
(lp24
sI14444
(lp25
sI2160
(lp26
I1707
aI4737
aI4738
aI4741
asI2165
(lp27
sI16502
(lp28
sI16506
(lp29
I5349
asI2174
(lp30
I452
aI572
aI1329
asI10369
(lp31
sI20843
(lp32
sI24711
(lp33
I1436
asI2412
(lp34
I452
asI14477
(lp35
sI24720
(lp36
I25416
asI8338
(lp37
sI18554
(lp38
I3582
asI2198
(lp39
sI20634
(lp40
sI4253
(lp41
sI4255
(lp42
sI3440
(lp43
sI10404
(lp44
I23302
aI24483
asI20646
(lp45
sI4465
(lp46
I1707
asI24744
(lp47
I572
asI14515
(lp48
I20189
asI4278
(lp49
sI2232
(lp50
sI14521
(lp51
I1027
asI4283
(lp52
sI18760
(lp53
sI20683
(lp54
sI18643
(lp55
I572
aI18644
asI12500
(lp56
I22631
asI24792
(lp57
I572
asI10462
(lp58
sI14560
(lp59
sI20859
(lp60
sI231
(lp61
I233
asI233
(lp62
I231
aI344
aI452
aI456
aI669
aI850
aI949
aI1168
aI1302
aI1305
aI1306
aI1313
aI1322
aI1325
aI1329
aI1330
aI1332
aI1334
aI1335
aI1338
aI1340
aI1348
aI1355
aI1358
aI1361
aI1362
aI1366
aI1367
aI1374
aI1375
aI1382
aI1383
aI1384
aI1386
aI1388
aI1392
aI1393
aI1395
aI1397
aI1403
aI1404
aI1405
aI1406
aI1409
aI1411
aI1412
aI1414
aI1415
aI1416
aI1420
aI1421
aI1424
aI1426
aI1431
aI1434
aI1435
aI1436
aI1441
aI1442
aI1443
aI1446
aI1449
aI1451
aI1454
aI1455
aI1461
aI1465
aI1467
aI1470
aI1478
asI16619
(lp63
sI3453
(lp64
sI14577
(lp65
sI2294
(lp66
sI8447
(lp67
I4455
aI15142
asI2312
(lp68
I452
asI24844
(lp69
sI14605
(lp70
I12933
asI2318
(lp71
I452
aI572
asI4367
(lp72
sI21891
(lp73
I572
aI12028
aI12784
asI2325
(lp74
I452
asI2327
(lp75
I345
aI452
asI2328
(lp76
I452
asI2329
(lp77
I452
asI2332
(lp78
I452
aI572
asI2333
(lp79
I452
asI18722
(lp80
sI18968
(lp81
sI2346
(lp82
I345
aI452
asI2347
(lp83
I345
aI452
asI2348
(lp84
I452
asI2350
(lp85
I452
aI572
aI949
aI1436
aI1465
aI5906
aI6518
aI11712
aI14418
aI19804
aI20826
aI23415
aI24928
asI20189
(lp86
I14515
asI12593
(lp87
I12594
asI2354
(lp88
I452
asI22841
(lp89
I572
asI2363
(lp90
I345
aI452
asI320
(lp91
I321
aI322
asI321
(lp92
I320
aI9243
asI322
(lp93
I320
asI14660
(lp94
sI24902
(lp95
I572
asI22855
(lp96
sI2376
(lp97
I452
asI2377
(lp98
I452
asI24908
(lp99
I572
asI24910
(lp100
I572
asI24911
(lp101
I572
asI24913
(lp102
I572
asI24914
(lp103
I572
asI24917
(lp104
I572
asI24918
(lp105
I572
asI343
(lp106
I344
aI345
asI344
(lp107
I233
aI343
aI572
aI1436
asI345
(lp108
I343
aI452
aI538
aI572
aI675
aI2327
aI2346
aI2347
aI2363
aI2402
aI2408
aI2409
aI3615
aI4127
aI5154
aI5309
aI18457
aI20895
aI21679
aI21681
aI21683
aI21684
asI20826
(lp109
I2350
asI2395
(lp110
I452
aI572
asI24924
(lp111
I572
asI24928
(lp112
I572
aI2350
asI14690
(lp113
sI2405
(lp114
I452
asI22887
(lp115
sI2408
(lp116
I345
aI452
asI2409
(lp117
I345
aI452
asI4458
(lp118
sI2411
(lp119
I452
aI6531
asI4460
(lp120
sI4462
(lp121
sI2417
(lp122
I452
aI572
asI6514
(lp123
I11711
asI4467
(lp124
sI2420
(lp125
I452
aI456
aI572
asI18805
(lp126
I572
asI6518
(lp127
I2350
asI2427
(lp128
I452
asI20862
(lp129
sI6531
(lp130
I2411
asI8581
(lp131
sI18826
(lp132
sI14731
(lp133
I10076
asI398
(lp134
sI14607
(lp135
sI2212
(lp136
I572
asI22934
(lp137
I1626
asI14745
(lp138
sI413
(lp139
sI20895
(lp140
I345
asI8609
(lp141
I572
asI16810
(lp142
I930
asI8621
(lp143
sI18869
(lp144
I456
asI10681
(lp145
sI442
(lp146
I22543
asI443
(lp147
I21781
aI21964
aI26206
aI26207
asI18880
(lp148
sI449
(lp149
I492
asI451
(lp150
sI452
(lp151
I233
aI345
aI456
aI572
aI637
aI669
aI779
aI961
aI1282
aI1330
aI1348
aI1361
aI1374
aI1414
aI1415
aI2064
aI2174
aI2312
aI2318
aI2325
aI2327
aI2328
aI2329
aI2332
aI2333
aI2346
aI2347
aI2348
aI2350
aI2354
aI2363
aI2368
aI2376
aI2377
aI2395
aI2402
aI2405
aI2408
aI2409
aI2411
aI2412
aI2417
aI2420
aI2427
asI456
(lp152
I233
aI452
aI2420
aI5950
aI11863
aI13056
aI18869
aI22530
aI23534
asI460
(lp153
sI25038
(lp154
sI2125
(lp155
sI465
(lp156
sI8658
(lp157
sI10708
(lp158
I572
asI471
(lp159
I15926
asI16858
(lp160
I9875
asI16861
(lp161
sI3494
(lp162
I3495
asI488
(lp163
sI490
(lp164
sI7591
(lp165
sI492
(lp166
I449
asI2541
(lp167
I572
asI18927
(lp168
sI2544
(lp169
sI16884
(lp170
sI14841
(lp171
sI10747
(lp172
I572
asI18940
(lp173
sI16893
(lp174
sI15104
(lp175
sI2563
(lp176
I2565
asI18949
(lp177
sI4865
(lp178
I572
asI14858
(lp179
sI15106
(lp180
sI10771
(lp181
sI2582
(lp182
sI2584
(lp183
sI538
(lp184
I345
asI3503
(lp185
sI8735
(lp186
sI23080
(lp187
I1431
asI6697
(lp188
sI18990
(lp189
sI14897
(lp190
sI2611
(lp191
sI21047
(lp192
sI10808
(lp193
sI18909
(lp194
sI572
(lp195
I344
aI345
aI452
aI637
aI669
aI675
aI779
aI939
aI949
aI1282
aI1305
aI1322
aI1330
aI1361
aI1409
aI1412
aI1414
aI1415
aI1434
aI1436
aI1461
aI1500
aI1626
aI1885
aI2053
aI2064
aI2095
aI2110
aI2174
aI2212
aI2318
aI2332
aI2350
aI2368
aI2395
aI2417
aI2420
aI2541
aI2893
aI2990
aI3056
aI3317
aI4071
aI4745
aI4833
aI4865
aI4949
aI5130
aI5154
aI5326
aI7102
aI8609
aI9542
aI10076
aI10708
aI10747
aI11747
aI12031
aI12933
aI13365
aI13450
aI13635
aI14635
aI17072
aI18643
aI18731
aI18805
aI19066
aI20702
aI21402
aI21891
aI22841
aI23585
aI24388
aI24429
aI24744
aI24792
aI24902
aI24904
aI24908
aI24910
aI24911
aI24913
aI24914
aI24917
aI24918
aI24920
aI24924
aI24928
asI14914
(lp196
sI14915
(lp197
I939
asI16971
(lp198
sI25164
(lp199
sI4685
(lp200
I19131
asI19022
(lp201
I15343
asI8783
(lp202
I8784
asI8784
(lp203
I8783
asI2643
(lp204
sI4696
(lp205
I15245
asI2649
(lp206
sI8797
(lp207
sI14942
(lp208
sI4703
(lp209
sI16993
(lp210
sI4453
(lp211
sI8812
(lp212
sI14957
(lp213
I2893
asI21104
(lp214
I5034
asI21105
(lp215
I5034
asI11710
(lp216
sI21111
(lp217
I5034
aI17377
asI2681
(lp218
sI19066
(lp219
I572
asI4731
(lp220
I4729
asI637
(lp221
I452
aI572
asI4737
(lp222
I2160
asI4738
(lp223
I2160
asI4455
(lp224
I8447
asI12933
(lp225
I572
aI14605
aI17843
asI647
(lp226
I3585
asI4745
(lp227
I572
asI23185
(lp228
sI669
(lp229
I233
aI452
aI572
aI21679
asI10911
(lp230
sI675
(lp231
I345
aI572
asI2726
(lp232
I1282
asI19111
(lp233
sI19114
(lp234
sI4779
(lp235
sI15021
(lp236
sI17072
(lp237
I572
asI17074
(lp238
sI25715
(lp239
sI17076
(lp240
sI19131
(lp241
I4685
asI19132
(lp242
sI22645
(lp243
sI4813
(lp244
sI17112
(lp245
sI19165
(lp246
sI22309
(lp247
I3848
asI4833
(lp248
I572
asI2786
(lp249
sI19171
(lp250
sI6888
(lp251
sI13034
(lp252
sI2795
(lp253
sI4845
(lp254
sI4849
(lp255
sI15098
(lp256
sI19198
(lp257
sI23295
(lp258
I1358
asI13056
(lp259
I456
asI15105
(lp260
sI11010
(lp261
sI23302
(lp262
I10404
asI779
(lp263
I452
aI572
aI21069
aI21072
asI781
(lp264
sI8996
(lp265
I2893
asI15142
(lp266
I8447
asI15143
(lp267
sI808
(lp268
sI815
(lp269
I15245
asI19256
(lp270
sI2881
(lp271
sI15172
(lp272
I9243
asI2887
(lp273
sI25416
(lp274
I24720
asI4937
(lp275
sI4940
(lp276
sI2893
(lp277
I572
aI8996
aI14957
asI4920
(lp278
sI850
(lp279
I233
aI851
asI851
(lp280
I850
asI4949
(lp281
I572
asI24920
(lp282
I572
asI21648
(lp283
sI23415
(lp284
I2350
asI9080
(lp285
sI15225
(lp286
I1707
asI14828
(lp287
sI15235
(lp288
sI15236
(lp289
I3835
asI901
(lp290
sI4998
(lp291
I4999
asI4999
(lp292
I4998
aI24596
asI15241
(lp293
I1282
asI907
(lp294
I13764
asI15245
(lp295
I815
aI4696
asI916
(lp296
I917
asI917
(lp297
I916
asI22876
(lp298
sI21402
(lp299
I572
asI19360
(lp300
sI12784
(lp301
I21891
asI930
(lp302
I929
aI3796
aI16810
asI11173
(lp303
sI9129
(lp304
sI5034
(lp305
I21104
aI21105
aI21111
asI939
(lp306
I572
aI14915
aI17985
aI25826
asI2990
(lp307
I572
asI945
(lp308
I946
asI946
(lp309
I945
asI949
(lp310
I233
aI572
aI2350
asI17335
(lp311
sI7102
(lp312
I572
asI961
(lp313
I452
asI15298
(lp314
sI25543
(lp315
I1348
asI5068
(lp316
sI7121
(lp317
sI13269
(lp318
sI13270
(lp319
sI3033
(lp320
sI3839
(lp321
sI17377
(lp322
I21111
asI3046
(lp323
sI2556
(lp324
sI23534
(lp325
I456
asI15343
(lp326
I19022
asI3056
(lp327
I572
aI12108
aI18254
asI15345
(lp328
sI5106
(lp329
sI9204
(lp330
sI3068
(lp331
sI25600
(lp332
sI13313
(lp333
sI1027
(lp334
I14521
asI25606
(lp335
sI5130
(lp336
I572
asI1043
(lp337
sI1045
(lp338
sI3094
(lp339
sI1050
(lp340
sI9243
(lp341
I321
aI15172
asI2565
(lp342
I2563
asI5152
(lp343
sI23585
(lp344
I572
asI5154
(lp345
I345
aI572
asI11305
(lp346
sI25643
(lp347
sI13365
(lp348
I572
asI3135
(lp349
sI19520
(lp350
sI13402
(lp351
I3217
asI15454
(lp352
sI23654
(lp353
sI25707
(lp354
sI16915
(lp355
sI13438
(lp356
sI13444
(lp357
sI13450
(lp358
I572
asI25743
(lp359
sI1168
(lp360
I233
asI3217
(lp361
I13402
asI11412
(lp362
I1282
asI17558
(lp363
sI25753
(lp364
I3495
asI15520
(lp365
sI11426
(lp366
sI11431
(lp367
sI1193
(lp368
sI1195
(lp369
I1196
asI1196
(lp370
I1195
asI21679
(lp371
I345
aI669
asI21681
(lp372
I345
asI21683
(lp373
I345
asI21684
(lp374
I345
asI23735
(lp375
sI16748
(lp376
sI5309
(lp377
I345
asI1216
(lp378
sI17601
(lp379
sI5326
(lp380
I572
asI25806
(lp381
sI23767
(lp382
I1282
asI25821
(lp383
I3588
asI25826
(lp384
I939
asI5349
(lp385
I16506
asI23787
(lp386
sI3317
(lp387
I572
asI18644
(lp388
I18643
asI13567
(lp389
sI929
(lp390
I930
asI1282
(lp391
I452
aI572
aI2726
aI9761
aI11412
aI14693
aI15241
aI23767
asI1579
(lp392
sI10113
(lp393
I10114
asI13580
(lp394
sI9487
(lp395
sI3347
(lp396
sI21781
(lp397
I443
asI1302
(lp398
I233
asI1305
(lp399
I233
aI572
aI2093
aI2095
aI2096
aI2102
aI2103
asI1306
(lp400
I233
aI1436
asI9504
(lp401
I9507
asI1313
(lp402
I233
asI9507
(lp403
I9504
asI19751
(lp404
I8764
asI1322
(lp405
I233
aI572
aI1424
asI1325
(lp406
I233
asI1329
(lp407
I233
aI2174
asI1330
(lp408
I233
aI452
aI572
asI1332
(lp409
I233
asI20702
(lp410
I572
asI1334
(lp411
I233
asI1335
(lp412
I233
aI21067
aI26155
asI21816
(lp413
sI1338
(lp414
I233
aI22530
asI1340
(lp415
I233
asI17726
(lp416
sI17730
(lp417
sI13635
(lp418
I572
asI1348
(lp419
I233
aI452
aI1412
aI20144
aI25543
asI15686
(lp420
sI1355
(lp421
I233
asI1358
(lp422
I233
aI20239
aI23295
asI1361
(lp423
I233
aI452
aI572
aI9875
aI11889
aI20075
asI1362
(lp424
I233
asI1366
(lp425
I233
asI1367
(lp426
I233
asI18731
(lp427
I572
asI19804
(lp428
I2350
asI1374
(lp429
I233
aI452
asI1375
(lp430
I233
asI1382
(lp431
I233
asI1383
(lp432
I233
asI1384
(lp433
I233
asI8764
(lp434
I19751
asI1386
(lp435
I233
asI1388
(lp436
I233
asI23917
(lp437
sI1392
(lp438
I233
asI1393
(lp439
I233
asI1395
(lp440
I233
asI1397
(lp441
I233
asI11156
(lp442
sI1403
(lp443
I233
asI1404
(lp444
I233
asI1405
(lp445
I233
asI1406
(lp446
I233
asI1409
(lp447
I233
aI572
asI1411
(lp448
I233
asI1412
(lp449
I233
aI572
aI1348
asI1414
(lp450
I233
aI452
aI572
asI1415
(lp451
I233
aI452
aI572
asI1416
(lp452
I233
asI15754
(lp453
I15755
asI15755
(lp454
I15754
asI1420
(lp455
I233
asI1421
(lp456
I233
asI1424
(lp457
I233
aI1322
asI1426
(lp458
I233
asI1431
(lp459
I233
aI23080
asI1434
(lp460
I233
aI572
asI1435
(lp461
I233
asI1436
(lp462
I233
aI344
aI572
aI1306
aI2350
aI24711
asI1441
(lp463
I233
asI1442
(lp464
I233
asI1443
(lp465
I233
asI1446
(lp466
I233
asI3495
(lp467
I3494
aI25753
asI1449
(lp468
I233
asI1451
(lp469
I233
asI1454
(lp470
I233
asI1455
(lp471
I233
asI3504
(lp472
sI9649
(lp473
sI17843
(lp474
I10114
aI12933
asI1461
(lp475
I233
aI572
aI18107
asI17993
(lp476
sI1465
(lp477
I233
aI2350
asI1467
(lp478
I233
asI1470
(lp479
I233
asI11711
(lp480
I6514
asI11712
(lp481
I2350
asI21067
(lp482
I1335
asI13764
(lp483
I907
asI20726
(lp484
I3582
asI1478
(lp485
I233
asI11719
(lp486
sI21964
(lp487
I443
asI21069
(lp488
I779
asI11732
(lp489
sI3543
(lp490
sI17882
(lp491
sI11643
(lp492
sI1500
(lp493
I572
asI15837
(lp494
sI1502
(lp495
sI21072
(lp496
I779
asI11747
(lp497
I572
asI17898
(lp498
sI7666
(lp499
sI3578
(lp500
I3580
aI3582
asI3580
(lp501
I3578
asI3582
(lp502
I3578
aI10145
aI18554
aI20726
asI3585
(lp503
I647
aI3588
asI3588
(lp504
I3585
aI25821
asI3592
(lp505
sI3594
(lp506
sI15888
(lp507
sI15899
(lp508
sI3615
(lp509
I345
asI9761
(lp510
I1282
asI11509
(lp511
sI15908
(lp512
sI1969
(lp513
sI15914
(lp514
sI26155
(lp515
I1335
asI15926
(lp516
I471
aI1707
asI24122
(lp517
sI17985
(lp518
I939
asI7753
(lp519
sI17995
(lp520
sI1619
(lp521
sI1621
(lp522
sI1622
(lp523
sI11863
(lp524
I456
asI1626
(lp525
I572
aI22934
asI1627
(lp526
sI13916
(lp527
sI26206
(lp528
I443
asI26207
(lp529
I443
asI26216
(lp530
sI20075
(lp531
I1361
asI11889
(lp532
I1361
asI18037
(lp533
sI18040
(lp534
sI15998
(lp535
sI26219
(lp536
sI13961
(lp537
sI9872
(lp538
sI11921
(lp539
sI9875
(lp540
I1361
aI16858
asI16665
(lp541
sI12912
(lp542
sI1700
(lp543
sI1706
(lp544
I1707
asI1707
(lp545
I1706
aI2160
aI4465
aI15225
aI15926
asI11948
(lp546
sI20144
(lp547
I1348
asI7862
(lp548
sI22202
(lp549
sI18107
(lp550
I1461
asI20770
(lp551
sI1744
(lp552
sI3796
(lp553
I930
asI4729
(lp554
I4731
asI18136
(lp555
sI26332
(lp556
sI1757
(lp557
sI5863
(lp558
sI14057
(lp559
sI7918
(lp560
sI14973
(lp561
sI3835
(lp562
I15236
asI12028
(lp563
I21891
asI14077
(lp564
sI12031
(lp565
I572
asI14635
(lp566
I572
asI3848
(lp567
I22309
asI20239
(lp568
I1358
asI5906
(lp569
I2350
asI4741
(lp570
I2160
asI12069
(lp571
sI12594
(lp572
I12593
asI5950
(lp573
I456
asI24388
(lp574
I572
asI22342
(lp575
sI12108
(lp576
I3056
asI18254
(lp577
I3056
asI5970
(lp578
sI5973
(lp579
sI8024
(lp580
sI10076
(lp581
I572
aI14731
asI1885
(lp582
I572
asI4632
(lp583
sI14184
(lp584
sI24429
(lp585
I572
asI16246
(lp586
sI24441
(lp587
sI16256
(lp588
sI2368
(lp589
I452
aI572
asI10114
(lp590
I10113
aI17843
asI10128
(lp591
sI16282
(lp592
I16283
asI16283
(lp593
I16282
asI24476
(lp594
sI10145
(lp595
I3582
asI24483
(lp596
I10404
asI9542
(lp597
I572
aI2096
asI12200
(lp598
sI1961
(lp599
sI24904
(lp600
I572
asI14259
(lp601
sI22452
(lp602
sI1977
(lp603
sI8123
(lp604
sI20420
(lp605
sI18395
(lp606
sI24540
(lp607
sI8157
(lp608
sI4071
(lp609
I572
asI11260
(lp610
sI4074
(lp611
s.