(dp0
I2
(lp1
I292
aI642
aI762
aI964
aI1188
aI8740
aI10172
aI14588
aI14633
aI15923
aI16231
aI16232
aI16233
aI19085
aI20574
aI23445
aI23455
aI23459
aI23463
aI23464
aI23474
asI3836
(lp2
I1588
asI26136
(lp3
sI13319
(lp4
I292
asI8
(lp5
I9
aI14
aI16
aI21
aI22
aI24
aI26
aI29
aI32
aI33
aI34
aI35
aI36
aI38
asI9
(lp6
I8
asI16316
(lp7
I631
asI23052
(lp8
sI26125
(lp9
I642
asI14
(lp10
I8
asI4623
(lp11
sI16
(lp12
I8
asI3089
(lp13
I18384
asI24083
(lp14
I16234
aI24949
asI4628
(lp15
sI1557
(lp16
sI22
(lp17
I8
asI2137
(lp18
I631
asI24
(lp19
I8
asI11801
(lp20
I10172
asI26
(lp21
I8
asI431
(lp22
I21
aI19266
asI29
(lp23
I8
asI11806
(lp24
I964
aI10172
asI543
(lp25
I746
aI964
aI13794
aI16001
aI16234
aI16242
aI20700
aI20842
aI20953
aI20957
aI20968
aI20969
asI32
(lp26
I8
asI33
(lp27
I8
asI34
(lp28
I8
asI35
(lp29
I8
asI36
(lp30
I8
asI15397
(lp31
sI38
(lp32
I8
asI14375
(lp33
sI3624
(lp34
sI14889
(lp35
sI14437
(lp36
I631
asI14894
(lp37
I613
asI3119
(lp38
I14546
aI18400
aI18402
asI1072
(lp39
I642
asI25649
(lp40
I10356
asI15923
(lp41
I2
asI1588
(lp42
I3836
asI24158
(lp43
I292
asI9273
(lp44
sI25146
(lp45
sI11103
(lp46
I4713
asI14396
(lp47
sI16309
(lp48
I16212
asI16224
(lp49
sI12866
(lp50
sI13232
(lp51
sI24161
(lp52
I292
asI20585
(lp53
sI14921
(lp54
I964
asI923
(lp55
I18529
asI8802
(lp56
I3179
asI548
(lp57
sI23120
(lp58
sI25681
(lp59
I13218
asI12882
(lp60
sI20579
(lp61
sI18529
(lp62
I923
asI12889
(lp63
sI10767
(lp64
sI20574
(lp65
I2
asI24165
(lp66
I292
aI24454
asI1633
(lp67
I1636
aI1638
aI1640
aI1643
aI1646
aI1647
aI1648
aI1649
aI1650
aI1656
aI1659
aI1661
aI1664
aI1665
aI1667
asI24162
(lp68
I292
asI5731
(lp69
sI1636
(lp70
I1633
aI20905
aI25230
asI613
(lp71
I247
aI766
aI4947
aI11233
aI14894
aI22964
aI24485
asI1638
(lp72
I1633
asI20583
(lp73
sI1640
(lp74
I1633
asI4713
(lp75
I11094
aI11096
aI11103
asI16231
(lp76
I2
asI17004
(lp77
sI1646
(lp78
I1633
asI1647
(lp79
I1633
asI1648
(lp80
I1633
asI1896
(lp81
sI1650
(lp82
I1633
asI3707
(lp83
sI10356
(lp84
I16669
aI25649
asI6261
(lp85
I292
asI630
(lp86
I631
asI631
(lp87
I630
aI2137
aI10480
aI14437
aI16316
aI25555
asI1656
(lp88
I1633
asI3874
(lp89
sI22147
(lp90
I964
asI11096
(lp91
I4713
asI18557
(lp92
sI9854
(lp93
I3870
aI21797
asI21
(lp94
I8
aI431
asI1664
(lp95
I1633
asI641
(lp96
I642
asI642
(lp97
I2
aI545
aI547
aI641
aI1072
aI13005
aI13187
aI13218
aI13235
aI17821
aI18327
aI22971
aI24442
aI26125
asI3179
(lp98
I8802
asI22149
(lp99
I292
aI964
asI26055
(lp100
I3362
asI3703
(lp101
I16234
asI15894
(lp102
sI10379
(lp103
I14977
asI13159
(lp104
sI19085
(lp105
I2
asI25230
(lp106
I1636
asI24719
(lp107
sI15505
(lp108
sI20327
(lp109
sI3732
(lp110
sI15509
(lp111
I247
asI20293
(lp112
sI10903
(lp113
sI19608
(lp114
sI24730
(lp115
I3362
asI13468
(lp116
I292
aI15945
asI19103
(lp117
sI24433
(lp118
sI19047
(lp119
sI1188
(lp120
I2
asI1649
(lp121
I1633
asI17135
(lp122
sI26283
(lp123
I558
asI13224
(lp124
sI16242
(lp125
I543
asI19631
(lp126
sI19632
(lp127
sI24164
(lp128
I292
asI3870
(lp129
I9854
asI24454
(lp130
I24165
asI10937
(lp131
sI1665
(lp132
I1633
asI13054
(lp133
sI2069
(lp134
sI22971
(lp135
I642
asI8897
(lp136
sI1643
(lp137
I1633
asI3780
(lp138
sI9334
(lp139
sI545
(lp140
I642
asI9411
(lp141
sI10871
(lp142
sI13005
(lp143
I642
asI18126
(lp144
sI10104
(lp145
sI14546
(lp146
I3119
asI547
(lp147
I642
asI4309
(lp148
I292
aI4311
asI4311
(lp149
I4309
asI8740
(lp150
I2
aI964
asI16308
(lp151
I16212
asI20700
(lp152
I543
asI12922
(lp153
sI12581
(lp154
sI12934
(lp155
sI20944
(lp156
I292
asI1659
(lp157
I1633
aI19222
asI14052
(lp158
sI10982
(lp159
sI25832
(lp160
sI21738
(lp161
sI1661
(lp162
I1633
asI10480
(lp163
I631
aI15494
asI1266
(lp164
sI16426
(lp165
sI638
(lp166
I1377
aI1381
asI10998
(lp167
sI247
(lp168
I613
aI15509
asI21240
(lp169
sI762
(lp170
I2
asI639
(lp171
I7024
aI24906
asI14588
(lp172
I2
aI11807
aI20619
aI25648
asI20842
(lp173
I543
asI766
(lp174
I613
asI1279
(lp175
sI14977
(lp176
I10379
asI13065
(lp177
sI13187
(lp178
I642
asI558
(lp179
I26283
asI19222
(lp180
I1659
asI18393
(lp181
sI16001
(lp182
I543
asI12571
(lp183
sI16669
(lp184
I10356
asI19411
(lp185
sI18208
(lp186
sI25648
(lp187
I14588
asI3362
(lp188
I964
aI19399
aI24730
aI26054
aI26055
asI292
(lp189
I2
aI4309
aI4481
aI6261
aI13319
aI13468
aI20944
aI22149
aI24158
aI24161
aI24162
aI24164
aI24165
aI24171
asI21797
(lp190
I9854
asI14633
(lp191
I2
aI964
asI13051
(lp192
sI4401
(lp193
sI11160
(lp194
I4021
asI24987
(lp195
I955
asI18400
(lp196
I3119
asI19266
(lp197
I431
asI20619
(lp198
I9102
aI14588
asI5957
(lp199
sI18384
(lp200
I3089
asI13793
(lp201
I13792
asI24906
(lp202
I639
asI15721
(lp203
sI13794
(lp204
I543
aI13792
aI20957
asI8737
(lp205
sI19793
(lp206
sI4947
(lp207
I613
aI15802
asI16212
(lp208
I16308
aI16309
asI11094
(lp209
I4713
asI11608
(lp210
sI12516
(lp211
sI3930
(lp212
sI5981
(lp213
sI9252
(lp214
sI2400
(lp215
I19963
asI1377
(lp216
I638
asI18274
(lp217
sI1381
(lp218
I638
aI19963
asI15718
(lp219
sI8551
(lp220
sI16232
(lp221
I2
asI16233
(lp222
I2
asI16234
(lp223
I543
aI3703
aI24083
asI15725
(lp224
sI20334
(lp225
sI7024
(lp226
I639
asI13169
(lp227
sI2930
(lp228
sI24949
(lp229
I24083
asI13174
(lp230
sI8820
(lp231
sI19320
(lp232
sI13177
(lp233
sI24442
(lp234
I642
asI19324
(lp235
sI746
(lp236
I543
asI13182
(lp237
sI13205
(lp238
sI4481
(lp239
I292
asI13186
(lp240
sI24171
(lp241
I292
asI11807
(lp242
I10172
aI14588
asI13189
(lp243
sI19334
(lp244
sI9281
(lp245
sI13207
(lp246
sI9102
(lp247
I20619
asI3984
(lp248
sI13208
(lp249
sI1667
(lp250
I1633
asI23445
(lp251
I2
asI18327
(lp252
I642
asI920
(lp253
sI13209
(lp254
sI18330
(lp255
sI23963
(lp256
sI17820
(lp257
I17821
asI17821
(lp258
I642
aI17820
aI19913
asI15494
(lp259
I10480
asI23455
(lp260
I2
asI20385
(lp261
sI13218
(lp262
I642
aI25681
asI23459
(lp263
I2
asI24485
(lp264
I613
asI23463
(lp265
I2
asI23464
(lp266
I2
asI20905
(lp267
I1636
asI3644
(lp268
sI18351
(lp269
sI18864
(lp270
sI26184
(lp271
sI23474
(lp272
I2
asI13235
(lp273
I642
asI22964
(lp274
I613
asI4021
(lp275
I11160
asI19399
(lp276
I3362
asI15945
(lp277
I13468
asI952
(lp278
I955
aI964
asI15802
(lp279
I4947
asI955
(lp280
I952
aI24987
asI10172
(lp281
I2
aI964
aI11801
aI11806
aI11807
asI17055
(lp282
sI4085
(lp283
sI21954
(lp284
sI964
(lp285
I2
aI543
aI952
aI3362
aI8740
aI10172
aI11806
aI14633
aI14921
aI22147
aI22149
asI19637
(lp286
sI26054
(lp287
I3362
asI17863
(lp288
sI19913
(lp289
I17821
asI10186
(lp290
sI12747
(lp291
sI19920
(lp292
sI13160
(lp293
sI13168
(lp294
sI25555
(lp295
I631
asI9241
(lp296
sI18402
(lp297
I3119
asI20953
(lp298
I543
asI20957
(lp299
I543
aI13794
asI19935
(lp300
sI13792
(lp301
I13793
aI13794
asI11233
(lp302
I613
asI12956
(lp303
sI19451
(lp304
sI12776
(lp305
sI20968
(lp306
I543
asI20969
(lp307
I543
asI21191
(lp308
sI18417
(lp309
sI26211
(lp310
sI1525
(lp311
sI2554
(lp312
sI19963
(lp313
I1381
aI2400
asI19452
(lp314
sI20987
(lp315
s.