(dp0
I10240
(lp1
I2250
asI22529
(lp2
sI25259
(lp3
sI2052
(lp4
I3939
asI24582
(lp5
sI20481
(lp6
sI8876
(lp7
sI25614
(lp8
sI10253
(lp9
sI20494
(lp10
sI2063
(lp11
sI4112
(lp12
sI16401
(lp13
sI4115
(lp14
sI16408
(lp15
sI20509
(lp16
sI31
(lp17
I230
aI693
aI2381
aI2768
aI3878
aI4804
aI8778
aI19958
asI22561
(lp18
sI20486
(lp19
sI18480
(lp20
sI10291
(lp21
sI17937
(lp22
sI20533
(lp23
sI54
(lp24
sI19124
(lp25
sI10933
(lp26
sI18496
(lp27
I2196
asI65
(lp28
sI2114
(lp29
sI20547
(lp30
sI68
(lp31
I2598
asI18501
(lp32
sI18502
(lp33
sI22600
(lp34
sI2123
(lp35
sI18509
(lp36
sI80
(lp37
sI2132
(lp38
sI18517
(lp39
sI18518
(lp40
I25006
asI10327
(lp41
sI88
(lp42
sI18521
(lp43
sI6159
(lp44
sI93
(lp45
sI18526
(lp46
sI14431
(lp47
sI4192
(lp48
sI16483
(lp49
sI10341
(lp50
sI2152
(lp51
sI12988
(lp52
sI106
(lp53
I107
asI107
(lp54
I106
asI16494
(lp55
sI16495
(lp56
sI16498
(lp57
sI20599
(lp58
sI2169
(lp59
sI15722
(lp60
sI16510
(lp61
sI18562
(lp62
sI18563
(lp63
I8579
asI22662
(lp64
sI22664
(lp65
sI24714
(lp66
sI15383
(lp67
I758
asI18572
(lp68
sI20621
(lp69
sI12431
(lp70
sI12726
(lp71
I12679
asI24721
(lp72
sI14483
(lp73
sI2196
(lp74
I18496
asI13678
(lp75
sI12962
(lp76
sI155
(lp77
sI6300
(lp78
sI2205
(lp79
sI6302
(lp80
sI18591
(lp81
I2590
asI16544
(lp82
I16543
asI16548
(lp83
I16543
asI8902
(lp84
sI16553
(lp85
I16543
asI22851
(lp86
sI18603
(lp87
sI2256
(lp88
sI3438
(lp89
sI18610
(lp90
I10913
asI18214
(lp91
sI19919
(lp92
sI12476
(lp93
sI20192
(lp94
sI2238
(lp95
sI24767
(lp96
sI24768
(lp97
sI22579
(lp98
sI24772
(lp99
sI18629
(lp100
sI24774
(lp101
sI4297
(lp102
sI2250
(lp103
I9094
aI10240
aI10740
aI13965
aI20217
asI22731
(lp104
sI204
(lp105
sI22734
(lp106
sI20173
(lp107
I21572
asI208
(lp108
sI23928
(lp109
sI210
(lp110
sI24789
(lp111
sI214
(lp112
sI13237
(lp113
I13147
asI22746
(lp114
sI8411
(lp115
I2727
asI4317
(lp116
sI12512
(lp117
I10222
asI22753
(lp118
sI14562
(lp119
I18259
asI12515
(lp120
I2727
asI4324
(lp121
I3921
asI20078
(lp122
sI230
(lp123
I31
aI2381
aI2768
aI3878
aI8127
asI6376
(lp124
sI12522
(lp125
I2727
asI12523
(lp126
I2727
asI10478
(lp127
I20888
aI23972
aI24475
aI25761
asI8432
(lp128
sI16626
(lp129
sI13011
(lp130
sI16628
(lp131
sI17790
(lp132
sI21967
(lp133
sI4343
(lp134
sI4344
(lp135
sI16634
(lp136
sI18684
(lp137
sI254
(lp138
sI14595
(lp139
sI9601
(lp140
I7694
aI14540
asI12553
(lp141
sI16652
(lp142
I2746
asI269
(lp143
sI24846
(lp144
I24845
asI16655
(lp145
sI24849
(lp146
sI22802
(lp147
sI12898
(lp148
I14944
asI14614
(lp149
I14613
aI26425
asI283
(lp150
I19958
asI16672
(lp151
I11834
asI24868
(lp152
sI4389
(lp153
sI12583
(lp154
sI24873
(lp155
sI12679
(lp156
I12726
asI4396
(lp157
sI8493
(lp158
sI12590
(lp159
sI303
(lp160
sI14640
(lp161
sI9267
(lp162
sI26334
(lp163
sI24888
(lp164
sI12603
(lp165
sI16700
(lp166
sI2365
(lp167
I4652
asI14655
(lp168
sI18753
(lp169
sI14658
(lp170
sI18755
(lp171
sI14662
(lp172
sI20807
(lp173
sI2381
(lp174
I31
aI230
asI14671
(lp175
I1189
asI4432
(lp176
I9400
aI15251
aI19609
aI19612
aI19614
asI6482
(lp177
sI24016
(lp178
sI12633
(lp179
sI24923
(lp180
sI12636
(lp181
I12637
asI12637
(lp182
I12636
asI26335
(lp183
sI18783
(lp184
sI1921
(lp185
sI24930
(lp186
sI5862
(lp187
sI16785
(lp188
sI25319
(lp189
sI4461
(lp190
sI24943
(lp191
sI24945
(lp192
sI18806
(lp193
sI24952
(lp194
sI10992
(lp195
I10991
asI14811
(lp196
sI8575
(lp197
sI8579
(lp198
I18563
asI389
(lp199
sI24967
(lp200
sI8584
(lp201
sI14729
(lp202
sI24971
(lp203
sI16781
(lp204
sI19858
(lp205
sI18831
(lp206
sI401
(lp207
I403
asI20882
(lp208
sI403
(lp209
I401
asI18837
(lp210
sI20886
(lp211
sI20888
(lp212
I10478
asI10649
(lp213
sI22938
(lp214
I15746
asI16795
(lp215
sI20894
(lp216
I3878
asI6560
(lp217
I6561
asI6561
(lp218
I6560
aI13256
asI6563
(lp219
sI20052
(lp220
sI12711
(lp221
I12712
asI4520
(lp222
sI22958
(lp223
sI10673
(lp224
sI12722
(lp225
sI14540
(lp226
I9601
asI22966
(lp227
sI4652
(lp228
I2365
asI2465
(lp229
sI8650
(lp230
sI4555
(lp231
I20021
asI16844
(lp232
sI16845
(lp233
sI12751
(lp234
I886
asI18896
(lp235
sI20946
(lp236
sI8611
(lp237
sI23003
(lp238
sI12764
(lp239
sI6621
(lp240
sI23006
(lp241
sI14816
(lp242
sI12770
(lp243
sI14819
(lp244
sI20965
(lp245
sI18497
(lp246
sI14824
(lp247
sI23022
(lp248
sI12712
(lp249
I12711
asI10740
(lp250
I2250
asI503
(lp251
I507
asI23033
(lp252
I22506
asI507
(lp253
I503
asI2558
(lp254
I21078
aI21080
asI10751
(lp255
sI8704
(lp256
sI18948
(lp257
sI12805
(lp258
sI16903
(lp259
sI18953
(lp260
sI18954
(lp261
sI3159
(lp262
sI12812
(lp263
I1526
asI12813
(lp264
sI24977
(lp265
I3716
asI4625
(lp266
sI8722
(lp267
sI14869
(lp268
sI16473
(lp269
sI2590
(lp270
I11186
aI18591
asI18523
(lp271
sI2598
(lp272
I68
aI3878
asI2746
(lp273
I4031
aI16652
asI18772
(lp274
sI18985
(lp275
sI20231
(lp276
sI556
(lp277
sI21037
(lp278
sI23937
(lp279
sI21040
(lp280
I22481
asI12849
(lp281
I3382
asI21045
(lp282
sI2616
(lp283
sI21705
(lp284
sI11203
(lp285
sI12863
(lp286
sI16045
(lp287
sI2486
(lp288
sI23111
(lp289
sI14092
(lp290
sI8778
(lp291
I31
asI8780
(lp292
sI23118
(lp293
sI16141
(lp294
sI23121
(lp295
sI19026
(lp296
sI20238
(lp297
sI21078
(lp298
I2558
asI3513
(lp299
sI12888
(lp300
I12887
asI4697
(lp301
sI21085
(lp302
sI21087
(lp303
sI8800
(lp304
sI8801
(lp305
sI19042
(lp306
sI21947
(lp307
sI12905
(lp308
I23850
asI19056
(lp309
sI8818
(lp310
sI14964
(lp311
sI10869
(lp312
sI14967
(lp313
sI14968
(lp314
sI20244
(lp315
sI2495
(lp316
sI10880
(lp317
sI12931
(lp318
sI25221
(lp319
sI25222
(lp320
sI14989
(lp321
sI19086
(lp322
sI25232
(lp323
sI15128
(lp324
sI14995
(lp325
sI25236
(lp326
sI8855
(lp327
I3637
asI23192
(lp328
sI25241
(lp329
sI25242
(lp330
sI25243
(lp331
sI17052
(lp332
I3125
asI17053
(lp333
I3125
asI17054
(lp334
I3125
asI25247
(lp335
sI12960
(lp336
sI10913
(lp337
I18610
aI18611
asI10914
(lp338
sI25251
(lp339
sI21156
(lp340
I693
asI25253
(lp341
sI25254
(lp342
sI2727
(lp343
I3382
aI7044
aI8411
aI12515
aI12522
aI12523
asI17064
(lp344
sI25258
(lp345
sI683
(lp346
sI25260
(lp347
sI19118
(lp348
sI15025
(lp349
I15026
asI15026
(lp350
I15025
aI20914
aI23933
asI25267
(lp351
sI692
(lp352
I693
asI693
(lp353
I31
aI692
aI21156
asI12982
(lp354
sI4792
(lp355
sI19130
(lp356
sI10940
(lp357
sI701
(lp358
sI20141
(lp359
I2843
asI4804
(lp360
I31
asI25286
(lp361
sI10700
(lp362
sI17100
(lp363
sI25293
(lp364
sI4814
(lp365
sI15055
(lp366
sI2768
(lp367
I31
aI230
asI23331
(lp368
sI19156
(lp369
sI25302
(lp370
sI25303
(lp371
sI15064
(lp372
sI17113
(lp373
sI25307
(lp374
sI13020
(lp375
sI15982
(lp376
I3723
asI25310
(lp377
sI23263
(lp378
sI17120
(lp379
sI19169
(lp380
sI23268
(lp381
sI26065
(lp382
sI19174
(lp383
sI23271
(lp384
sI17130
(lp385
sI4843
(lp386
sI10991
(lp387
I10992
asI17136
(lp388
sI15089
(lp389
sI25330
(lp390
sI10996
(lp391
sI758
(lp392
I15383
asI19193
(lp393
I16576
asI16170
(lp394
sI25345
(lp395
sI4866
(lp396
sI25347
(lp397
sI4871
(lp398
sI17164
(lp399
sI17166
(lp400
sI15119
(lp401
sI25360
(lp402
sI13073
(lp403
sI21644
(lp404
I21642
asI23320
(lp405
sI11396
(lp406
I1526
asI17178
(lp407
sI2843
(lp408
I20141
asI797
(lp409
sI4895
(lp410
sI4896
(lp411
sI17187
(lp412
sI13094
(lp413
sI18908
(lp414
sI4397
(lp415
I4400
asI2863
(lp416
I3300
asI24801
(lp417
sI15303
(lp418
sI11066
(lp419
sI23860
(lp420
sI4924
(lp421
I13472
asI15165
(lp422
sI830
(lp423
I13600
aI17928
aI21695
asI13119
(lp424
sI20914
(lp425
I15026
asI9025
(lp426
sI2885
(lp427
sI3574
(lp428
sI11082
(lp429
sI6285
(lp430
sI9040
(lp431
sI2898
(lp432
sI26083
(lp433
sI1166
(lp434
sI19286
(lp435
sI26425
(lp436
I14614
asI19288
(lp437
sI11098
(lp438
sI14479
(lp439
sI11100
(lp440
sI26426
(lp441
sI13150
(lp442
sI12773
(lp443
sI19296
(lp444
sI865
(lp445
sI18235
(lp446
sI23396
(lp447
sI16870
(lp448
sI4966
(lp449
sI17255
(lp450
sI15210
(lp451
sI11115
(lp452
sI877
(lp453
sI4975
(lp454
sI24716
(lp455
sI13173
(lp456
sI886
(lp457
I12751
asI4988
(lp458
sI16576
(lp459
I19193
asI7044
(lp460
I2727
asI17286
(lp461
sI905
(lp462
sI24785
(lp463
sI9099
(lp464
sI909
(lp465
I910
asI910
(lp466
I909
asI17295
(lp467
sI15251
(lp468
I4432
asI918
(lp469
sI15513
(lp470
sI1860
(lp471
sI11162
(lp472
sI15259
(lp473
I1139
asI6441
(lp474
sI926
(lp475
I927
asI927
(lp476
I926
asI17313
(lp477
sI18937
(lp478
sI15268
(lp479
sI23461
(lp480
sI11176
(lp481
sI19612
(lp482
I4432
asI26439
(lp483
sI26098
(lp484
sI23472
(lp485
sI10056
(lp486
sI13234
(lp487
sI19614
(lp488
I4432
asI13238
(lp489
sI9147
(lp490
sI19274
(lp491
sI13247
(lp492
sI19393
(lp493
sI5059
(lp494
I5061
asI19958
(lp495
I31
aI283
aI17566
asI966
(lp496
sI967
(lp497
sI13256
(lp498
I6561
asI18935
(lp499
sI5069
(lp500
I5070
asI5070
(lp501
I5069
asI15312
(lp502
sI13267
(lp503
sI19413
(lp504
I19540
asI9175
(lp505
sI5284
(lp506
sI26447
(lp507
sI25566
(lp508
I3921
asI11429
(lp509
sI25568
(lp510
I3921
asI9185
(lp511
sI3042
(lp512
sI16209
(lp513
sI25576
(lp514
sI11436
(lp515
sI13292
(lp516
sI19437
(lp517
sI3055
(lp518
sI9384
(lp519
sI18259
(lp520
I14562
asI20990
(lp521
sI11254
(lp522
sI9211
(lp523
I11650
asI3074
(lp524
I23856
asI19460
(lp525
sI19461
(lp526
sI15369
(lp527
I15974
asI3082
(lp528
sI17421
(lp529
sI3086
(lp530
sI5136
(lp531
sI26456
(lp532
sI22130
(lp533
sI3990
(lp534
sI11287
(lp535
sI13338
(lp536
sI4613
(lp537
sI13147
(lp538
I13237
aI22477
asI5156
(lp539
sI11301
(lp540
sI5160
(lp541
sI13831
(lp542
sI21548
(lp543
sI9262
(lp544
sI25647
(lp545
sI9264
(lp546
I9263
aI21746
asI5171
(lp547
sI3125
(lp548
I17051
aI17052
aI17053
aI17054
asI1081
(lp549
sI13370
(lp550
sI522
(lp551
sI3134
(lp552
sI3136
(lp553
sI25667
(lp554
sI21572
(lp555
I20173
asI21578
(lp556
sI15544
(lp557
sI19540
(lp558
I19413
asI25444
(lp559
sI15447
(lp560
sI19545
(lp561
sI22031
(lp562
sI5214
(lp563
sI16677
(lp564
sI11367
(lp565
sI22389
(lp566
sI25706
(lp567
sI18279
(lp568
sI18611
(lp569
I10913
asI19678
(lp570
sI1139
(lp571
I15255
aI15259
asI3188
(lp572
sI19575
(lp573
sI19577
(lp574
sI15482
(lp575
sI15485
(lp576
sI26133
(lp577
sI15552
(lp578
sI15490
(lp579
sI15492
(lp580
sI5254
(lp581
I22115
asI1160
(lp582
sI15498
(lp583
sI15499
(lp584
sI20720
(lp585
I11468
asI19597
(lp586
sI3214
(lp587
sI15503
(lp588
sI1169
(lp589
sI19603
(lp590
sI5272
(lp591
sI19609
(lp592
I4432
asI13167
(lp593
sI3228
(lp594
sI15517
(lp595
sI17566
(lp596
I19958
asI11424
(lp597
sI25761
(lp598
I10478
asI1186
(lp599
sI17572
(lp600
sI1189
(lp601
I14671
asI17576
(lp602
sI21675
(lp603
sI16543
(lp604
I16544
aI16548
aI16553
asI20021
(lp605
I4555
asI22045
(lp606
sI26413
(lp607
sI11447
(lp608
sI9400
(lp609
I4432
asI9404
(lp610
sI24778
(lp611
sI21695
(lp612
I830
asI9408
(lp613
sI19650
(lp614
sI24779
(lp615
sI17605
(lp616
sI24780
(lp617
sI25802
(lp618
sI11468
(lp619
I20237
aI20720
aI22204
asI3279
(lp620
sI25811
(lp621
sI9429
(lp622
sI5337
(lp623
sI5339
(lp624
sI9437
(lp625
sI15582
(lp626
sI19679
(lp627
sI24784
(lp628
sI3300
(lp629
I2863
asI21734
(lp630
sI22737
(lp631
sI25834
(lp632
sI4306
(lp633
sI13550
(lp634
sI9455
(lp635
sI19696
(lp636
sI19697
(lp637
sI17650
(lp638
I3382
asI3316
(lp639
sI17655
(lp640
sI11512
(lp641
sI21753
(lp642
sI17658
(lp643
sI15966
(lp644
sI11518
(lp645
sI15591
(lp646
sI1286
(lp647
sI25863
(lp648
sI8748
(lp649
sI21770
(lp650
sI9485
(lp651
sI25873
(lp652
sI10115
(lp653
sI25878
(lp654
sI15640
(lp655
sI11823
(lp656
sI5405
(lp657
sI13600
(lp658
I830
asI3575
(lp659
sI9094
(lp660
I2250
asI14774
(lp661
sI23850
(lp662
I12905
asI3371
(lp663
sI21804
(lp664
sI23856
(lp665
I3074
asI19762
(lp666
sI15667
(lp667
sI21812
(lp668
sI25909
(lp669
sI15670
(lp670
sI19767
(lp671
sI15924
(lp672
sI19770
(lp673
sI21822
(lp674
sI3391
(lp675
sI18326
(lp676
sI18656
(lp677
sI5442
(lp678
sI16889
(lp679
sI5447
(lp680
sI21832
(lp681
sI21836
(lp682
sI17741
(lp683
sI21838
(lp684
sI22413
(lp685
I16200
asI20024
(lp686
sI21844
(lp687
sI25943
(lp688
sI25828
(lp689
sI21851
(lp690
sI11834
(lp691
I16672
aI18320
asI3422
(lp692
sI21855
(lp693
sI25952
(lp694
sI15713
(lp695
sI3429
(lp696
sI1182
(lp697
sI8775
(lp698
I3637
asI21867
(lp699
sI15726
(lp700
sI3439
(lp701
sI15730
(lp702
sI25972
(lp703
I20223
asI1398
(lp704
I17903
asI25006
(lp705
I18518
asI7544
(lp706
sI19834
(lp707
sI16959
(lp708
sI23933
(lp709
I15026
asI5502
(lp710
sI17791
(lp711
sI3457
(lp712
sI15746
(lp713
I22938
asI15747
(lp714
sI9867
(lp715
I9868
asI11158
(lp716
sI19846
(lp717
sI13703
(lp718
I13704
asI13704
(lp719
I13703
asI19850
(lp720
sI15255
(lp721
I1139
asI21741
(lp722
sI3473
(lp723
I3474
asI3474
(lp724
I3473
asI9619
(lp725
sI9620
(lp726
sI23958
(lp727
sI19864
(lp728
sI26180
(lp729
sI13723
(lp730
sI17822
(lp731
sI9631
(lp732
sI6384
(lp733
sI23972
(lp734
I10478
asI23974
(lp735
sI3526
(lp736
sI19883
(lp737
sI23980
(lp738
sI21746
(lp739
I9264
asI11694
(lp740
sI4339
(lp741
sI13748
(lp742
sI10142
(lp743
sI21943
(lp744
sI26040
(lp745
sI15801
(lp746
sI9659
(lp747
sI16629
(lp748
sI26052
(lp749
sI19910
(lp750
sI9672
(lp751
sI9673
(lp752
sI9674
(lp753
sI25847
(lp754
sI9676
(lp755
sI9677
(lp756
sI21966
(lp757
sI24015
(lp758
sI17872
(lp759
sI9464
(lp760
sI11733
(lp761
sI7638
(lp762
I14645
asI11736
(lp763
sI21977
(lp764
sI13790
(lp765
sI15840
(lp766
sI18000
(lp767
sI15843
(lp768
sI26086
(lp769
sI3559
(lp770
sI11752
(lp771
sI15849
(lp772
sI9706
(lp773
sI12967
(lp774
sI17903
(lp775
I1398
asI22000
(lp776
sI22002
(lp777
I9958
asI5619
(lp778
sI26100
(lp779
sI1526
(lp780
I11396
aI12812
asI1527
(lp781
sI13817
(lp782
sI13821
(lp783
sI13822
(lp784
sI9727
(lp785
sI13825
(lp786
sI13826
(lp787
sI19971
(lp788
sI22020
(lp789
sI14645
(lp790
I7638
asI22023
(lp791
sI17928
(lp792
I830
asI22025
(lp793
sI3595
(lp794
sI13837
(lp795
sI7694
(lp796
I9601
asI13839
(lp797
sI21080
(lp798
I2558
asI22034
(lp799
sI19988
(lp800
sI13845
(lp801
sI13848
(lp802
sI11802
(lp803
I16200
asI11804
(lp804
sI9818
(lp805
sI26146
(lp806
sI26147
(lp807
sI26148
(lp808
sI13472
(lp809
I4924
asI9767
(lp810
sI13866
(lp811
sI23815
(lp812
sI11186
(lp813
I2590
asI9774
(lp814
sI26159
(lp815
sI17969
(lp816
sI20019
(lp817
sI20020
(lp818
sI3637
(lp819
I8775
aI8855
asI16649
(lp820
sI5688
(lp821
sI5690
(lp822
sI9787
(lp823
sI17981
(lp824
sI22353
(lp825
I11893
asI11839
(lp826
sI14944
(lp827
I12898
asI3652
(lp828
sI20038
(lp829
sI26183
(lp830
sI20040
(lp831
sI20041
(lp832
sI17994
(lp833
sI26188
(lp834
sI9805
(lp835
sI3662
(lp836
sI24845
(lp837
I24846
asI22096
(lp838
sI1895
(lp839
sI26196
(lp840
I3382
asI3669
(lp841
sI15958
(lp842
sI9815
(lp843
I9814
asI26241
(lp844
sI24153
(lp845
sI15962
(lp846
sI15963
(lp847
sI26173
(lp848
sI9822
(lp849
sI9825
(lp850
sI22115
(lp851
I5254
asI22116
(lp852
sI15974
(lp853
I15369
asI13927
(lp854
sI24168
(lp855
sI5738
(lp856
sI9835
(lp857
sI9838
(lp858
sI5745
(lp859
sI26226
(lp860
sI24179
(lp861
sI11893
(lp862
I22353
asI15991
(lp863
sI24184
(lp864
sI18041
(lp865
sI4031
(lp866
I2746
asI9852
(lp867
sI14613
(lp868
I14614
asI3712
(lp869
sI18049
(lp870
sI3716
(lp871
I24977
asI26249
(lp872
sI3723
(lp873
I15982
asI9868
(lp874
I9867
asI13965
(lp875
I2250
asI9874
(lp876
sI5779
(lp877
sI26260
(lp878
I10066
asI22126
(lp879
sI5061
(lp880
I5059
asI22179
(lp881
sI20133
(lp882
sI9263
(lp883
I9264
asI16719
(lp884
sI3757
(lp885
sI11650
(lp886
I9211
asI22191
(lp887
sI5812
(lp888
sI22204
(lp889
I11468
asI16064
(lp890
sI20161
(lp891
sI20162
(lp892
sI20107
(lp893
sI18118
(lp894
sI3783
(lp895
sI5832
(lp896
sI7885
(lp897
sI22477
(lp898
I13147
asI7888
(lp899
sI22136
(lp900
sI16090
(lp901
sI16091
(lp902
sI15901
(lp903
I3921
asI26333
(lp904
sI16094
(lp905
sI18143
(lp906
sI18144
(lp907
sI14050
(lp908
sI9851
(lp909
sI15198
(lp910
sI18149
(lp911
sI9958
(lp912
I22002
asI20200
(lp913
sI3820
(lp914
sI20207
(lp915
I2345
asI20208
(lp916
I2345
asI9969
(lp917
sI20210
(lp918
I2345
asI3827
(lp919
sI9973
(lp920
sI20215
(lp921
sI5880
(lp922
sI20217
(lp923
I2250
asI20223
(lp924
I25972
asI9987
(lp925
sI20230
(lp926
sI9791
(lp927
sI1800
(lp928
sI18732
(lp929
sI20234
(lp930
sI1804
(lp931
sI20237
(lp932
I11468
asI26382
(lp933
sI301
(lp934
sI20240
(lp935
sI10001
(lp936
sI20242
(lp937
sI19693
(lp938
sI10004
(lp939
sI10009
(lp940
sI20783
(lp941
sI3868
(lp942
sI20255
(lp943
sI4400
(lp944
I4397
asI10018
(lp945
sI20259
(lp946
sI3878
(lp947
I31
aI230
aI2598
aI20894
asI18218
(lp948
sI20269
(lp949
sI26418
(lp950
sI14133
(lp951
sI10041
(lp952
sI16186
(lp953
sI26427
(lp954
sI4767
(lp955
sI14141
(lp956
sI20286
(lp957
sI22335
(lp958
sI18243
(lp959
sI5956
(lp960
sI3382
(lp961
I2727
aI12849
aI17650
aI26196
aI26388
asI18246
(lp962
sI1863
(lp963
sI16200
(lp964
I11802
aI22413
asI16012
(lp965
sI16203
(lp966
sI9814
(lp967
I9815
asI14157
(lp968
sI10063
(lp969
sI17793
(lp970
sI3921
(lp971
I4324
aI15901
aI25566
aI25568
asI10066
(lp972
I26260
asI22355
(lp973
sI21642
(lp974
I21644
asI18263
(lp975
sI3928
(lp976
sI20317
(lp977
sI26462
(lp978
sI3939
(lp979
I2052
asI1894
(lp980
sI26471
(lp981
sI22844
(lp982
sI22162
(lp983
sI3951
(lp984
sI20336
(lp985
sI10100
(lp986
sI5438
(lp987
sI8055
(lp988
sI19092
(lp989
sI18300
(lp990
sI24554
(lp991
sI24448
(lp992
sI16257
(lp993
sI18307
(lp994
sI20357
(lp995
sI20358
(lp996
sI20359
(lp997
sI1929
(lp998
sI24460
(lp999
sI12173
(lp1000
sI18320
(lp1001
I11834
asI22417
(lp1002
sI20371
(lp1003
sI2345
(lp1004
I20207
aI20208
aI20210
asI26388
(lp1005
I3382
asI665
(lp1006
sI16281
(lp1007
sI24475
(lp1008
I10478
asI1950
(lp1009
sI21751
(lp1010
sI18955
(lp1011
sI17051
(lp1012
I3125
asI20389
(lp1013
sI22444
(lp1014
sI4014
(lp1015
sI24495
(lp1016
sI15957
(lp1017
sI4025
(lp1018
I4026
aI4027
asI4026
(lp1019
I4025
asI4027
(lp1020
I4025
asI20413
(lp1021
sI8127
(lp1022
I230
asI22464
(lp1023
sI14274
(lp1024
sI16323
(lp1025
sI22470
(lp1026
sI12887
(lp1027
I12888
asI8866
(lp1028
sI24526
(lp1029
sI22481
(lp1030
I21040
asI10194
(lp1031
sI4052
(lp1032
sI14293
(lp1033
sI24534
(lp1034
sI14295
(lp1035
sI24536
(lp1036
sI8868
(lp1037
sI20442
(lp1038
sI9205
(lp1039
sI20444
(lp1040
sI20448
(lp1041
sI4068
(lp1042
sI2022
(lp1043
I2023
asI2023
(lp1044
I2022
asI20456
(lp1045
sI22506
(lp1046
I23033
asI25255
(lp1047
sI20460
(lp1048
sI10222
(lp1049
I12512
asI14320
(lp1050
sI18418
(lp1051
sI22515
(lp1052
sI22526
(lp1053
sI24566
(lp1054
sI18423
(lp1055
sI20472
(lp1056
sI4089
(lp1057
sI24571
(lp1058
sI10238
(lp1059
sI14335
(lp1060
s.