(dp0
I9861
(lp1
I23874
asI4616
(lp2
sI268
(lp3
I9398
asI26003
(lp4
I2105
asI1941
(lp5
I5886
aI13780
aI22828
asI14871
(lp6
sI6562
(lp7
sI23971
(lp8
sI10918
(lp9
I2105
asI18346
(lp10
sI22828
(lp11
I1941
asI22832
(lp12
sI10805
(lp13
sI9398
(lp14
I268
asI2105
(lp15
I10918
aI22487
aI26003
asI23874
(lp16
I9861
asI5959
(lp17
I473
asI6602
(lp18
sI16972
(lp19
sI8014
(lp20
sI17871
(lp21
sI13780
(lp22
I1941
asI22487
(lp23
I2105
asI473
(lp24
I5959
aI17018
asI9829
(lp25
sI24951
(lp26
sI17018
(lp27
I473
asI5886
(lp28
I1941
as.