(dp0
I1283
(lp1
I24570
asI1796
(lp2
I331
asI2309
(lp3
I3009
asI1670
(lp4
sI1799
(lp5
I331
asI1801
(lp6
I331
aI13307
asI1808
(lp7
I331
asI1859
(lp8
I331
asI1825
(lp9
I331
asI4129
(lp10
I1721
aI5299
aI10945
asI26417
(lp11
sI26408
(lp12
I4960
asI1834
(lp13
I331
asI1197
(lp14
sI5937
(lp15
sI11698
(lp16
sI5299
(lp17
I4129
asI1718
(lp18
I331
asI19081
(lp19
sI1720
(lp20
I331
asI1721
(lp21
I331
aI4129
asI1723
(lp22
I331
asI3009
(lp23
I2309
asI1739
(lp24
I331
asI1732
(lp25
I331
asI1734
(lp26
I331
asI1735
(lp27
I331
asI1736
(lp28
I331
asI1865
(lp29
I331
asI330
(lp30
I331
asI331
(lp31
I330
aI1718
aI1720
aI1721
aI1723
aI1732
aI1734
aI1735
aI1736
aI1739
aI1745
aI1747
aI1748
aI1750
aI1767
aI1770
aI1776
aI1781
aI1796
aI1799
aI1801
aI1808
aI1825
aI1834
aI1859
aI1865
asI15052
(lp32
sI1745
(lp33
I331
asI1747
(lp34
I331
asI1748
(lp35
I331
asI1750
(lp36
I331
asI24570
(lp37
I1283
asI4960
(lp38
I26171
aI26408
asI26171
(lp39
I4960
asI1767
(lp40
I331
asI1770
(lp41
I331
asI1776
(lp42
I331
asI1781
(lp43
I331
asI10945
(lp44
I4129
asI13307
(lp45
I1801
as.