(dp0
I5
(lp1
I6
aI7
asI6
(lp2
I5
aI23
aI3072
aI12765
aI25533
aI25603
asI7
(lp3
I5
aI23
aI1945
aI2108
aI3547
aI3630
aI3955
aI8711
aI9294
aI9375
aI9960
aI12591
aI13079
aI13089
aI13246
aI13334
aI15537
aI16333
aI16793
aI17971
aI18336
aI18888
aI19936
aI20637
aI21351
aI22505
aI22713
aI22786
aI23329
aI23340
aI23346
aI24000
aI24012
aI24659
aI24670
aI24672
aI24678
aI24691
asI24594
(lp4
I3630
asI6165
(lp5
sI2070
(lp6
I14449
aI18390
aI21740
asI23
(lp7
I6
aI7
aI99
aI328
aI603
aI742
aI2176
aI2177
aI2185
aI2277
aI2423
aI2606
aI2627
aI2636
aI2828
aI2975
aI3081
aI3185
aI3389
aI3476
aI3478
aI4910
aI4915
aI5890
aI5946
aI5960
aI9242
aI9494
aI9746
aI9946
aI10021
aI10081
aI10352
aI13246
aI13317
aI13958
aI14147
aI14844
aI16823
aI16838
aI17015
aI17041
aI17961
aI19576
aI20369
aI24012
aI25266
aI25533
asI2080
(lp8
I2176
asI3478
(lp9
I23
aI5960
aI11120
aI19628
asI20523
(lp10
sI20525
(lp11
sI2108
(lp12
I7
aI15013
aI18127
aI18177
asI14402
(lp13
I2144
asI4172
(lp14
I4173
asI4173
(lp15
I4172
asI24659
(lp16
I7
asI20567
(lp17
I3178
aI18888
asI24670
(lp18
I7
asI9573
(lp19
sI2144
(lp20
I2949
aI9880
aI12716
aI12838
aI14402
aI14654
aI19862
aI19868
aI19875
asI99
(lp21
I23
aI5252
aI9311
aI14246
aI15774
aI16778
aI16780
aI16790
aI19947
aI20375
aI21788
aI21789
aI21792
aI21795
aI21796
aI21800
aI21802
asI24678
(lp22
I7
asI20588
(lp23
sI10352
(lp24
I23
aI2185
aI23109
asI14449
(lp25
I2070
aI14448
aI16872
asI24691
(lp26
I7
asI2175
(lp27
I2176
aI2177
aI2178
asI2176
(lp28
I23
aI2080
aI2175
aI9978
aI13316
aI13317
aI17948
aI17955
aI17957
aI17958
aI17959
aI17960
aI17961
aI17970
aI17971
aI17974
asI2177
(lp29
I23
aI2175
aI12994
aI14616
aI15537
aI17970
aI18060
aI19936
asI2178
(lp30
I2175
asI20614
(lp31
I658
asI2184
(lp32
I2185
asI2185
(lp33
I23
aI2184
aI3203
aI4946
aI9492
aI9494
aI9946
aI10021
aI10352
asI24715
(lp34
I2759
asI24717
(lp35
I2759
asI14485
(lp36
I2415
asI14486
(lp37
I2415
asI20637
(lp38
I7
asI22713
(lp39
I7
asI2240
(lp40
I1073
asI4295
(lp41
I658
asI6354
(lp42
I18531
aI25812
asI4316
(lp43
I19261
asI22755
(lp44
I2759
asI2277
(lp45
I23
asI14586
(lp46
I3630
aI9557
asI22786
(lp47
I7
asI6404
(lp48
I742
aI3153
asI14616
(lp49
I2177
asI12591
(lp50
I7
asI2360
(lp51
sI20796
(lp52
I3803
asI14654
(lp53
I2144
asI327
(lp54
I328
asI328
(lp55
I23
aI327
asI20815
(lp56
sI18773
(lp57
sI22889
(lp58
sI2415
(lp59
I14485
aI14486
asI8560
(lp60
sI6513
(lp61
sI24948
(lp62
I19322
asI2423
(lp63
I23
aI4800
aI12838
aI22052
asI6527
(lp64
sI4482
(lp65
sI22916
(lp66
I2545
asI4502
(lp67
sI16778
(lp68
I99
asI16780
(lp69
I99
asI18838
(lp70
I419
aI658
asI16790
(lp71
I99
asI18839
(lp72
I419
asI16793
(lp73
I7
asI18847
(lp74
sI417
(lp75
I419
asI419
(lp76
I417
aI4682
aI18838
aI18839
asI12716
(lp77
I2144
asI432
(lp78
I2627
asI16823
(lp79
I23
asI20933
(lp80
I2759
asI16838
(lp81
I23
aI16839
asI12705
(lp82
I658
aI660
asI18888
(lp83
I7
aI3178
aI20567
asI16847
(lp84
sI12765
(lp85
I6
asI16869
(lp86
I18367
asI20966
(lp87
sI16872
(lp88
I14449
asI2545
(lp89
I3803
aI9386
aI16998
aI22916
aI26024
asI2555
(lp90
I546
asI14844
(lp91
I23
asI8711
(lp92
I7
asI4626
(lp93
sI14868
(lp94
I546
asI546
(lp95
I1039
aI1645
aI2555
aI9641
aI14868
aI17927
aI19457
aI21969
aI23217
aI23218
aI23222
asI12838
(lp96
I2144
aI2423
asI557
(lp97
sI2606
(lp98
I23
aI2028
aI6026
aI9311
asI561
(lp99
I954
aI1098
aI3292
aI9276
aI9277
aI9278
aI9282
aI9284
aI9291
aI9292
aI9293
aI9294
aI9295
aI9298
aI9301
aI9304
aI9307
asI8754
(lp100
I2759
asI4672
(lp101
sI24672
(lp102
I7
asI2627
(lp103
I23
aI432
aI8799
aI11817
asI23109
(lp104
I10352
asI19015
(lp105
sI4682
(lp106
I419
aI658
asI2636
(lp107
I23
asI18531
(lp108
I6354
asI603
(lp109
I23
asI8799
(lp110
I2627
asI612
(lp111
sI10853
(lp112
sI16998
(lp113
I2545
asI2665
(lp114
I19628
asI4714
(lp115
I11102
asI17015
(lp116
I23
asI25215
(lp117
I21969
asI19076
(lp118
sI25708
(lp119
I15468
asI17041
(lp120
I23
asI658
(lp121
I657
aI1936
aI4295
aI4682
aI12705
aI13062
aI13687
aI15220
aI18838
aI19322
aI20614
aI21846
aI21861
aI22146
asI659
(lp122
I660
asI660
(lp123
I659
aI12705
aI15017
asI2715
(lp124
sI14448
(lp125
I14449
asI15013
(lp126
I2108
asI15017
(lp127
I660
asI16839
(lp128
I16838
asI23217
(lp129
I546
aI3630
asI23218
(lp130
I546
asI8885
(lp131
sI23222
(lp132
I546
aI9812
asI4800
(lp133
I2423
asI12994
(lp134
I2177
asI2759
(lp135
I3292
aI8754
aI18229
aI20933
aI22132
aI22755
aI24713
aI24715
aI24717
asI4815
(lp136
I742
asI25301
(lp137
sI5889
(lp138
I5890
asI742
(lp139
I23
aI4815
aI6404
aI9937
asI763
(lp140
sI765
(lp141
sI13062
(lp142
I658
asI2828
(lp143
I23
asI13079
(lp144
I7
asI23329
(lp145
I7
asI23340
(lp146
I7
asI4910
(lp147
I23
asI23346
(lp148
I7
asI4915
(lp149
I23
aI9733
asI24713
(lp150
I2759
asI19261
(lp151
I4316
asI4946
(lp152
I2185
asI11102
(lp153
I4714
asI15206
(lp154
sI21351
(lp155
I7
asI13164
(lp156
I1073
asI13165
(lp157
I1073
asI11120
(lp158
I3478
asI15220
(lp159
I658
asI19322
(lp160
I658
aI24948
asI13181
(lp161
I1073
asI15233
(lp162
sI2949
(lp163
I2144
asI13203
(lp164
I1073
asI11159
(lp165
sI2975
(lp166
I23
asI13228
(lp167
I1073
asI954
(lp168
I561
aI25902
asI25533
(lp169
I6
aI23
asI13246
(lp170
I7
aI23
asI9191
(lp171
sI25266
(lp172
I23
asI3072
(lp173
I6
asI19457
(lp174
I546
asI25603
(lp175
I6
asI13316
(lp176
I2176
aI13317
asI13317
(lp177
I23
aI2176
aI13316
asI3081
(lp178
I23
asI19467
(lp179
sI1039
(lp180
I546
asI25619
(lp181
I15468
asI15380
(lp182
sI13334
(lp183
I7
asI9242
(lp184
I23
aI5960
asI9257
(lp185
sI1067
(lp186
sI1073
(lp187
I1280
aI2240
aI3627
aI12955
aI13164
aI13165
aI13181
aI13203
aI13228
asI9276
(lp188
I561
asI9277
(lp189
I561
asI9278
(lp190
I561
asI9282
(lp191
I561
asI9284
(lp192
I561
asI1098
(lp193
I561
asI9291
(lp194
I561
asI9292
(lp195
I561
asI9293
(lp196
I561
asI9294
(lp197
I7
aI561
asI9295
(lp198
I561
asI3153
(lp199
I6404
asI9298
(lp200
I561
asI9301
(lp201
I561
asI9304
(lp202
I561
asI9307
(lp203
I561
asI9311
(lp204
I99
aI2606
asI3178
(lp205
I18888
aI20567
asI15467
(lp206
I15468
asI15468
(lp207
I15467
aI25619
aI25708
asI3185
(lp208
I23
asI19576
(lp209
I23
asI25721
(lp210
I20369
asI3203
(lp211
I2185
asI5252
(lp212
I99
asI9356
(lp213
sI25751
(lp214
sI9375
(lp215
I7
asI5286
(lp216
I21757
asI9386
(lp217
I2545
asI19628
(lp218
I2665
aI3478
asI15537
(lp219
I7
aI2177
asI15558
(lp220
sI25812
(lp221
I6354
asI3292
(lp222
I561
aI2759
asI25822
(lp223
sI21740
(lp224
I2070
aI26042
asI11817
(lp225
I2627
asI5369
(lp226
sI21757
(lp227
I5286
asI1280
(lp228
I1073
aI1645
asI9492
(lp229
I2185
asI9494
(lp230
I23
aI2185
asI21788
(lp231
I99
asI21789
(lp232
I99
asI21792
(lp233
I99
asI21795
(lp234
I99
asI21796
(lp235
I99
asI21800
(lp236
I99
asI21802
(lp237
I99
asI25902
(lp238
I954
asI1333
(lp239
sI3389
(lp240
I23
asI19779
(lp241
I1508
asI16480
(lp242
sI9556
(lp243
I9557
asI9557
(lp244
I9556
aI14586
asI21846
(lp245
I658
asI25944
(lp246
I18367
asI19803
(lp247
sI21861
(lp248
I658
asI17781
(lp249
sI13687
(lp250
I658
asI15744
(lp251
sI21892
(lp252
sI25995
(lp253
I9812
asI3476
(lp254
I23
aI9730
aI9732
aI9733
aI9741
asI19862
(lp255
I2144
asI19868
(lp256
I2144
asI15774
(lp257
I99
asI19875
(lp258
I2144
asI26024
(lp259
I2545
asI9641
(lp260
I546
asI26042
(lp261
I21740
asI24000
(lp262
I7
asI24012
(lp263
I7
aI23
asI21969
(lp264
I546
aI25215
asI17876
(lp265
sI21973
(lp266
sI3547
(lp267
I7
asI19936
(lp268
I7
aI2177
asI9698
(lp269
I1928
asI1508
(lp270
I19779
aI24557
asI19947
(lp271
I99
asI26099
(lp272
sI9730
(lp273
I3476
asI9732
(lp274
I3476
asI9733
(lp275
I3476
aI4915
asI17927
(lp276
I546
asI9741
(lp277
I3476
asI15887
(lp278
sI9746
(lp279
I23
asI17948
(lp280
I2176
asI17955
(lp281
I2176
asI22052
(lp282
I2423
asI17957
(lp283
I2176
asI17958
(lp284
I2176
asI17959
(lp285
I2176
asI17960
(lp286
I2176
asI17961
(lp287
I23
aI2176
asI3627
(lp288
I1073
aI3630
asI3630
(lp289
I7
aI3627
aI14586
aI22492
aI22499
aI23217
aI24594
asI17970
(lp290
I2176
aI2177
asI17971
(lp291
I7
aI2176
asI17974
(lp292
I2176
asI26185
(lp293
sI26195
(lp294
sI9812
(lp295
I23222
aI25995
asI13912
(lp296
I20808
asI1645
(lp297
I546
aI1280
asI9839
(lp298
I3803
asI9843
(lp299
sI22132
(lp300
I2759
asI3710
(lp301
sI22146
(lp302
I658
asI13958
(lp303
I23
asI1673
(lp304
sI18060
(lp305
I2177
asI9880
(lp306
I2144
asI26292
(lp307
sI9924
(lp308
sI9932
(lp309
I9946
asI18127
(lp310
I2108
asI9937
(lp311
I742
asI9946
(lp312
I23
aI2185
aI9932
asI3803
(lp313
I2545
aI9839
aI20796
asI26337
(lp314
sI26338
(lp315
sI26340
(lp316
sI26341
(lp317
sI9960
(lp318
I7
asI9978
(lp319
I2176
asI18177
(lp320
I2108
asI5890
(lp321
I23
aI5889
asI9992
(lp322
sI3871
(lp323
sI10021
(lp324
I23
aI2185
asI16167
(lp325
sI18229
(lp326
I2759
asI5946
(lp327
I23
asI14147
(lp328
I23
asI5960
(lp329
I23
aI3478
aI9242
asI16204
(lp330
sI16220
(lp331
sI10081
(lp332
I23
asI657
(lp333
I658
asI22378
(lp334
sI20333
(lp335
sI16239
(lp336
sI3955
(lp337
I7
asI13089
(lp338
I7
asI1926
(lp339
I1928
asI1928
(lp340
I1926
aI9698
asI6026
(lp341
I2606
asI1936
(lp342
I658
asI20369
(lp343
I23
aI25721
asI20372
(lp344
sI20375
(lp345
I99
asI1945
(lp346
I7
asI1948
(lp347
sI18336
(lp348
I7
asI12955
(lp349
I1073
asI14246
(lp350
I99
asI20808
(lp351
I13912
asI16315
(lp352
sI18367
(lp353
I16869
aI25944
asI16333
(lp354
I7
asI18390
(lp355
I2070
asI22492
(lp356
I3630
asI2016
(lp357
sI22499
(lp358
I3630
asI22505
(lp359
I7
asI2028
(lp360
I2606
asI24557
(lp361
I1508
asI4078
(lp362
sI4086
(lp363
s.