(dp0
I3073
(lp1
I90
aI9625
aI26004
asI1026
(lp2
I1028
asI1028
(lp3
I688
aI1026
aI9213
aI21622
asI2561
(lp4
sI3080
(lp5
I90
asI3083
(lp6
I90
asI3087
(lp7
I90
aI4812
asI3091
(lp8
I90
asI1559
(lp9
I90
aI19885
aI19886
asI2072
(lp10
I90
aI2073
aI2075
aI2076
asI2073
(lp11
I2072
asI2075
(lp12
I2072
asI2588
(lp13
I90
asI4126
(lp14
I2937
aI18188
aI24573
aI24574
aI24575
asI688
(lp15
I90
aI1028
asI3109
(lp16
I90
asI3111
(lp17
I90
asI3113
(lp18
I90
asI3114
(lp19
I90
asI2605
(lp20
I90
asI2608
(lp21
I90
asI3123
(lp22
I90
aI3223
asI3124
(lp23
I90
asI2613
(lp24
I90
asI2614
(lp25
I90
asI2625
(lp26
I90
asI3138
(lp27
I90
asI3139
(lp28
I90
asI3144
(lp29
I90
asI3145
(lp30
I90
asI3148
(lp31
I90
asI2639
(lp32
I90
asI13395
(lp33
sI2647
(lp34
I90
asI90
(lp35
I623
aI688
aI1014
aI1559
aI2072
aI2279
aI2315
aI2379
aI2588
aI2601
aI2605
aI2608
aI2613
aI2614
aI2625
aI2639
aI2647
aI2659
aI2664
aI2669
aI2670
aI2679
aI2684
aI2689
aI2690
aI2695
aI2700
aI2701
aI2704
aI2707
aI2712
aI2716
aI2718
aI2722
aI2729
aI2735
aI2750
aI2751
aI2753
aI2754
aI2755
aI2757
aI2760
aI2761
aI2769
aI2772
aI2776
aI2782
aI2783
aI2789
aI2791
aI2792
aI2793
aI2794
aI2808
aI2810
aI2811
aI2812
aI2820
aI2823
aI2825
aI2830
aI2831
aI2832
aI2833
aI2835
aI2837
aI2838
aI2846
aI2848
aI2852
aI2854
aI2857
aI2872
aI2875
aI2879
aI2884
aI2888
aI2889
aI2890
aI2892
aI2899
aI2903
aI2913
aI2914
aI2920
aI2921
aI2925
aI2934
aI2937
aI2942
aI2944
aI2945
aI2947
aI2953
aI2955
aI2956
aI2961
aI2962
aI2964
aI2969
aI2971
aI2973
aI2978
aI2981
aI2982
aI2988
aI2992
aI2994
aI2997
aI3004
aI3006
aI3010
aI3018
aI3026
aI3030
aI3038
aI3039
aI3043
aI3049
aI3063
aI3064
aI3073
aI3080
aI3083
aI3087
aI3091
aI3109
aI3111
aI3113
aI3114
aI3123
aI3124
aI3138
aI3139
aI3144
aI3145
aI3148
aI3167
aI3174
aI3181
aI3182
aI3187
aI3190
aI3198
aI3199
aI3201
aI3206
aI3215
aI3218
aI3219
aI3221
aI3223
aI3226
aI3227
aI3248
aI3258
aI3270
aI3285
aI3293
aI3322
aI3329
aI3341
aI3365
asI3167
(lp36
I90
asI2659
(lp37
I90
asI3174
(lp38
I90
asI5393
(lp39
I2754
asI2664
(lp40
I90
asI15978
(lp41
I3285
asI3181
(lp42
I90
asI2670
(lp43
I90
asI623
(lp44
I90
aI622
asI625
(lp45
I622
aI5245
aI5246
aI5249
asI3187
(lp46
I90
aI19157
asI3190
(lp47
I90
asI2679
(lp48
I90
asI2684
(lp49
I90
asI5245
(lp50
I625
asI3198
(lp51
I90
asI3199
(lp52
I90
asI2689
(lp53
I90
asI2690
(lp54
I90
asI3206
(lp55
I90
asI2695
(lp56
I90
asI26004
(lp57
I3073
asI2700
(lp58
I90
asI2701
(lp59
I90
asI2669
(lp60
I90
asI2704
(lp61
I90
asI3218
(lp62
I90
asI2707
(lp63
I90
asI3221
(lp64
I90
aI2750
asI3223
(lp65
I90
aI3123
asI2712
(lp66
I90
asI3226
(lp67
I90
asI3227
(lp68
I90
asI2716
(lp69
I90
asI2718
(lp70
I90
asI1695
(lp71
I1696
asI1696
(lp72
I1695
aI2899
asI2722
(lp73
I90
asI21622
(lp74
I1028
asI4263
(lp75
I2522
asI2076
(lp76
I2072
asI2220
(lp77
sI2735
(lp78
I90
asI3248
(lp79
I90
asI15219
(lp80
sI3258
(lp81
I90
asI2750
(lp82
I90
aI3221
asI2751
(lp83
I90
asI2753
(lp84
I90
asI2754
(lp85
I90
aI5393
asI2755
(lp86
I90
asI2757
(lp87
I90
asI3270
(lp88
I90
asI2760
(lp89
I90
asI2761
(lp90
I90
asI4812
(lp91
I3087
aI13632
asI2729
(lp92
I90
asI2769
(lp93
I90
asI2772
(lp94
I90
asI3285
(lp95
I90
aI15978
asI2776
(lp96
I90
asI3293
(lp97
I90
asI2782
(lp98
I90
asI2783
(lp99
I90
asI2789
(lp100
I90
asI2278
(lp101
I2279
asI2791
(lp102
I90
asI2792
(lp103
I90
asI2793
(lp104
I90
asI2794
(lp105
I90
asI5246
(lp106
I625
asI2601
(lp107
I90
asI2808
(lp108
I90
asI2810
(lp109
I90
asI2811
(lp110
I90
asI2812
(lp111
I90
asI622
(lp112
I623
aI625
asI19157
(lp113
I3187
asI3329
(lp114
I90
asI2820
(lp115
I90
asI2823
(lp116
I90
asI2825
(lp117
I90
asI2315
(lp118
I90
asI18188
(lp119
I2875
aI4126
asI3341
(lp120
I90
asI2830
(lp121
I90
aI10134
aI10138
asI2831
(lp122
I90
asI2832
(lp123
I90
asI2833
(lp124
I90
asI2835
(lp125
I90
asI2837
(lp126
I90
asI2838
(lp127
I90
asI2846
(lp128
I90
asI2848
(lp129
I90
asI2852
(lp130
I90
asI3365
(lp131
I90
asI2854
(lp132
I90
asI2857
(lp133
I90
asI2872
(lp134
I90
asI2361
(lp135
sI2875
(lp136
I90
aI18188
asI4413
(lp137
sI2879
(lp138
I90
asI13632
(lp139
I4812
asI2884
(lp140
I90
asI2888
(lp141
I90
asI2889
(lp142
I90
asI2890
(lp143
I90
asI2379
(lp144
I90
asI2892
(lp145
I90
asI3182
(lp146
I90
asI2899
(lp147
I90
aI1696
asI2903
(lp148
I90
asI3215
(lp149
I90
asI2913
(lp150
I90
asI2914
(lp151
I90
asI2920
(lp152
I90
asI2921
(lp153
I90
asI2279
(lp154
I90
aI2278
asI2925
(lp155
I90
asI3219
(lp156
I90
asI1683
(lp157
sI2934
(lp158
I90
asI2937
(lp159
I90
aI4126
asI12156
(lp160
sI2942
(lp161
I90
asI2944
(lp162
I90
asI2945
(lp163
I90
asI2947
(lp164
I90
asI3201
(lp165
I90
asI2953
(lp166
I90
asI2955
(lp167
I90
asI2956
(lp168
I90
asI2961
(lp169
I90
asI2962
(lp170
I90
asI2964
(lp171
I90
asI10134
(lp172
I2830
asI9625
(lp173
I3073
asI2969
(lp174
I90
asI10138
(lp175
I2830
asI2971
(lp176
I90
asI2973
(lp177
I90
asI2978
(lp178
I90
asI2981
(lp179
I90
asI2982
(lp180
I90
asI2988
(lp181
I90
asI19885
(lp182
I1559
asI19886
(lp183
I1559
asI19887
(lp184
sI2992
(lp185
I90
asI2994
(lp186
I90
asI2997
(lp187
I90
asI3004
(lp188
I90
asI3006
(lp189
I90
asI3010
(lp190
I90
asI5249
(lp191
I625
asI3018
(lp192
I90
asI3026
(lp193
I90
asI3030
(lp194
I90
asI2522
(lp195
I4263
asI3322
(lp196
I90
asI3038
(lp197
I90
asI3039
(lp198
I90
asI18914
(lp199
sI3043
(lp200
I90
asI3049
(lp201
I90
asI24573
(lp202
I4126
asI1014
(lp203
I90
asI3063
(lp204
I90
asI3064
(lp205
I90
asI9213
(lp206
I1028
asI24574
(lp207
I4126
asI24575
(lp208
I4126
as.