(dp0
I14337
(lp1
sI17117
(lp2
I10746
asI10
(lp3
sI8203
(lp4
sI18445
(lp5
sI14353
(lp6
sI25983
(lp7
I6039
asI25
(lp8
sI16416
(lp9
sI22564
(lp10
sI4133
(lp11
sI6182
(lp12
I2515
asI16424
(lp13
sI4137
(lp14
sI2090
(lp15
sI45
(lp16
I985
asI6194
(lp17
I4540
asI10295
(lp18
sI18489
(lp19
sI22586
(lp20
sI20540
(lp21
sI16737
(lp22
sI73
(lp23
sI14413
(lp24
I13134
asI10936
(lp25
I7414
asI26297
(lp26
I2897
asI2134
(lp27
sI4640
(lp28
sI22618
(lp29
sI24668
(lp30
sI22303
(lp31
I4927
asI1040
(lp32
sI10339
(lp33
sI14436
(lp34
sI2406
(lp35
I15009
asI24684
(lp36
I6039
asI5138
(lp37
sI19133
(lp38
I19134
asI4214
(lp39
sI15416
(lp40
sI18552
(lp41
sI20601
(lp42
sI2172
(lp43
I10043
asI16512
(lp44
sI14699
(lp45
sI10374
(lp46
sI14476
(lp47
sI18573
(lp48
sI13371
(lp49
sI1051
(lp50
sI3847
(lp51
sI12437
(lp52
sI4246
(lp53
sI12441
(lp54
sI18560
(lp55
I9745
asI10397
(lp56
sI12446
(lp57
sI22688
(lp58
sI4257
(lp59
sI8354
(lp60
sI24739
(lp61
I624
asI20123
(lp62
sI18598
(lp63
sI3441
(lp64
sI4264
(lp65
sI4265
(lp66
sI22699
(lp67
I4891
asI9586
(lp68
I12893
asI6319
(lp69
sI18608
(lp70
I16860
asI16563
(lp71
sI6324
(lp72
sI16566
(lp73
sI20663
(lp74
sI14520
(lp75
sI14522
(lp76
sI14524
(lp77
sI15392
(lp78
sI20675
(lp79
sI6340
(lp80
I6342
asI6342
(lp81
I6340
aI20018
asI23193
(lp82
I2006
asI8394
(lp83
I19196
asI16587
(lp84
sI4301
(lp85
sI16590
(lp86
sI10449
(lp87
sI2462
(lp88
sI24791
(lp89
sI14553
(lp90
sI4314
(lp91
sI16603
(lp92
sI220
(lp93
I221
asI221
(lp94
I220
aI15402
aI15403
asI16606
(lp95
sI13349
(lp96
sI14561
(lp97
sI21883
(lp98
sI1062
(lp99
I1061
asI19716
(lp100
sI24807
(lp101
I2787
asI10472
(lp102
sI16618
(lp103
sI4818
(lp104
I11371
asI12527
(lp105
I4838
aI15622
asI16625
(lp106
sI3795
(lp107
I3797
asI244
(lp108
I11940
asI4341
(lp109
sI16630
(lp110
sI10487
(lp111
sI2296
(lp112
sI2297
(lp113
sI24826
(lp114
sI12671
(lp115
sI6397
(lp116
sI14590
(lp117
sI3797
(lp118
I3795
aI12621
aI12624
aI12626
asI24833
(lp119
sI2433
(lp120
I1464
asI25644
(lp121
sI2314
(lp122
sI8460
(lp123
sI4368
(lp124
sI10513
(lp125
sI12562
(lp126
I627
aI12561
asI2323
(lp127
sI4372
(lp128
sI4373
(lp129
sI23257
(lp130
sI4377
(lp131
sI284
(lp132
sI285
(lp133
I18260
asI12575
(lp134
sI18720
(lp135
sI5168
(lp136
sI4386
(lp137
sI20771
(lp138
I728
asI4398
(lp139
sI2351
(lp140
sI20784
(lp141
sI10546
(lp142
sI1033
(lp143
sI10549
(lp144
I1088
asI5173
(lp145
I5176
asI4416
(lp146
sI10563
(lp147
I2926
asI22852
(lp148
sI7103
(lp149
sI12618
(lp150
sI4428
(lp151
I3841
asI4921
(lp152
sI12624
(lp153
I3797
asI10577
(lp154
sI12626
(lp155
I3797
asI10582
(lp156
sI4442
(lp157
sI14683
(lp158
I2006
asI20197
(lp159
sI5399
(lp160
sI4449
(lp161
sI22882
(lp162
I2658
asI355
(lp163
sI13378
(lp164
sI20837
(lp165
sI10598
(lp166
sI18793
(lp167
sI10603
(lp168
I11423
asI6509
(lp169
sI12654
(lp170
sI21907
(lp171
sI6559
(lp172
I23073
asI12662
(lp173
sI4473
(lp174
sI379
(lp175
I12124
asI10621
(lp176
sI10623
(lp177
sI12672
(lp178
sI1088
(lp179
I1485
aI10549
asI4484
(lp180
sI10629
(lp181
sI14728
(lp182
sI18827
(lp183
sI10637
(lp184
sI10640
(lp185
sI4503
(lp186
sI410
(lp187
sI10651
(lp188
sI4509
(lp189
I12860
asI414
(lp190
sI10655
(lp191
sI10658
(lp192
sI16807
(lp193
sI16808
(lp194
sI16809
(lp195
sI2476
(lp196
sI16813
(lp197
sI16797
(lp198
sI4531
(lp199
sI5534
(lp200
sI8630
(lp201
sI4535
(lp202
sI14751
(lp203
sI4540
(lp204
I6194
asI20926
(lp205
sI10689
(lp206
sI4551
(lp207
I14545
asI20936
(lp208
sI8649
(lp209
sI18893
(lp210
sI462
(lp211
I532
asI2511
(lp212
I15032
aI15035
asI2514
(lp213
I2515
asI2515
(lp214
I2514
aI6182
aI14895
aI14906
aI14908
aI14909
aI14910
aI14911
aI14912
asI25044
(lp215
I590
asI25045
(lp216
I590
asI476
(lp217
I532
asI2525
(lp218
I2006
asI14746
(lp219
sI23009
(lp220
sI10726
(lp221
sI20561
(lp222
sI10728
(lp223
sI23018
(lp224
sI23019
(lp225
sI3672
(lp226
sI23023
(lp227
I627
asI497
(lp228
sI12792
(lp229
sI10746
(lp230
I17117
asI2557
(lp231
I19529
asI18943
(lp232
sI4245
(lp233
sI2816
(lp234
sI2564
(lp235
sI14853
(lp236
sI14854
(lp237
sI14856
(lp238
sI8715
(lp239
sI524
(lp240
I3035
aI7453
asI22957
(lp241
sI2576
(lp242
sI14866
(lp243
sI532
(lp244
I462
aI476
asI21934
(lp245
I21933
asI21016
(lp246
sI26372
(lp247
I6039
asI11354
(lp248
sI18976
(lp249
sI10785
(lp250
sI14882
(lp251
I16364
asI10788
(lp252
sI14086
(lp253
I13929
aI22472
asI14428
(lp254
sI21035
(lp255
sI10797
(lp256
sI4655
(lp257
sI10800
(lp258
sI23089
(lp259
sI564
(lp260
I13811
asI565
(lp261
I566
asI566
(lp262
I565
aI4705
asI21050
(lp263
sI14908
(lp264
I2515
asI2621
(lp265
sI14910
(lp266
I2515
asI14911
(lp267
I2515
asI14912
(lp268
I2515
asI22319
(lp269
I633
asI9995
(lp270
sI10820
(lp271
sI18870
(lp272
sI10822
(lp273
sI21064
(lp274
sI10825
(lp275
sI21066
(lp276
sI590
(lp277
I25044
aI25045
asI2641
(lp278
sI14934
(lp279
sI4695
(lp280
sI600
(lp281
I17810
asI4196
(lp282
sI12893
(lp283
I9586
asI606
(lp284
I9832
aI18551
aI20305
aI21873
asI14943
(lp285
sI4705
(lp286
I566
asI2658
(lp287
I22882
asI14947
(lp288
sI10855
(lp289
sI11708
(lp290
I1482
asI14954
(lp291
sI4715
(lp292
sI620
(lp293
I14165
aI23073
asI624
(lp294
I24739
asI17009
(lp295
sI626
(lp296
I627
asI627
(lp297
I626
aI12562
aI15283
aI23023
aI23025
asI632
(lp298
I633
asI633
(lp299
I632
aI1752
aI1772
aI19720
aI22319
aI22323
aI22331
asI21114
(lp300
sI17019
(lp301
sI10876
(lp302
sI25214
(lp303
sI19071
(lp304
sI17025
(lp305
sI4740
(lp306
sI2694
(lp307
sI14983
(lp308
sI656
(lp309
sI10899
(lp310
sI12948
(lp311
sI4758
(lp312
sI23413
(lp313
sI10905
(lp314
sI668
(lp315
I674
asI15005
(lp316
sI19102
(lp317
sI20923
(lp318
sI15009
(lp319
I2406
asI674
(lp320
I668
asI21158
(lp321
sI25673
(lp322
sI23209
(lp323
sI21162
(lp324
sI8877
(lp325
sI687
(lp326
sI19122
(lp327
sI4787
(lp328
sI23073
(lp329
I620
aI6559
asI15032
(lp330
I2511
asI15035
(lp331
I2511
asI5578
(lp332
sI19134
(lp333
I19133
asI4802
(lp334
sI2756
(lp335
sI118
(lp336
sI2758
(lp337
sI25290
(lp338
sI18551
(lp339
I606
asI2765
(lp340
sI10958
(lp341
sI19151
(lp342
sI19153
(lp343
sI19154
(lp344
sI19159
(lp345
sI19160
(lp346
sI2777
(lp347
sI10971
(lp348
sI23261
(lp349
sI21214
(lp350
sI8928
(lp351
sI2787
(lp352
I22039
aI23941
aI24807
asI23269
(lp353
sI4838
(lp354
I12527
asI10984
(lp355
sI23273
(lp356
sI4842
(lp357
sI749
(lp358
I11170
asI4851
(lp359
I4994
asI10997
(lp360
sI4854
(lp361
sI13049
(lp362
sI19195
(lp363
I19196
asI19196
(lp364
I8394
aI19195
aI23553
asI2815
(lp365
sI19200
(lp366
I3120
asI19201
(lp367
I3120
asI11012
(lp368
sI21439
(lp369
sI4874
(lp370
sI2836
(lp371
sI11030
(lp372
sI2840
(lp373
sI4891
(lp374
I22699
asI8988
(lp375
sI728
(lp376
I5177
aI15514
aI19726
aI20771
aI21998
aI23756
aI24547
aI25526
asI8990
(lp377
sI8992
(lp378
I1933
asI25379
(lp379
sI11047
(lp380
sI16860
(lp381
I18607
aI18608
asI4906
(lp382
I9941
aI15348
asI13103
(lp383
sI11742
(lp384
sI21918
(lp385
sI21303
(lp386
sI9017
(lp387
sI9019
(lp388
sI13118
(lp389
sI4927
(lp390
I22303
asI2880
(lp391
I22024
asI4931
(lp392
sI21316
(lp393
sI4936
(lp394
sI17827
(lp395
sI13134
(lp396
I14413
asI11087
(lp397
sI2896
(lp398
sI2897
(lp399
I25621
aI26297
asI11090
(lp400
sI4951
(lp401
sI4959
(lp402
sI22331
(lp403
I633
asI16529
(lp404
sI875
(lp405
I13868
asI2926
(lp406
I10563
asI7023
(lp407
sI23409
(lp408
sI23410
(lp409
sI23412
(lp410
sI4981
(lp411
sI25462
(lp412
sI25463
(lp413
sI17556
(lp414
sI11134
(lp415
sI10389
(lp416
sI4992
(lp417
sI9089
(lp418
sI4994
(lp419
I4851
asI19914
(lp420
sI9095
(lp421
sI23020
(lp422
sI906
(lp423
I908
asI908
(lp424
I906
aI15409
asI11151
(lp425
sI15252
(lp426
I18391
asI21998
(lp427
I728
aI21999
asI23015
(lp428
sI21999
(lp429
I21998
asI5021
(lp430
sI2974
(lp431
sI15265
(lp432
sI11170
(lp433
I749
asI7075
(lp434
sI23025
(lp435
I627
asI15272
(lp436
sI2986
(lp437
sI12895
(lp438
sI15283
(lp439
I627
asI5045
(lp440
I5046
asI25526
(lp441
I728
asI5047
(lp442
sI9144
(lp443
sI21435
(lp444
sI17341
(lp445
sI19390
(lp446
sI15295
(lp447
I15296
asI15296
(lp448
I15295
asI962
(lp449
sI3011
(lp450
sI15301
(lp451
sI24737
(lp452
sI19401
(lp453
sI5067
(lp454
I25849
asI7117
(lp455
sI18936
(lp456
sI11221
(lp457
sI13272
(lp458
sI985
(lp459
I45
aI11726
asI3034
(lp460
sI3035
(lp461
I524
asI15326
(lp462
sI13279
(lp463
sI5089
(lp464
sI4943
(lp465
sI5091
(lp466
I5092
asI5092
(lp467
I5091
asI11238
(lp468
I11239
asI4945
(lp469
sI15337
(lp470
sI5898
(lp471
sI3060
(lp472
sI9207
(lp473
I5234
asI3066
(lp474
sI3067
(lp475
I9766
asI23553
(lp476
I19196
asI13315
(lp477
sI15364
(lp478
sI17415
(lp479
sI17417
(lp480
sI23564
(lp481
sI3085
(lp482
sI15375
(lp483
I15376
asI15376
(lp484
I15375
asI21522
(lp485
sI25621
(lp486
I2897
asI3096
(lp487
sI3098
(lp488
sI3099
(lp489
sI25630
(lp490
I6039
asI3104
(lp491
sI15395
(lp492
sI13348
(lp493
sI1061
(lp494
I1062
asI11302
(lp495
sI13353
(lp496
sI15402
(lp497
I221
asI15403
(lp498
I221
asI13356
(lp499
sI13358
(lp500
sI3120
(lp501
I13420
aI19200
aI19201
asI15409
(lp502
I908
asI21554
(lp503
sI13364
(lp504
I2006
asI14174
(lp505
sI5176
(lp506
I5173
asI5177
(lp507
I728
asI21563
(lp508
sI11326
(lp509
sI5184
(lp510
sI5186
(lp511
sI20662
(lp512
sI1095
(lp513
sI11336
(lp514
sI21577
(lp515
sI3147
(lp516
sI13389
(lp517
sI13393
(lp518
sI5205
(lp519
sI13401
(lp520
sI5210
(lp521
sI11355
(lp522
sI13404
(lp523
sI19551
(lp524
sI19643
(lp525
sI3172
(lp526
sI18382
(lp527
I2006
asI21610
(lp528
sI11371
(lp529
I4818
asI13420
(lp530
I3120
asI5234
(lp531
I9207
aI21933
asI13427
(lp532
I13428
asI13428
(lp533
I13427
asI13435
(lp534
sI13436
(lp535
sI11495
(lp536
I11497
asI14724
(lp537
sI13445
(lp538
sI25793
(lp539
I24159
asI13448
(lp540
sI1161
(lp541
sI22039
(lp542
I2787
aI22040
asI21647
(lp543
sI9360
(lp544
sI11800
(lp545
sI5268
(lp546
sI15514
(lp547
I728
asI11422
(lp548
sI11423
(lp549
I10603
asI14906
(lp550
I2515
asI20181
(lp551
I11497
asI14534
(lp552
sI11435
(lp553
sI25776
(lp554
sI13491
(lp555
sI3253
(lp556
sI7352
(lp557
sI1908
(lp558
sI25787
(lp559
I6039
asI4298
(lp560
sI1215
(lp561
sI21933
(lp562
I5234
aI21934
aI21936
asI13505
(lp563
sI23748
(lp564
sI17607
(lp565
sI11466
(lp566
I11467
asI11467
(lp567
I11466
asI23756
(lp568
I728
asI11469
(lp569
sI15567
(lp570
sI23760
(lp571
sI11225
(lp572
sI15571
(lp573
sI15573
(lp574
sI17625
(lp575
sI25823
(lp576
sI13536
(lp577
sI11494
(lp578
sI14545
(lp579
I4551
asI9449
(lp580
sI11499
(lp581
sI23796
(lp582
sI7414
(lp583
I10936
asI25849
(lp584
I5067
asI25851
(lp585
sI11516
(lp586
sI19714
(lp587
sI14891
(lp588
sI3332
(lp589
sI5381
(lp590
sI15622
(lp591
I12527
asI19719
(lp592
sI11528
(lp593
sI13868
(lp594
I875
asI15460
(lp595
sI19725
(lp596
I19726
asI19726
(lp597
I728
aI19725
asI14893
(lp598
sI23824
(lp599
sI3345
(lp600
sI5394
(lp601
I1933
asI11540
(lp602
sI7446
(lp603
sI15577
(lp604
sI13594
(lp605
sI14895
(lp606
I2515
aI10042
asI7453
(lp607
I524
asI3358
(lp608
sI7458
(lp609
sI13604
(lp610
I22042
asI21798
(lp611
sI11560
(lp612
sI13610
(lp613
sI19760
(lp614
I14217
asI1336
(lp615
sI16266
(lp616
sI25919
(lp617
I6039
asI5344
(lp618
sI23875
(lp619
sI7492
(lp620
I24453
asI15687
(lp621
sI5179
(lp622
sI23881
(lp623
sI14025
(lp624
sI7499
(lp625
sI9550
(lp626
sI15695
(lp627
sI21936
(lp628
I21933
asI9562
(lp629
sI11611
(lp630
sI1373
(lp631
sI1376
(lp632
sI5473
(lp633
sI1379
(lp634
sI11620
(lp635
sI11622
(lp636
sI12860
(lp637
I4509
asI3435
(lp638
sI3436
(lp639
sI1390
(lp640
sI14909
(lp641
I2515
asI21873
(lp642
I606
asI3442
(lp643
sI8766
(lp644
sI11497
(lp645
I11495
aI20181
asI9593
(lp646
sI17786
(lp647
sI19007
(lp648
sI17789
(lp649
sI21887
(lp650
sI13698
(lp651
sI23941
(lp652
I2787
asI13889
(lp653
sI11656
(lp654
sI1418
(lp655
sI17803
(lp656
sI8367
(lp657
sI12525
(lp658
sI13713
(lp659
sI17810
(lp660
I600
asI323
(lp661
sI11670
(lp662
sI19012
(lp663
sI15770
(lp664
sI5532
(lp665
sI5533
(lp666
sI1438
(lp667
sI21061
(lp668
sI9633
(lp669
sI13731
(lp670
sI26020
(lp671
sI11846
(lp672
sI13734
(lp673
sI12596
(lp674
sI13736
(lp675
sI9645
(lp676
sI12869
(lp677
I17106
asI11695
(lp678
sI26032
(lp679
sI12872
(lp680
sI21939
(lp681
sI11702
(lp682
sI8777
(lp683
sI1464
(lp684
I2433
asI19900
(lp685
sI26049
(lp686
I6039
asI21957
(lp687
sI22690
(lp688
sI21961
(lp689
sI1482
(lp690
I11708
asI1485
(lp691
I1088
asI11726
(lp692
I985
asI19921
(lp693
sI14243
(lp694
sI20729
(lp695
sI13785
(lp696
sI21978
(lp697
sI3663
(lp698
sI20730
(lp699
sI7646
(lp700
sI9696
(lp701
sI20731
(lp702
sI26087
(lp703
sI3562
(lp704
sI21995
(lp705
I2006
asI11757
(lp706
sI15854
(lp707
sI20733
(lp708
sI10122
(lp709
sI16963
(lp710
sI13811
(lp711
I564
asI3581
(lp712
sI7679
(lp713
sI5636
(lp714
sI15877
(lp715
sI11235
(lp716
sI22024
(lp717
I2880
asI15885
(lp718
sI11792
(lp719
sI9745
(lp720
I18560
asI3606
(lp721
sI15895
(lp722
sI22040
(lp723
I22039
asI7705
(lp724
sI22042
(lp725
I13604
asI13350
(lp726
sI5661
(lp727
sI7710
(lp728
sI3617
(lp729
sI16268
(lp730
sI5667
(lp731
sI9766
(lp732
I3067
asI3625
(lp733
sI11820
(lp734
sI20428
(lp735
I13928
asI19720
(lp736
I633
asI20018
(lp737
I6342
asI15929
(lp738
sI3642
(lp739
sI11835
(lp740
sI9793
(lp741
I9927
asI13891
(lp742
sI5046
(lp743
I5045
asI5702
(lp744
sI22089
(lp745
I2167
asI1611
(lp746
sI1615
(lp747
I1618
aI1620
aI1624
aI1625
aI1629
asI13904
(lp748
sI1618
(lp749
I1615
asI3667
(lp750
sI1620
(lp751
I1615
asI18005
(lp752
sI11862
(lp753
sI1624
(lp754
I1615
aI18314
asI1625
(lp755
I1615
asI1629
(lp756
I1615
asI24159
(lp757
I25793
asI5392
(lp758
sI5051
(lp759
sI12561
(lp760
I12562
asI9832
(lp761
I606
asI20412
(lp762
sI25874
(lp763
sI13928
(lp764
I20428
asI13929
(lp765
I14086
asI22139
(lp766
sI17002
(lp767
sI16002
(lp768
sI26243
(lp769
sI13590
(lp770
sI11910
(lp771
sI11911
(lp772
sI9865
(lp773
sI25879
(lp774
sI19014
(lp775
sI22466
(lp776
sI11919
(lp777
sI11920
(lp778
sI7825
(lp779
sI11927
(lp780
sI20924
(lp781
sI16031
(lp782
sI18080
(lp783
sI4720
(lp784
sI5794
(lp785
sI11939
(lp786
sI11940
(lp787
I244
asI3750
(lp788
sI11943
(lp789
sI11949
(lp790
sI11952
(lp791
sI17106
(lp792
I12869
asI9913
(lp793
sI17783
(lp794
sI3019
(lp795
sI9927
(lp796
I9793
asI3784
(lp797
sI14284
(lp798
sI3788
(lp799
sI18607
(lp800
I16860
asI21453
(lp801
sI11987
(lp802
sI9941
(lp803
I4906
asI12921
(lp804
sI1752
(lp805
I633
asI7899
(lp806
sI3804
(lp807
sI4730
(lp808
sI3806
(lp809
sI19529
(lp810
I2557
asI2683
(lp811
sI19750
(lp812
sI22246
(lp813
sI22248
(lp814
sI4732
(lp815
sI16106
(lp816
sI1772
(lp817
I633
asI22253
(lp818
sI14069
(lp819
sI14075
(lp820
sI14076
(lp821
sI15267
(lp822
sI3841
(lp823
I4428
asI14082
(lp824
sI13085
(lp825
sI7942
(lp826
sI14087
(lp827
sI14088
(lp828
sI26377
(lp829
sI14090
(lp830
sI12043
(lp831
sI11906
(lp832
sI5902
(lp833
sI12047
(lp834
sI7954
(lp835
sI22295
(lp836
sI20249
(lp837
sI3867
(lp838
sI5082
(lp839
sI14111
(lp840
sI22308
(lp841
sI14118
(lp842
sI2167
(lp843
I22089
asI7983
(lp844
sI20929
(lp845
sI22323
(lp846
I633
asI3892
(lp847
sI14136
(lp848
sI7993
(lp849
sI10042
(lp850
I14895
asI10043
(lp851
I2172
asI8000
(lp852
sI14145
(lp853
sI18270
(lp854
sI10058
(lp855
sI12107
(lp856
sI20305
(lp857
I606
asI1875
(lp858
sI18260
(lp859
I285
asI14165
(lp860
I620
asI12124
(lp861
I379
asI12126
(lp862
sI8032
(lp863
sI12944
(lp864
sI14179
(lp865
sI5988
(lp866
sI11239
(lp867
I11238
asI3953
(lp868
sI17866
(lp869
I1090
asI6803
(lp870
sI3956
(lp871
sI10101
(lp872
sI1910
(lp873
sI3960
(lp874
sI10105
(lp875
sI24614
(lp876
sI18305
(lp877
I18306
asI18306
(lp878
I18305
asI24453
(lp879
I7492
asI18310
(lp880
sI6423
(lp881
sI15643
(lp882
sI14217
(lp883
I19760
asI18314
(lp884
I1624
asI1932
(lp885
I1933
asI1933
(lp886
I1932
aI5394
aI8992
asI12269
(lp887
sI22416
(lp888
sI3985
(lp889
sI14226
(lp890
sI4419
(lp891
sI24469
(lp892
sI6039
(lp893
I24684
aI25630
aI25787
aI25919
aI25983
aI26049
aI26372
asI3992
(lp894
sI10137
(lp895
sI22511
(lp896
sI22430
(lp897
sI10143
(lp898
sI17785
(lp899
sI12195
(lp900
sI8102
(lp901
sI18343
(lp902
sI15004
(lp903
sI4012
(lp904
sI16364
(lp905
I14882
asI20399
(lp906
sI15348
(lp907
I4906
asI12220
(lp908
sI22462
(lp909
sI6082
(lp910
sI8133
(lp911
sI22472
(lp912
I14086
asI18377
(lp913
sI10188
(lp914
sI4045
(lp915
sI14286
(lp916
sI12621
(lp917
I3797
asI4050
(lp918
sI2006
(lp919
I2525
aI13364
aI14683
aI18382
aI21995
aI23193
asI18391
(lp920
I15252
asI16345
(lp921
I16346
asI16346
(lp922
I16345
asI3407
(lp923
sI4062
(lp924
sI16352
(lp925
sI24547
(lp926
I728
asI1090
(lp927
I17866
asI22502
(lp928
sI4433
(lp929
sI16361
(lp930
sI4076
(lp931
sI8173
(lp932
sI16367
(lp933
sI16368
(lp934
sI22516
(lp935
sI21113
(lp936
s.