(dp0
I15344
(lp1
sI25096
(lp2
sI11
(lp3
sI13
(lp4
sI24591
(lp5
I11101
asI14356
(lp6
sI24597
(lp7
sI24599
(lp8
I19955
asI24600
(lp9
sI22555
(lp10
sI28
(lp11
sI22560
(lp12
sI24609
(lp13
sI16419
(lp14
sI2084
(lp15
I2083
asI39
(lp16
sI40
(lp17
sI41
(lp18
sI18478
(lp19
sI16437
(lp20
sI6202
(lp21
sI16445
(lp22
sI4159
(lp23
sI22592
(lp24
I9808
asI20548
(lp25
sI22597
(lp26
sI18504
(lp27
sI22541
(lp28
sI18512
(lp29
sI22610
(lp30
I18568
asI22613
(lp31
sI6236
(lp32
sI2141
(lp33
I426
asI94
(lp34
sI4191
(lp35
sI14432
(lp36
sI97
(lp37
I96
asI98
(lp38
sI16485
(lp39
sI102
(lp40
I23818
asI109
(lp41
I111
asI111
(lp42
I109
asI18545
(lp43
sI4210
(lp44
I4211
asI18547
(lp45
sI2168
(lp46
sI24704
(lp47
I24705
asI24705
(lp48
I24704
asI18568
(lp49
I22610
asI16525
(lp50
sI3437
(lp51
I10497
aI10765
aI13652
asI16528
(lp52
I10158
asI2193
(lp53
sI24725
(lp54
sI14488
(lp55
sI24729
(lp56
sI16541
(lp57
sI10398
(lp58
sI22689
(lp59
sI20642
(lp60
I1071
asI22691
(lp61
sI18596
(lp62
I18597
asI18597
(lp63
I288
aI18596
asI9585
(lp64
sI16412
(lp65
I5831
asI4466
(lp66
sI14514
(lp67
sI2228
(lp68
sI16782
(lp69
sI16572
(lp70
sI2239
(lp71
I2242
asI4128
(lp72
sI2242
(lp73
I2239
asI24773
(lp74
sI22726
(lp75
sI13345
(lp76
sI14537
(lp77
sI18634
(lp78
sI18965
(lp79
I991
asI24781
(lp80
sI6350
(lp81
sI22735
(lp82
I702
asI2083
(lp83
I2084
asI6356
(lp84
I9410
aI12923
aI15194
asI18647
(lp85
sI2264
(lp86
I18241
asI18649
(lp87
sI12507
(lp88
sI10460
(lp89
I11877
aI15458
asI3417
(lp90
sI6367
(lp91
sI226
(lp92
I19351
asI2276
(lp93
sI12518
(lp94
sI20715
(lp95
sI16622
(lp96
sI16623
(lp97
sI22568
(lp98
sI6391
(lp99
sI18132
(lp100
sI16767
(lp101
sI12541
(lp102
sI10497
(lp103
I3437
asI10499
(lp104
sI12549
(lp105
sI6409
(lp106
I14826
asI20746
(lp107
sI21549
(lp108
sI18704
(lp109
sI12563
(lp110
I12564
asI12564
(lp111
I12563
aI16733
asI16661
(lp112
I16662
asI16662
(lp113
I16661
aI25705
asI14615
(lp114
sI19503
(lp115
sI18716
(lp116
sI288
(lp117
I2548
aI18597
asI22817
(lp118
sI14626
(lp119
sI293
(lp120
sI4390
(lp121
sI14638
(lp122
sI4399
(lp123
sI20785
(lp124
sI24884
(lp125
sI24887
(lp126
sI24889
(lp127
sI11399
(lp128
I19847
asI319
(lp129
I4543
aI4547
asI24896
(lp130
sI16708
(lp131
sI16711
(lp132
I1675
asI329
(lp133
sI18763
(lp134
sI13241
(lp135
I13242
asI739
(lp136
I743
asI22869
(lp137
sI12634
(lp138
I747
aI13859
asI16733
(lp139
I12564
asI22884
(lp140
sI16745
(lp141
sI26199
(lp142
sI18796
(lp143
sI9618
(lp144
sI20846
(lp145
sI24017
(lp146
sI15763
(lp147
sI18808
(lp148
sI18810
(lp149
sI4479
(lp150
sI22912
(lp151
sI747
(lp152
I991
aI12634
aI13033
aI13052
aI16191
aI16202
aI16206
aI16222
asI12677
(lp153
sI18824
(lp154
sI12682
(lp155
sI16779
(lp156
I3037
aI6027
asI396
(lp157
I4042
asI24973
(lp158
sI4494
(lp159
sI12693
(lp160
sI14404
(lp161
sI4508
(lp162
I4510
asI4510
(lp163
I4508
asI24993
(lp164
sI12710
(lp165
sI10663
(lp166
sI18856
(lp167
sI25001
(lp168
sI426
(lp169
I1285
aI2141
aI8698
aI11586
aI11589
aI11597
aI11603
aI11666
aI12899
aI14313
aI17081
aI19020
aI22976
asI427
(lp170
I428
asI428
(lp171
I427
asI429
(lp172
I430
asI430
(lp173
I429
asI433
(lp174
sI435
(lp175
sI12729
(lp176
sI8637
(lp177
sI447
(lp178
I17452
asI22976
(lp179
I426
asI4547
(lp180
I319
asI23065
(lp181
sI19873
(lp182
sI16840
(lp183
sI12746
(lp184
sI8653
(lp185
sI14803
(lp186
sI16855
(lp187
I24100
asI12763
(lp188
sI20956
(lp189
sI12771
(lp190
I4917
asI12772
(lp191
sI12777
(lp192
sI14826
(lp193
I6409
asI2548
(lp194
I288
asI18933
(lp195
sI10742
(lp196
sI12793
(lp197
sI8698
(lp198
I426
aI1285
asI12797
(lp199
sI2559
(lp200
sI16898
(lp201
sI8709
(lp202
I599
asI22999
(lp203
sI23047
(lp204
sI18952
(lp205
sI21002
(lp206
sI18956
(lp207
sI10765
(lp208
I3437
asI4622
(lp209
sI23055
(lp210
sI8723
(lp211
sI2580
(lp212
sI16814
(lp213
sI21017
(lp214
sI12827
(lp215
sI542
(lp216
sI11013
(lp217
sI12832
(lp218
sI18981
(lp219
sI12839
(lp220
sI12843
(lp221
sI25138
(lp222
sI16819
(lp223
I3833
asI10334
(lp224
sI2617
(lp225
I11790
asI8767
(lp226
sI96
(lp227
I97
asI16962
(lp228
sI25157
(lp229
I3833
asI4678
(lp230
sI19020
(lp231
I426
asI10829
(lp232
sI19028
(lp233
sI23125
(lp234
sI598
(lp235
I599
asI599
(lp236
I598
aI8709
asI8794
(lp237
I9768
aI11816
asI2653
(lp238
sI21605
(lp239
sI12896
(lp240
sI12899
(lp241
I426
asI16997
(lp242
sI12902
(lp243
sI19048
(lp244
I19049
asI14953
(lp245
sI25197
(lp246
I10890
asI12733
(lp247
sI2672
(lp248
sI629
(lp249
I18039
asI23158
(lp250
sI25705
(lp251
I16662
asI19934
(lp252
sI4543
(lp253
I319
asI14976
(lp254
sI21121
(lp255
sI14978
(lp256
sI25220
(lp257
sI21126
(lp258
sI25223
(lp259
sI21128
(lp260
sI10890
(lp261
I25197
asI10894
(lp262
sI19089
(lp263
sI25234
(lp264
sI8851
(lp265
sI21140
(lp266
sI12950
(lp267
sI19095
(lp268
sI24777
(lp269
sI8860
(lp270
sI25973
(lp271
sI671
(lp272
I13695
asI25712
(lp273
I3833
asI8870
(lp274
sI19049
(lp275
I19048
asI4780
(lp276
I3375
asI4211
(lp277
I4210
asI19125
(lp278
sI2744
(lp279
I3833
asI17081
(lp280
I426
asI10938
(lp281
sI12987
(lp282
sI4796
(lp283
sI21181
(lp284
sI702
(lp285
I5798
aI15886
aI22735
asI8895
(lp286
I4042
asI10946
(lp287
sI17867
(lp288
sI12996
(lp289
sI12997
(lp290
sI17099
(lp291
sI10956
(lp292
sI15053
(lp293
sI17102
(lp294
I17101
asI23247
(lp295
sI10963
(lp296
sI729
(lp297
sI23259
(lp298
sI4830
(lp299
sI13024
(lp300
sI21218
(lp301
sI17123
(lp302
sI743
(lp303
I739
asI13033
(lp304
I747
asI10987
(lp305
sI19181
(lp306
sI21232
(lp307
sI753
(lp308
sI21235
(lp309
sI4852
(lp310
I11376
aI11377
asI13052
(lp311
I747
asI11009
(lp312
sI8962
(lp313
sI13061
(lp314
sI8968
(lp315
I22427
asI11017
(lp316
sI19210
(lp317
sI18903
(lp318
sI11021
(lp319
I3375
asI11028
(lp320
sI26145
(lp321
I10116
asI25368
(lp322
sI17177
(lp323
sI2845
(lp324
I20300
aI23841
asI25374
(lp325
sI19231
(lp326
sI2523
(lp327
sI19239
(lp328
sI23337
(lp329
sI11050
(lp330
sI23339
(lp331
I9344
asI21293
(lp332
sI816
(lp333
sI13106
(lp334
sI4917
(lp335
I12771
aI17980
asI15161
(lp336
sI18372
(lp337
sI4929
(lp338
sI21643
(lp339
sI1164
(lp340
I1165
asI13131
(lp341
sI19280
(lp342
I2963
asI15189
(lp343
sI19290
(lp344
sI11101
(lp345
I24591
asI4963
(lp346
sI9060
(lp347
sI869
(lp348
I868
aI9778
asI15208
(lp349
sI2922
(lp350
sI25455
(lp351
sI15507
(lp352
sI885
(lp353
sI11128
(lp354
sI25671
(lp355
sI21948
(lp356
sI20289
(lp357
I19847
asI5001
(lp358
sI13194
(lp359
sI26149
(lp360
I10116
asI11790
(lp361
I2617
asI911
(lp362
sI16536
(lp363
sI2963
(lp364
I19280
asI13204
(lp365
sI23446
(lp366
sI19351
(lp367
I226
asI924
(lp368
sI925
(lp369
sI23454
(lp370
sI13215
(lp371
sI23466
(lp372
sI23470
(lp373
sI15279
(lp374
sI15280
(lp375
sI14152
(lp376
sI2998
(lp377
sI15287
(lp378
I15286
asI25529
(lp379
sI25530
(lp380
sI25532
(lp381
sI5962
(lp382
sI25534
(lp383
sI23487
(lp384
sI25536
(lp385
sI25537
(lp386
sI25538
(lp387
sI965
(lp388
sI21449
(lp389
sI3020
(lp390
sI15990
(lp391
sI17360
(lp392
sI977
(lp393
I979
asI9170
(lp394
I9171
asI979
(lp395
I977
asI10745
(lp396
sI25561
(lp397
I3375
asI19418
(lp398
sI3037
(lp399
I16779
aI18046
asI9171
(lp400
I9170
aI22519
asI991
(lp401
I747
aI18965
asI25569
(lp402
sI15332
(lp403
sI23526
(lp404
sI13290
(lp405
sI16551
(lp406
sI3052
(lp407
sI1006
(lp408
I19619
asI18378
(lp409
sI21489
(lp410
sI25587
(lp411
sI25588
(lp412
sI19374
(lp413
I10116
asI21496
(lp414
sI25595
(lp415
sI25770
(lp416
sI19455
(lp417
sI19458
(lp418
sI12923
(lp419
I6356
asI19463
(lp420
sI20653
(lp421
sI23570
(lp422
sI9244
(lp423
sI15194
(lp424
I6356
asI1054
(lp425
sI3105
(lp426
sI9740
(lp427
sI5162
(lp428
sI18951
(lp429
sI19500
(lp430
I22036
aI22037
asI25645
(lp431
sI1071
(lp432
I20642
asI9265
(lp433
sI19506
(lp434
sI15411
(lp435
sI9268
(lp436
sI9269
(lp437
sI19511
(lp438
sI19512
(lp439
sI19636
(lp440
I23059
asI9287
(lp441
sI9288
(lp442
sI9289
(lp443
sI1100
(lp444
sI19534
(lp445
sI3156
(lp446
sI15445
(lp447
sI21590
(lp448
sI868
(lp449
I869
asI22373
(lp450
sI9314
(lp451
sI15461
(lp452
I3489
asI1674
(lp453
sI18620
(lp454
sI13423
(lp455
sI11376
(lp456
I4852
aI11377
asI4968
(lp457
I19046
asI23059
(lp458
I19636
asI11386
(lp459
sI3605
(lp460
sI9344
(lp461
I23339
asI9348
(lp462
sI18625
(lp463
sI11400
(lp464
I10116
asI9355
(lp465
sI7308
(lp466
sI1165
(lp467
I1164
asI15504
(lp468
sI25747
(lp469
sI10777
(lp470
sI19610
(lp471
sI15518
(lp472
sI15519
(lp473
sI17570
(lp474
sI19619
(lp475
I1006
asI5287
(lp476
sI14156
(lp477
sI23721
(lp478
sI19626
(lp479
sI17581
(lp480
sI25780
(lp481
sI25781
(lp482
sI20059
(lp483
sI21688
(lp484
sI15547
(lp485
sI15549
(lp486
sI15551
(lp487
sI544
(lp488
sI3266
(lp489
sI15556
(lp490
sI10338
(lp491
sI17953
(lp492
sI18317
(lp493
sI22818
(lp494
sI23841
(lp495
I2845
asI15569
(lp496
sI21715
(lp497
sI17620
(lp498
sI21718
(lp499
sI23768
(lp500
sI14885
(lp501
sI16886
(lp502
sI15596
(lp503
sI13549
(lp504
sI19694
(lp505
sI17647
(lp506
sI15600
(lp507
sI9768
(lp508
I8794
asI23794
(lp509
I3833
asI21747
(lp510
sI13559
(lp511
sI19705
(lp512
I3489
asI15613
(lp513
sI23807
(lp514
sI15618
(lp515
sI2603
(lp516
I3833
asI1284
(lp517
I1285
asI1285
(lp518
I426
aI1284
aI4032
aI8698
aI11586
aI11589
aI11595
aI11596
aI11597
aI11599
aI11603
asI16546
(lp519
sI9482
(lp520
sI1295
(lp521
sI21776
(lp522
sI15633
(lp523
sI21783
(lp524
sI7449
(lp525
I13996
asI23835
(lp526
sI21790
(lp527
sI3361
(lp528
sI18651
(lp529
I9525
asI19748
(lp530
sI25897
(lp531
sI3370
(lp532
sI18585
(lp533
I10116
asI25900
(lp534
sI13874
(lp535
sI3375
(lp536
I4780
aI11021
aI25561
asI16411
(lp537
sI9525
(lp538
I18651
asI3383
(lp539
I6106
asI23867
(lp540
sI5441
(lp541
sI11586
(lp542
I426
aI1285
asI19780
(lp543
sI11589
(lp544
I426
aI1285
aI9808
asI3399
(lp545
I3400
asI3400
(lp546
I3399
asI11595
(lp547
I1285
asI11596
(lp548
I1285
asI9549
(lp549
sI11599
(lp550
I1285
asI3408
(lp551
sI13649
(lp552
sI11603
(lp553
I426
aI1285
asI13652
(lp554
I3437
asI15701
(lp555
sI11093
(lp556
sI15703
(lp557
sI17752
(lp558
sI23897
(lp559
sI25947
(lp560
sI15458
(lp561
I10460
asI3430
(lp562
sI21864
(lp563
sI23913
(lp564
sI25962
(lp565
I21992
asI1389
(lp566
sI11633
(lp567
sI11634
(lp568
sI23923
(lp569
sI3445
(lp570
sI13686
(lp571
sI13691
(lp572
sI13695
(lp573
I671
asI3456
(lp574
sI25985
(lp575
sI21893
(lp576
sI19847
(lp577
I10116
aI11399
aI20289
asI9610
(lp578
sI18460
(lp579
sI9615
(lp580
I4042
asI17808
(lp581
I3833
asI11666
(lp582
I426
asI3475
(lp583
sI26011
(lp584
I10116
asI3488
(lp585
I3489
asI3489
(lp586
I3488
aI15461
aI19705
asI17829
(lp587
sI11686
(lp588
sI9640
(lp589
sI11693
(lp590
sI17838
(lp591
sI13213
(lp592
sI19888
(lp593
sI9651
(lp594
sI13756
(lp595
I13757
asI3516
(lp596
sI13757
(lp597
I13756
asI26046
(lp598
sI9664
(lp599
sI24009
(lp600
sI24011
(lp601
sI26063
(lp602
sI3537
(lp603
sI17874
(lp604
sI16291
(lp605
sI9685
(lp606
sI19926
(lp607
sI4345
(lp608
sI11737
(lp609
sI26074
(lp610
sI9691
(lp611
sI17884
(lp612
sI17885
(lp613
I19954
asI17886
(lp614
sI17888
(lp615
sI9808
(lp616
I11589
aI22592
asI17890
(lp617
sI26085
(lp618
sI11750
(lp619
I11751
aI11753
asI11751
(lp620
I11750
asI21992
(lp621
I25962
aI26290
asI11753
(lp622
I11750
asI5611
(lp623
sI24044
(lp624
sI19954
(lp625
I17885
aI19955
asI19955
(lp626
I19954
aI24599
asI12735
(lp627
sI13818
(lp628
sI15804
(lp629
sI13226
(lp630
sI9729
(lp631
sI392
(lp632
sI13827
(lp633
sI6401
(lp634
sI13833
(lp635
sI15883
(lp636
sI24076
(lp637
sI15886
(lp638
I702
asI3599
(lp639
sI13840
(lp640
sI26200
(lp641
I3833
asI22036
(lp642
I19500
asI22037
(lp643
I19500
asI17944
(lp644
sI23471
(lp645
sI26143
(lp646
I10116
asI26144
(lp647
I10116
asI11809
(lp648
sI17101
(lp649
I17102
asI13859
(lp650
I12634
asI24100
(lp651
I16855
asI21602
(lp652
sI24103
(lp653
sI11816
(lp654
I8794
asI17962
(lp655
sI13869
(lp656
sI24112
(lp657
sI24113
(lp658
sI9778
(lp659
I869
asI13876
(lp660
sI24121
(lp661
sI17980
(lp662
I4917
asI23818
(lp663
I102
asI26174
(lp664
sI1601
(lp665
sI24130
(lp666
sI9737
(lp667
sI15286
(lp668
I15287
asI15602
(lp669
sI24139
(lp670
sI15949
(lp671
sI26190
(lp672
sI26191
(lp673
sI22490
(lp674
sI24151
(lp675
sI24152
(lp676
sI5722
(lp677
sI5723
(lp678
I953
asI13242
(lp679
I13241
asI11877
(lp680
I10460
asI12560
(lp681
sI26212
(lp682
sI19046
(lp683
I4968
asI24166
(lp684
sI3687
(lp685
sI24173
(lp686
sI3694
(lp687
sI24175
(lp688
sI13936
(lp689
sI3697
(lp690
I9986
asI25901
(lp691
sI1654
(lp692
sI18039
(lp693
I629
asI22141
(lp694
sI18046
(lp695
I3037
asI20099
(lp696
sI1672
(lp697
sI3721
(lp698
sI3722
(lp699
sI1675
(lp700
I16711
asI1676
(lp701
sI1678
(lp702
sI26221
(lp703
sI13971
(lp704
sI1686
(lp705
sI23833
(lp706
I3812
asI21097
(lp707
I10116
asI13977
(lp708
sI13980
(lp709
sI22174
(lp710
sI5798
(lp711
I702
asI11377
(lp712
I4852
aI11376
asI16668
(lp713
sI3755
(lp714
sI13996
(lp715
I7449
asI13997
(lp716
sI18097
(lp717
sI26290
(lp718
I21992
asI26291
(lp719
sI23838
(lp720
sI16057
(lp721
sI14010
(lp722
sI24251
(lp723
sI20426
(lp724
sI5829
(lp725
sI5831
(lp726
I16412
asI22494
(lp727
sI5837
(lp728
sI9878
(lp729
sI11555
(lp730
sI9940
(lp731
sI16334
(lp732
sI18138
(lp733
sI9949
(lp734
sI25211
(lp735
I3833
asI3812
(lp736
I23833
asI9959
(lp737
sI26344
(lp738
I3833
asI9879
(lp739
sI26237
(lp740
sI9971
(lp741
sI3831
(lp742
sI3833
(lp743
I2603
aI2744
aI3886
aI9999
aI16819
aI17808
aI23794
aI25157
aI25211
aI25712
aI26200
aI26344
aI26384
asI13528
(lp744
sI25898
(lp745
sI9985
(lp746
sI9986
(lp747
I3697
asI9996
(lp748
sI9999
(lp749
I3833
asI26384
(lp750
I3833
asI3862
(lp751
I3869
asI21124
(lp752
sI10010
(lp753
sI3869
(lp754
I3862
asI16164
(lp755
sI3877
(lp756
sI18216
(lp757
sI14121
(lp758
sI18219
(lp759
sI21589
(lp760
sI3886
(lp761
I3833
asI3887
(lp762
sI16177
(lp763
sI12083
(lp764
sI5940
(lp765
sI5941
(lp766
sI5945
(lp767
sI24543
(lp768
sI24380
(lp769
sI25226
(lp770
sI16191
(lp771
I747
asI18241
(lp772
I2264
asI4615
(lp773
sI18247
(lp774
sI18248
(lp775
sI5961
(lp776
sI16202
(lp777
I747
asI20300
(lp778
I2845
asI16206
(lp779
I747
asI17452
(lp780
I447
asI18258
(lp781
sI14164
(lp782
sI17038
(lp783
sI25572
(lp784
sI16222
(lp785
I747
asI4069
(lp786
sI1893
(lp787
I10200
asI12134
(lp788
sI24423
(lp789
sI22377
(lp790
sI3946
(lp791
sI20332
(lp792
sI18299
(lp793
sI22397
(lp794
sI24451
(lp795
sI10116
(lp796
I11400
aI18585
aI19374
aI19847
aI21097
aI26011
aI26143
aI26144
aI26145
aI26149
asI23190
(lp797
sI9196
(lp798
sI6027
(lp799
I16779
asI18316
(lp800
sI15682
(lp801
sI24463
(lp802
sI21546
(lp803
sI15342
(lp804
sI20374
(lp805
sI18073
(lp806
sI22427
(lp807
I8968
asI18332
(lp808
sI24479
(lp809
sI24480
(lp810
sI18337
(lp811
sI18339
(lp812
sI14248
(lp813
sI14249
(lp814
sI10158
(lp815
I16528
asI4016
(lp816
sI24498
(lp817
sI24563
(lp818
sI18361
(lp819
sI4032
(lp820
I1285
asI16324
(lp821
sI14278
(lp822
sI22473
(lp823
sI4042
(lp824
I396
aI8895
aI9615
asI22519
(lp825
I9171
asI10190
(lp826
sI11597
(lp827
I426
aI1285
asI953
(lp828
I5723
asI24531
(lp829
sI20436
(lp830
sI24535
(lp831
sI10200
(lp832
I1893
asI6106
(lp833
I3383
asI16350
(lp834
sI2015
(lp835
I2021
asI5115
(lp836
sI2021
(lp837
I2015
asI9410
(lp838
I6356
asI14313
(lp839
I426
asI18410
(lp840
sI2027
(lp841
sI4079
(lp842
sI10224
(lp843
sI24562
(lp844
sI6131
(lp845
sI13993
(lp846
sI12684
(lp847
sI24572
(lp848
sI2045
(lp849
s.