(dp0
I24588
(lp1
I855
aI856
asI24589
(lp2
I856
asI20824
(lp3
sI21167
(lp4
I15611
asI10268
(lp5
I43
aI2534
asI16421
(lp6
sI2088
(lp7
I2089
aI2091
asI2089
(lp8
I2088
aI18879
aI20759
aI21694
asI18474
(lp9
I4277
asI43
(lp10
I119
aI242
aI255
aI334
aI342
aI361
aI568
aI636
aI655
aI807
aI821
aI958
aI999
aI1080
aI1192
aI1199
aI1210
aI1226
aI1289
aI1349
aI1354
aI2091
aI2139
aI2317
aI2322
aI2336
aI2370
aI2404
aI2534
aI2575
aI2604
aI2634
aI2697
aI2723
aI2730
aI2779
aI2849
aI2941
aI3047
aI3071
aI3486
aI3565
aI3883
aI4037
aI4277
aI4288
aI4417
aI4446
aI4794
aI4850
aI4886
aI4970
aI5202
aI5257
aI6418
aI7014
aI7072
aI7086
aI9121
aI10149
aI10151
aI10161
aI10175
aI10183
aI10236
aI10268
aI10406
aI10456
aI10496
aI10536
aI10647
asI18490
(lp11
I15769
asI2109
(lp12
sI8261
(lp13
sI16739
(lp14
sI2139
(lp15
I43
aI1080
aI9121
asI4195
(lp16
sI22637
(lp17
I1192
asI8306
(lp18
sI14451
(lp19
sI119
(lp20
I43
aI842
aI2728
aI15788
asI8313
(lp21
I2634
asI25963
(lp22
I842
aI15865
asI20624
(lp23
I807
asI20632
(lp24
I807
asI18587
(lp25
I958
aI25391
asI24603
(lp26
sI10406
(lp27
I43
aI842
asI22556
(lp28
I361
asI2219
(lp29
I361
asI8364
(lp30
I1354
aI4744
asI1394
(lp31
I842
asI25579
(lp32
I1440
asI16560
(lp33
I489
aI17017
asI2227
(lp34
I255
aI14843
aI17818
asI4277
(lp35
I43
aI842
aI2322
aI18474
asI4279
(lp36
I405
aI2322
asI4281
(lp37
I2322
asI2235
(lp38
sI4285
(lp39
I2322
asI16574
(lp40
I10175
asI12661
(lp41
I855
asI4288
(lp42
I43
aI2322
asI8385
(lp43
I1226
aI6977
asI4299
(lp44
I1535
asI3448
(lp45
I3499
aI3507
aI3509
aI3510
asI22740
(lp46
I842
asI2766
(lp47
I3825
asI10456
(lp48
I43
aI999
aI20867
asI16602
(lp49
sI14559
(lp50
I999
asI20706
(lp51
sI24814
(lp52
I842
aI15605
asI242
(lp53
I43
aI255
aI334
aI489
asI6398
(lp54
sI255
(lp55
I43
aI242
aI261
aI342
aI405
aI461
aI505
aI807
aI842
aI872
aI1226
aI2010
aI2227
aI2317
aI2322
aI2336
aI2375
aI2404
aI2575
aI3486
aI6418
aI7050
aI7726
aI9121
aI10236
aI10496
aI13053
aI14123
aI15160
aI18401
aI18988
aI18991
aI18994
aI18997
aI19004
asI10496
(lp56
I43
aI255
aI479
asI2091
(lp57
I43
aI2088
asI261
(lp58
I255
asI16646
(lp59
I2583
asI2317
(lp60
I43
aI255
aI489
aI505
aI9909
aI9910
aI9917
aI9920
asI6418
(lp61
I43
aI255
aI9782
aI15960
aI19611
asI20759
(lp62
I2089
asI2336
(lp63
I43
aI255
asI2779
(lp64
I43
aI15769
asI2341
(lp65
sI10536
(lp66
I43
asI2533
(lp67
I2534
asI6452
(lp68
I2375
aI18922
aI25628
asI6453
(lp69
I870
asI6454
(lp70
I870
asI2366
(lp71
sI2367
(lp72
I958
asI4417
(lp73
I43
asI2370
(lp74
I43
asI2375
(lp75
I255
aI489
aI505
aI1469
aI2593
aI2985
aI3047
aI4850
aI5952
aI6452
aI15132
aI16086
aI18833
aI23195
asI4427
(lp76
sI8524
(lp77
I334
asI334
(lp78
I43
aI242
aI380
aI405
aI489
aI505
aI842
aI958
aI1210
aI1226
aI1469
aI2010
aI2404
aI2609
aI4710
aI5007
aI5364
aI8038
aI8524
aI9121
aI11488
aI11784
aI14195
aI15091
aI15160
aI15247
aI15339
aI15691
aI17165
aI17718
aI17778
aI18988
aI21106
aI21107
aI23601
aI23790
aI25975
asI342
(lp79
I43
aI255
aI958
aI1946
aI5364
aI11999
aI17778
aI23525
asI2392
(lp80
sI11059
(lp81
I1460
asI16730
(lp82
I819
asI4446
(lp83
I43
aI4451
aI4454
aI4457
aI4459
aI4464
asI4451
(lp84
I4446
asI2404
(lp85
I43
aI255
aI334
aI489
aI15253
aI15254
aI15261
asI4454
(lp86
I4446
asI4457
(lp87
I4446
asI12650
(lp88
I855
asI4459
(lp89
I4446
asI12652
(lp90
I15605
asI4464
(lp91
I4446
asI16756
(lp92
I718
asI16757
(lp93
I718
asI16760
(lp94
I718
asI16762
(lp95
I718
asI380
(lp96
I334
asI20867
(lp97
I10456
asI14735
(lp98
sI18833
(lp99
I2375
asI404
(lp100
I405
asI405
(lp101
I255
aI334
aI404
aI489
aI505
aI870
aI872
aI3269
aI3883
aI4279
aI10020
aI22062
aI25639
aI26390
aI26391
asI1991
(lp102
sI10647
(lp103
I43
asI16798
(lp104
I13255
aI15783
asI24999
(lp105
I1289
asI25000
(lp106
I1995
asI2474
(lp107
I1310
aI4953
aI10935
aI11456
aI24487
aI24489
asI18879
(lp108
I2089
asI18882
(lp109
sI461
(lp110
I255
aI478
aI842
asI22993
(lp111
I1995
aI25210
asI2519
(lp112
I805
aI1462
aI10935
asI8669
(lp113
I502
asI478
(lp114
I461
asI479
(lp115
I10496
asI15769
(lp116
I872
aI2779
aI18490
aI25654
asI18913
(lp117
I842
asI482
(lp118
I489
asI4581
(lp119
sI2534
(lp120
I43
aI2533
aI2730
aI10268
aI26325
asI4583
(lp121
sI489
(lp122
I242
aI334
aI405
aI482
aI491
aI502
aI842
aI2317
aI2322
aI2375
aI2404
aI3486
aI4886
aI4930
aI5952
aI13459
aI16560
aI17043
asI18922
(lp123
I2886
aI6452
aI17513
asI491
(lp124
I489
asI494
(lp125
I15930
asI502
(lp126
I489
aI8669
asI505
(lp127
I255
aI334
aI405
aI655
aI807
aI842
aI1210
aI1226
aI2317
aI2322
aI2375
aI12217
asI14843
(lp128
I2227
asI17834
(lp129
I636
asI3499
(lp130
I3448
asI25097
(lp131
I1019
asI2571
(lp132
I1469
aI18283
asI2575
(lp133
I43
aI255
aI11207
aI11208
asI23299
(lp134
I8725
asI8725
(lp135
I23299
asI2583
(lp136
I3825
aI16646
asI23068
(lp137
sI2593
(lp138
I2375
asI549
(lp139
sI8747
(lp140
I807
asI2604
(lp141
I43
aI636
asI18991
(lp142
I255
asI2609
(lp143
I334
asI18994
(lp144
I255
asI18997
(lp145
I255
asI567
(lp146
I568
asI568
(lp147
I43
aI567
aI12975
aI15084
aI15086
aI15088
aI15091
aI15093
asI19004
(lp148
I255
asI778
(lp149
sI3510
(lp150
I3448
asI8774
(lp151
I655
aI872
aI2010
aI10236
asI2634
(lp152
I43
aI4886
aI8313
asI14933
(lp153
I1995
aI3523
asI361
(lp154
I43
aI2219
aI21062
aI22556
asI4710
(lp155
I334
asI21106
(lp156
I334
asI21107
(lp157
I334
asI17017
(lp158
I16560
asI25210
(lp159
I22993
asI20927
(lp160
I4782
asI636
(lp161
I43
aI2604
aI17834
aI17835
asI13761
(lp162
sI4744
(lp163
I855
aI1210
aI1432
aI1450
aI8364
aI16298
aI21145
asI649
(lp164
I650
aI651
aI654
aI655
asI650
(lp165
I649
asI651
(lp166
I649
asI654
(lp167
I649
asI655
(lp168
I43
aI505
aI649
aI842
aI8774
aI20060
aI20061
asI17043
(lp169
I489
asI2708
(lp170
I842
asI21145
(lp171
I4744
asI23195
(lp172
I2375
asI15010
(lp173
I842
asI2723
(lp174
I43
aI842
asI2728
(lp175
I119
aI3825
asI2730
(lp176
I43
aI2534
aI9130
aI17508
asI4782
(lp177
I1462
aI20927
asI12975
(lp178
I568
asI15024
(lp179
sI25268
(lp180
I15611
asI10935
(lp181
I2474
aI2519
asI4794
(lp182
I43
aI2871
asI717
(lp183
I718
asI718
(lp184
I717
aI1249
aI16756
aI16757
aI16760
aI16762
aI18059
asI21203
(lp185
sI4820
(lp186
I842
aI13934
aI21754
aI21925
aI24096
aI25650
asI4827
(lp187
I1469
asI805
(lp188
I803
aI2519
aI26009
asI15084
(lp189
I568
asI15086
(lp190
I568
aI15611
asI15088
(lp191
I568
asI4850
(lp192
I43
aI2375
asI15091
(lp193
I334
aI568
asI15093
(lp194
I568
asI13255
(lp195
I9910
aI9920
aI13254
aI16798
asI13053
(lp196
I255
asI3883
(lp197
I43
aI405
asI11018
(lp198
sI17163
(lp199
I3269
asI17165
(lp200
I334
aI3269
asI4886
(lp201
I43
aI489
aI2634
asI23319
(lp202
I1995
asI15132
(lp203
I2375
asI26009
(lp204
I805
asI2849
(lp205
I43
asI803
(lp206
I804
aI805
aI807
aI809
asI804
(lp207
I803
asI4901
(lp208
I842
aI3565
asI807
(lp209
I43
aI255
aI505
aI803
aI958
aI8747
aI20624
aI20632
asI809
(lp210
I803
aI1995
asI25386
(lp211
I17508
asI9005
(lp212
I842
asI11054
(lp213
I1019
asI25391
(lp214
I18587
asI818
(lp215
I819
asI819
(lp216
I818
aI842
aI5645
aI16730
asI11060
(lp217
I1460
asI821
(lp218
I43
asI2871
(lp219
I3047
aI4794
asI15160
(lp220
I255
aI334
asI9024
(lp221
sI6977
(lp222
I8385
asI4930
(lp223
I489
asI11076
(lp224
I842
asI11077
(lp225
sI2886
(lp226
I3299
aI18922
asI11079
(lp227
I842
asI11081
(lp228
I855
asI842
(lp229
I119
aI255
aI334
aI461
aI489
aI505
aI655
aI819
aI855
aI872
aI874
aI1210
aI1226
aI1349
aI1354
aI1394
aI1402
aI1413
aI1419
aI1456
aI1460
aI1473
aI1995
aI2597
aI2708
aI2723
aI2985
aI3565
aI3882
aI4277
aI4820
aI4901
aI7014
aI9005
aI10149
aI10161
aI10236
aI10406
aI11076
aI11079
aI15010
aI18913
aI19844
aI21499
aI22061
aI22740
aI24814
aI25654
aI25939
aI25963
aI26073
aI26390
asI9038
(lp230
I958
aI22099
asI4944
(lp231
sI854
(lp232
I855
aI856
asI855
(lp233
I842
aI854
aI1354
aI1555
aI4744
aI11081
aI12650
aI12661
aI15605
aI18036
aI24588
asI856
(lp234
I854
aI1183
aI1210
aI1437
aI1916
aI5079
aI18116
aI24588
aI24589
asI4953
(lp235
I2474
asI17247
(lp236
I14123
asI15202
(lp237
sI7012
(lp238
I1469
asI870
(lp239
I405
aI6453
aI6454
asI871
(lp240
I872
asI872
(lp241
I255
aI405
aI842
aI871
aI958
aI3269
aI8774
aI11520
aI15769
asI874
(lp242
I842
asI2941
(lp243
I43
aI22062
asI18988
(lp244
I255
aI334
asI15240
(lp245
sI7050
(lp246
I255
asI5006
(lp247
I5007
asI15247
(lp248
I334
asI15253
(lp249
I2404
aI5257
asI15254
(lp250
I2404
asI15261
(lp251
I2404
asI7072
(lp252
I43
asI9121
(lp253
I43
aI255
aI334
aI2139
asI2985
(lp254
I842
aI2375
asI9130
(lp255
I2730
aI5257
asI7086
(lp256
I43
asI9142
(lp257
I25628
asI958
(lp258
I43
aI334
aI342
aI807
aI872
aI1226
aI2367
aI9038
aI18587
asI13254
(lp259
I1289
aI13255
asI11207
(lp260
I2575
asI11208
(lp261
I2575
asI25550
(lp262
I1935
asI11220
(lp263
I11222
asI11222
(lp264
I11220
asI5079
(lp265
I856
asI23525
(lp266
I342
asI999
(lp267
I43
aI997
aI1413
aI10456
aI12062
aI14549
aI14552
aI14554
aI14559
asI5096
(lp268
I3299
aI17474
asI5097
(lp269
I3299
asI15339
(lp270
I334
asI5100
(lp271
I3299
asI5101
(lp272
I3299
asI11432
(lp273
sI1016
(lp274
I1018
aI1019
asI1018
(lp275
I1016
asI1019
(lp276
I1016
aI1344
aI1363
aI1433
aI5319
aI11054
aI11849
aI25097
asI3071
(lp277
I43
aI14195
asI21925
(lp278
I4820
asI19473
(lp279
I5257
asI25628
(lp280
I3233
aI6452
aI9142
asI3103
(lp281
sI1056
(lp282
sI25639
(lp283
I405
asI25642
(lp284
sI23601
(lp285
I334
asI25650
(lp286
I4820
asI25654
(lp287
I842
aI15769
asI1079
(lp288
I1080
asI1080
(lp289
I43
aI1079
aI2139
asI17474
(lp290
I5096
asI8375
(lp291
sI5202
(lp292
I43
asI17508
(lp293
I2730
aI25386
asI7014
(lp294
I43
aI842
asI17513
(lp295
I18922
asI9747
(lp296
I5257
asI4970
(lp297
I43
asI18283
(lp298
I1469
aI2571
asI5257
(lp299
I43
aI9130
aI9747
aI15253
aI19473
aI22501
aI23790
aI23791
asI15506
(lp300
sI13459
(lp301
I489
asI18286
(lp302
I1469
asI21654
(lp303
I1226
asI19611
(lp304
I6418
asI25756
(lp305
I1456
asI2085
(lp306
sI1183
(lp307
I856
asI3233
(lp308
I25628
asI1192
(lp309
I43
aI22637
aI24528
asI1199
(lp310
I43
asI15540
(lp311
sI17589
(lp312
I1289
asI1210
(lp313
I43
aI334
aI505
aI842
aI856
aI4744
aI16127
aI16134
asI21693
(lp314
I1289
asI21694
(lp315
I2089
asI11456
(lp316
I2019
aI2369
aI2474
asI1217
(lp317
I1218
asI1218
(lp318
I1217
asI3269
(lp319
I405
aI872
aI17163
aI17165
asI5319
(lp320
I1019
asI1225
(lp321
I1226
asI1226
(lp322
I43
aI255
aI334
aI505
aI842
aI958
aI1225
aI1440
aI1462
aI8385
aI21654
asI11473
(lp323
sI5335
(lp324
I1289
asI17626
(lp325
sI2597
(lp326
I842
asI11488
(lp327
I334
asI1249
(lp328
I718
asI3299
(lp329
I2886
aI5096
aI5097
aI5099
aI5100
aI5101
asI23790
(lp330
I334
aI5257
asI23791
(lp331
I5257
asI9456
(lp332
sI5364
(lp333
I334
aI342
asI15605
(lp334
I855
aI1555
aI12652
aI24446
aI24814
aI26209
asI19703
(lp335
I10020
asI21754
(lp336
I4820
asI15611
(lp337
I15086
aI21167
aI25268
asI14549
(lp338
I999
asI11520
(lp339
I872
aI11950
asI1288
(lp340
I1289
asI1289
(lp341
I43
aI1288
aI5335
aI13254
aI17589
aI21693
aI24999
asI14552
(lp342
I999
asI11538
(lp343
I1387
asI22062
(lp344
I405
aI2941
asI14554
(lp345
I999
asI1310
(lp346
I2474
asI13603
(lp347
sI7463
(lp348
I1387
aI1535
asI1328
(lp349
sI17718
(lp350
I334
aI18296
asI25914
(lp351
I3486
asI1342
(lp352
I1354
asI1344
(lp353
I1019
asI1349
(lp354
I43
aI842
asI1354
(lp355
I43
aI842
aI855
aI1342
aI1909
aI8364
aI16298
asI15691
(lp356
I334
asI1356
(lp357
sI25938
(lp358
I3565
asI1363
(lp359
I1019
asI1364
(lp360
I1462
asI5007
(lp361
I334
aI5006
asI1387
(lp362
I1413
aI7463
aI11538
asI1391
(lp363
sI17776
(lp364
sI17778
(lp365
I334
aI342
asI25975
(lp366
I334
asI1400
(lp367
I1456
asI1402
(lp368
I842
asI19844
(lp369
I842
asI1413
(lp370
I842
aI999
aI1387
asI1419
(lp371
I842
asI25999
(lp372
I1995
asI1425
(lp373
sI1432
(lp374
I4744
asI1433
(lp375
I1019
asI17818
(lp376
I2227
asI1437
(lp377
I856
asI3486
(lp378
I43
aI255
aI489
aI25914
asI1440
(lp379
I1226
aI25579
asI21062
(lp380
I361
asI19878
(lp381
sI15783
(lp382
I9910
aI9920
aI16798
asI1450
(lp383
I4744
asI17835
(lp384
I636
asI15788
(lp385
I119
asI1456
(lp386
I842
aI1400
aI1466
aI3047
aI25756
aI26265
aI26354
asI3507
(lp387
I3448
asI1460
(lp388
I842
aI11059
aI11060
asI3509
(lp389
I1469
aI3448
asI1462
(lp390
I1226
aI1364
aI2010
aI2519
aI4782
aI15521
aI16366
asI1466
(lp391
I1456
asI1469
(lp392
I334
aI1486
aI2375
aI2571
aI3509
aI4827
aI7012
aI18283
aI18286
asI1473
(lp393
I842
asI11714
(lp394
sI3523
(lp395
I14933
asI1486
(lp396
I1469
asI26073
(lp397
I842
asI24487
(lp398
I2474
asI3565
(lp399
I43
aI842
aI4901
aI25938
aI25939
asI15865
(lp400
I20464
aI25963
asI26107
(lp401
I1995
asI1534
(lp402
I1535
asI1535
(lp403
I1534
aI4299
aI7463
asI11784
(lp404
I334
asI5645
(lp405
I819
asI1555
(lp406
I855
aI15605
asI24096
(lp407
I4820
asI262
(lp408
sI15913
(lp409
sI22061
(lp410
I842
asI7726
(lp411
I255
asI5681
(lp412
sI9782
(lp413
I6418
asI15930
(lp414
I494
asI11849
(lp415
I1019
asI22098
(lp416
I22099
asI22099
(lp417
I9038
aI22098
asI11861
(lp418
sI15960
(lp419
I6418
asI20060
(lp420
I655
asI20061
(lp421
I655
asI26209
(lp422
I15605
asI2322
(lp423
I43
aI255
aI489
aI505
aI4277
aI4279
aI4281
aI4285
aI4288
asI13934
(lp424
I4820
asI18036
(lp425
I855
asI13949
(lp426
I2019
asI1301
(lp427
sI11912
(lp428
sI18059
(lp429
I718
asI11928
(lp430
sI26265
(lp431
I1456
asI16030
(lp432
sI11941
(lp433
sI12231
(lp434
sI11950
(lp435
I11520
asI9909
(lp436
I2317
asI9910
(lp437
I2317
aI13255
aI15783
asI18104
(lp438
sI9917
(lp439
I2317
asI9920
(lp440
I2317
aI13255
aI15783
asI18116
(lp441
I856
asI24271
(lp442
sI26325
(lp443
I2534
asI16086
(lp444
I2375
asI11999
(lp445
I342
asI3825
(lp446
I2583
aI2728
aI2766
asI26354
(lp447
I1456
aI3047
asI14078
(lp448
sI16127
(lp449
I1210
asI16134
(lp450
I1210
asI26390
(lp451
I405
aI842
asI26391
(lp452
I405
asI12062
(lp453
I999
asI10020
(lp454
I405
aI19703
asI3882
(lp455
I842
asI14123
(lp456
I255
aI17247
asI2697
(lp457
I43
asI2357
(lp458
sI5952
(lp459
I489
aI2375
asI5968
(lp460
I10175
asI2019
(lp461
I11456
aI13949
asI3926
(lp462
sI26460
(lp463
sI997
(lp464
I999
asI8038
(lp465
I334
asI3047
(lp466
I43
aI1456
aI2375
aI2871
aI26354
asI8046
(lp467
I15521
asI14195
(lp468
I334
aI2369
aI3071
asI1909
(lp469
I1354
asI18296
(lp470
I17718
asI1913
(lp471
sI1916
(lp472
I856
asI24446
(lp473
I15605
asI5099
(lp474
I3299
asI2369
(lp475
I11456
aI14195
asI24898
(lp476
sI1934
(lp477
I1935
asI1935
(lp478
I1934
aI25550
asI1946
(lp479
I342
asI10149
(lp480
I43
aI842
asI10151
(lp481
I43
asI24489
(lp482
I2474
asI16298
(lp483
I1354
aI4744
asI10161
(lp484
I43
aI842
asI12217
(lp485
I505
asI10175
(lp486
I43
aI5968
aI16574
asI1984
(lp487
sI4037
(lp488
I43
asI10183
(lp489
I43
asI2380
(lp490
sI1995
(lp491
I809
aI842
aI14933
aI22993
aI23319
aI25000
aI25999
aI26107
asI24528
(lp492
I1192
asI2007
(lp493
I2010
asI2010
(lp494
I255
aI334
aI1462
aI2007
aI8774
asI18401
(lp495
I255
asI21499
(lp496
I842
asI22501
(lp497
I5257
asI16365
(lp498
sI16366
(lp499
I1462
asI20464
(lp500
I15865
asI25939
(lp501
I842
aI3565
asI10236
(lp502
I43
aI255
aI842
aI8774
asI15521
(lp503
I1462
aI8046
as.