(dp0
I2688
(lp1
I18
asI11392
(lp2
I867
asI9346
(lp3
I18
asI24707
(lp4
sI2308
(lp5
I18
asI3333
(lp6
I9254
aI9260
asI2182
(lp7
I18
aI25005
asI5377
(lp8
I13940
asI15404
(lp9
sI20753
(lp10
I5158
asI9357
(lp11
I18
asI10925
(lp12
I4376
asI664
(lp13
sI18
(lp14
I2182
aI2243
aI2308
aI2362
aI2610
aI2688
aI3275
aI3324
aI3348
aI3455
aI4376
aI4499
aI4973
aI5953
aI8697
aI9254
aI9322
aI9346
aI9357
aI9363
aI9952
aI10589
aI14672
aI18044
aI18348
aI23328
aI23330
asI4499
(lp15
I18
aI4497
aI16984
aI26215
asI3348
(lp16
I18
aI19008
asI22894
(lp17
I2610
asI22038
(lp18
sI22714
(lp19
I2362
asI4376
(lp20
I18
aI2870
aI10509
aI10922
aI10925
asI5444
(lp21
sI18588
(lp22
I2870
asI6431
(lp23
I15159
asI23328
(lp24
I18
asI12577
(lp25
I19820
asI23330
(lp26
I18
asI5411
(lp27
I13940
asI9254
(lp28
I18
aI3333
asI12584
(lp29
sI10922
(lp30
I4376
asI18347
(lp31
I18348
asI18348
(lp32
I18
aI18347
asI25005
(lp33
I2182
asI14512
(lp34
sI11616
(lp35
sI2610
(lp36
I18
aI22894
asI2870
(lp37
I4376
aI18588
asI15159
(lp38
I6431
asI2362
(lp39
I18
aI9326
aI14672
aI22714
asI13243
(lp40
I5953
asI19389
(lp41
sI19008
(lp42
I3348
asI5953
(lp43
I18
aI3275
aI13243
aI18811
asI2243
(lp44
I18
asI17092
(lp45
sI2508
(lp46
sI3275
(lp47
I18
aI5953
aI10319
aI15595
asI2252
(lp48
sI22221
(lp49
I867
asI10319
(lp50
I3275
asI14672
(lp51
I18
aI2362
asI25827
(lp52
sI10509
(lp53
I4376
asI26215
(lp54
I4499
asI14201
(lp55
sI16984
(lp56
I4499
asI15961
(lp57
sI22223
(lp58
I867
asI10589
(lp59
I18
asI9950
(lp60
sI9952
(lp61
I18
asI9260
(lp62
I3333
asI867
(lp63
I11392
aI22221
aI22223
asI5158
(lp64
I20753
asI18150
(lp65
I3455
asI4497
(lp66
I4499
asI18044
(lp67
I18
asI9322
(lp68
I18
asI18169
(lp69
I3455
asI19820
(lp70
I12577
asI4973
(lp71
I18
asI9326
(lp72
I2362
asI6009
(lp73
sI15473
(lp74
sI9363
(lp75
I18
asI13940
(lp76
I5377
aI5411
asI17091
(lp77
I3455
asI15595
(lp78
I3275
asI8697
(lp79
I18
asI18811
(lp80
I5953
asI3324
(lp81
I18
asI3455
(lp82
I18
aI17091
aI18150
aI18169
as.