(dp0
I14336
(lp1
I14334
asI1
(lp2
I3
asI3
(lp3
I1
asI14345
(lp4
sI24586
(lp5
sI22539
(lp6
I862
asI22547
(lp7
sI16409
(lp8
I741
asI16410
(lp9
I741
asI16418
(lp10
sI23324
(lp11
sI4158
(lp12
sI22593
(lp13
sI3766
(lp14
sI20552
(lp15
sI20554
(lp16
sI20557
(lp17
sI15715
(lp18
I1053
asI22612
(lp19
sI22614
(lp20
sI20568
(lp21
sI6235
(lp22
sI20576
(lp23
sI20577
(lp24
sI20581
(lp25
sI25372
(lp26
I2338
asI18535
(lp27
sI20584
(lp28
sI20586
(lp29
sI18540
(lp30
I16174
aI18541
asI18541
(lp31
I707
aI18540
asI14446
(lp32
I14445
asI4209
(lp33
sI22643
(lp34
sI24693
(lp35
sI24694
(lp36
sI24697
(lp37
sI24699
(lp38
sI14463
(lp39
sI2180
(lp40
sI18565
(lp41
I707
asI2183
(lp42
sI2192
(lp43
sI16530
(lp44
sI6295
(lp45
I23798
aI25794
aI26472
asI2200
(lp46
I23278
asI4250
(lp47
I14653
asI4254
(lp48
sI18602
(lp49
sI24751
(lp50
I754
asI2224
(lp51
I757
aI2225
asI2225
(lp52
I2224
asI24754
(lp53
sI15077
(lp54
sI14516
(lp55
sI24757
(lp56
I1882
aI24756
asI22716
(lp57
sI16575
(lp58
I754
asI2241
(lp59
I1639
aI16179
asI14530
(lp60
sI22727
(lp61
sI4303
(lp62
sI4312
(lp63
sI4313
(lp64
sI4318
(lp65
sI4319
(lp66
I1899
aI4321
aI4325
aI4326
aI4334
aI4337
aI4340
asI4321
(lp67
I4319
asI15739
(lp68
I1053
asI4325
(lp69
I4319
asI4326
(lp70
I4319
asI4334
(lp71
I4319
asI4337
(lp72
I4319
asI12532
(lp73
I2733
asI14582
(lp74
sI4357
(lp75
sI2310
(lp76
sI16651
(lp77
I10000
asI14604
(lp78
I1899
asI12558
(lp79
sI1069
(lp80
I1687
aI1689
aI1691
asI4371
(lp81
sI20757
(lp82
sI20758
(lp83
sI22814
(lp84
sI14623
(lp85
I8972
asI22816
(lp86
sI290
(lp87
I291
asI291
(lp88
I290
aI2490
aI19902
asI12582
(lp89
sI4393
(lp90
I4394
asI4394
(lp91
I2338
aI4393
asI4408
(lp92
I4410
asI4410
(lp93
I4408
aI16607
aI24022
aI24994
aI25458
aI25810
asI14653
(lp94
I4250
asI22850
(lp95
I9530
asI20813
(lp96
I9530
asI20817
(lp97
sI18771
(lp98
sI20822
(lp99
sI18775
(lp100
sI22877
(lp101
sI16734
(lp102
sI741
(lp103
I16409
aI16410
asI6499
(lp104
I4094
asI6500
(lp105
sI14398
(lp106
sI388
(lp107
sI10305
(lp108
sI16776
(lp109
sI14334
(lp110
I14336
asI20877
(lp111
sI2447
(lp112
I2448
asI2448
(lp113
I2447
asI12689
(lp114
sI4501
(lp115
sI20889
(lp116
sI14753
(lp117
sI24994
(lp118
I4410
asI10661
(lp119
sI16113
(lp120
sI10664
(lp121
I25853
asI2473
(lp122
I2475
asI2475
(lp123
I2473
asI21234
(lp124
sI16815
(lp125
sI12721
(lp126
sI434
(lp127
sI22968
(lp128
I754
asI2490
(lp129
I291
asI18875
(lp130
sI8636
(lp131
sI14782
(lp132
sI2505
(lp133
I2506
asI2506
(lp134
I2505
aI10979
asI16846
(lp135
I1899
asI19533
(lp136
sI12752
(lp137
sI2513
(lp138
sI4562
(lp139
sI6613
(lp140
I6615
aI6617
asI8662
(lp141
I20406
aI20407
asI6615
(lp142
I6613
asI6617
(lp143
I6613
asI2524
(lp144
I3683
asI20960
(lp145
sI25062
(lp146
I754
asI25063
(lp147
sI26135
(lp148
I19504
asI8685
(lp149
I740
asI8686
(lp150
sI20985
(lp151
I1882
asI16894
(lp152
sI20991
(lp153
sI20997
(lp154
sI21004
(lp155
sI21006
(lp156
sI4627
(lp157
sI4629
(lp158
sI16918
(lp159
sI21015
(lp160
sI12845
(lp161
I1053
aI12846
asI12846
(lp162
I12845
asI12858
(lp163
sI12865
(lp164
I1053
asI23342
(lp165
sI8972
(lp166
I14623
asI12875
(lp167
sI16975
(lp168
sI12883
(lp169
I12884
asI12884
(lp170
I4867
aI12883
asI14936
(lp171
sI12730
(lp172
sI16995
(lp173
sI2661
(lp174
I14332
asI618
(lp175
I619
asI619
(lp176
I618
aI1680
asI12909
(lp177
sI8819
(lp178
I8821
asI8821
(lp179
I8819
asI14966
(lp180
sI6775
(lp181
sI4728
(lp182
sI19074
(lp183
I3888
asI25367
(lp184
I25366
asI25229
(lp185
I707
asI19087
(lp186
I1680
asI19088
(lp187
I1680
asI8852
(lp188
sI21141
(lp189
sI13081
(lp190
sI19098
(lp191
I707
aI1680
asI12957
(lp192
sI8865
(lp193
I707
asI19107
(lp194
I16196
asI19108
(lp195
I16196
asI19110
(lp196
I16196
asI8873
(lp197
sI2733
(lp198
I12532
asI10931
(lp199
sI18549
(lp200
sI15040
(lp201
sI705
(lp202
I707
asI21186
(lp203
sI707
(lp204
I705
aI8865
aI15732
aI18541
aI18565
aI19098
aI22198
aI23469
aI25229
aI25833
aI25835
asI12998
(lp205
sI17098
(lp206
sI15068
(lp207
sI2781
(lp208
I25627
asI2785
(lp209
sI10979
(lp210
I2506
asI740
(lp211
I8685
asI10981
(lp212
I754
asI21225
(lp213
sI17132
(lp214
I1899
asI17133
(lp215
I1899
asI25326
(lp216
I2013
asI2799
(lp217
I15483
asI754
(lp218
I10981
aI16575
aI19667
aI22968
aI23296
aI24751
aI25062
aI25634
aI25762
aI26051
aI26096
aI26119
aI26122
aI26227
aI26228
aI26229
aI26230
aI26231
asI757
(lp219
I2224
aI15381
asI21242
(lp220
sI23296
(lp221
I754
asI4867
(lp222
I960
aI12884
aI15969
asI13066
(lp223
sI21260
(lp224
sI13069
(lp225
I15863
asI13070
(lp226
sI23417
(lp227
sI11025
(lp228
sI13074
(lp229
sI789
(lp230
I793
asI25366
(lp231
I25367
asI19223
(lp232
sI793
(lp233
I789
asI13083
(lp234
I13084
asI13084
(lp235
I1053
aI13083
asI21294
(lp236
sI15154
(lp237
I2338
asI13939
(lp238
sI23348
(lp239
sI13123
(lp240
I1002
asI4941
(lp241
sI14963
(lp242
sI11095
(lp243
sI13145
(lp244
sI11099
(lp245
sI862
(lp246
I22539
asI14480
(lp247
sI19300
(lp248
sI12774
(lp249
sI19305
(lp250
sI23402
(lp251
sI25458
(lp252
I4410
asI9081
(lp253
sI23418
(lp254
sI19327
(lp255
sI13184
(lp256
sI19331
(lp257
sI23430
(lp258
sI19341
(lp259
sI19343
(lp260
sI13200
(lp261
sI13202
(lp262
sI23443
(lp263
sI5015
(lp264
I1053
asI23448
(lp265
sI922
(lp266
sI23451
(lp267
sI21404
(lp268
sI15262
(lp269
I1053
aI1680
asI23458
(lp270
sI23462
(lp271
sI13227
(lp272
sI23469
(lp273
I707
asI942
(lp274
sI23473
(lp275
sI21430
(lp276
sI19383
(lp277
sI25531
(lp278
sI960
(lp279
I4867
aI5873
asI25547
(lp280
sI13262
(lp281
sI15181
(lp282
sI13273
(lp283
sI9179
(lp284
sI1001
(lp285
I1002
asI1002
(lp286
I1001
aI13123
aI13546
aI13555
asI22013
(lp287
sI9217
(lp288
sI15381
(lp289
I757
asI9238
(lp290
sI25627
(lp291
I2781
asI15388
(lp292
sI1053
(lp293
I5015
aI12845
aI12865
aI13084
aI15262
aI15715
aI15716
aI15719
aI15731
aI15732
aI15737
aI15738
aI15739
aI15740
aI15742
aI15748
asI25634
(lp294
I754
asI9256
(lp295
sI9261
(lp296
sI19502
(lp297
sI19504
(lp298
I26135
asI9270
(lp299
sI9271
(lp300
sI24756
(lp301
I24170
aI24757
asI9274
(lp302
sI17930
(lp303
sI19524
(lp304
sI1101
(lp305
I11584
asI23204
(lp306
sI9302
(lp307
sI13497
(lp308
sI13407
(lp309
sI15457
(lp310
sI11366
(lp311
sI15483
(lp312
I2799
asI5250
(lp313
sI1899
(lp314
I1898
aI4319
aI14604
aI16846
aI17132
aI17133
asI15493
(lp315
sI13446
(lp316
sI4631
(lp317
sI25794
(lp318
I6295
asI15508
(lp319
sI9365
(lp320
sI25750
(lp321
sI13849
(lp322
sI25749
(lp323
sI25762
(lp324
I754
asI5285
(lp325
sI15529
(lp326
sI26227
(lp327
I754
asI5305
(lp328
I14132
asI21698
(lp329
sI25796
(lp330
sI21704
(lp331
sI25810
(lp332
I4410
asI19667
(lp333
I754
asI889
(lp334
sI1243
(lp335
I1244
asI1244
(lp336
I1243
asI1253
(lp337
I1254
asI1254
(lp338
I1253
asI13544
(lp339
sI25833
(lp340
I707
asI13546
(lp341
I1002
asI25835
(lp342
I707
asI11500
(lp343
sI5361
(lp344
sI13555
(lp345
I1002
asI23798
(lp346
I6295
asI5368
(lp347
sI25853
(lp348
I10664
asI21760
(lp349
sI13068
(lp350
sI19731
(lp351
sI19732
(lp352
sI11545
(lp353
sI13596
(lp354
sI9510
(lp355
sI9513
(lp356
sI21806
(lp357
sI23865
(lp358
sI9530
(lp359
I9529
aI20813
aI22850
asI16607
(lp360
I4410
aI16236
asI11584
(lp361
I1101
asI23437
(lp362
sI23893
(lp363
sI5465
(lp364
sI17755
(lp365
sI11612
(lp366
sI15462
(lp367
sI17979
(lp368
sI15716
(lp369
I1053
asI15719
(lp370
I1053
aI4094
asI22076
(lp371
sI15731
(lp372
I1053
asI15732
(lp373
I707
aI1053
asI15737
(lp374
I1053
asI15738
(lp375
I1053
asI9595
(lp376
sI15740
(lp377
I1053
asI24123
(lp378
sI15742
(lp379
I1053
asI10133
(lp380
I15863
asI15748
(lp381
I1053
asI9609
(lp382
sI21903
(lp383
I1652
asI11675
(lp384
sI26013
(lp385
sI17824
(lp386
sI11163
(lp387
sI19889
(lp388
sI4340
(lp389
I4319
aI20199
asI19902
(lp390
I291
asI26051
(lp391
I754
asI26057
(lp392
I24157
asI15826
(lp393
sI13779
(lp394
sI24022
(lp395
I4410
asI1495
(lp396
I1496
asI1496
(lp397
I1495
asI23278
(lp398
I2200
asI1501
(lp399
sI3550
(lp400
sI19937
(lp401
sI19938
(lp402
sI12939
(lp403
sI13798
(lp404
sI1517
(lp405
sI26096
(lp406
I754
asI15858
(lp407
sI17907
(lp408
I17908
asI17908
(lp409
I17907
asI15862
(lp410
I15863
asI15863
(lp411
I10133
aI13069
aI15862
asI15122
(lp412
sI19965
(lp413
sI13823
(lp414
sI26119
(lp415
I754
asI26122
(lp416
I754
asI13835
(lp417
sI17936
(lp418
sI3601
(lp419
sI13847
(lp420
sI15897
(lp421
sI13850
(lp422
sI22789
(lp423
sI1568
(lp424
sI22049
(lp425
sI13858
(lp426
sI11822
(lp427
sI3636
(lp428
sI11833
(lp429
sI13883
(lp430
sI15932
(lp431
sI13886
(lp432
sI16310
(lp433
sI3681
(lp434
I4094
asI24138
(lp435
sI20407
(lp436
I8662
asI24146
(lp437
sI24163
(lp438
sI24148
(lp439
sI24149
(lp440
sI24150
(lp441
sI24157
(lp442
I26057
asI20064
(lp443
sI15969
(lp444
I4867
asI3683
(lp445
I2524
aI3709
aI3731
asI13924
(lp446
sI22119
(lp447
sI5736
(lp448
sI24170
(lp449
I24756
asI1639
(lp450
I2241
asI13933
(lp451
sI20755
(lp452
sI26228
(lp453
I754
asI26229
(lp454
I754
asI26230
(lp455
I754
asI26231
(lp456
I754
asI7800
(lp457
sI13948
(lp458
sI3709
(lp459
I3683
asI16014
(lp460
sI14445
(lp461
I4094
aI14446
asI1680
(lp462
I619
aI14296
aI15262
aI16236
aI19087
aI19088
aI19098
asI13969
(lp463
sI3731
(lp464
I3683
asI1687
(lp465
I1069
asI1689
(lp466
I1069
asI1691
(lp467
I1069
asI5793
(lp468
sI25748
(lp469
sI13989
(lp470
sI3754
(lp471
sI20142
(lp472
sI17011
(lp473
sI22198
(lp474
I707
asI9911
(lp475
sI14008
(lp476
sI1652
(lp477
I21903
asI20157
(lp478
sI16065
(lp479
sI16066
(lp480
sI2338
(lp481
I4394
aI15154
aI25372
asI9935
(lp482
sI22235
(lp483
sI26336
(lp484
sI20199
(lp485
I4340
asI16107
(lp486
sI5873
(lp487
I960
asI3828
(lp488
sI14634
(lp489
sI20314
(lp490
sI26383
(lp491
sI10000
(lp492
I16651
asI18195
(lp493
sI26404
(lp494
sI16165
(lp495
sI18220
(lp496
sI16173
(lp497
I16174
asI16174
(lp498
I16173
aI18540
asI3888
(lp499
I19074
asI16179
(lp500
I2241
asI14132
(lp501
I5305
asI10046
(lp502
sI16193
(lp503
sI14146
(lp504
sI20291
(lp505
sI16196
(lp506
I19107
aI19108
aI19110
asI20294
(lp507
sI16199
(lp508
sI16201
(lp509
sI16205
(lp510
sI16207
(lp511
sI26450
(lp512
sI14163
(lp513
sI16213
(lp514
sI14166
(lp515
sI9529
(lp516
I9530
asI1881
(lp517
I1882
asI1882
(lp518
I1881
aI20985
aI24757
asI16223
(lp519
sI26464
(lp520
sI26472
(lp521
I6295
asI1898
(lp522
I1899
asI16235
(lp523
sI16236
(lp524
I1680
aI16607
asI16237
(lp525
sI16238
(lp526
sI14191
(lp527
sI22388
(lp528
sI25577
(lp529
sI14207
(lp530
sI4418
(lp531
sI16277
(lp532
I16279
asI16279
(lp533
I16277
asI18333
(lp534
sI12197
(lp535
sI10160
(lp536
sI18353
(lp537
sI24499
(lp538
sI20406
(lp539
I8662
asI16311
(lp540
sI14266
(lp541
sI4041
(lp542
sI24523
(lp543
sI16337
(lp544
sI14296
(lp545
I1680
asI24537
(lp546
sI2013
(lp547
I25326
asI6120
(lp548
sI14325
(lp549
sI22518
(lp550
sI22522
(lp551
sI14332
(lp552
I2661
asI4094
(lp553
I3681
aI6499
aI14445
aI15719
as.