(dp0
I16384
(lp1
sI24578
(lp2
I859
asI8195
(lp3
sI8198
(lp4
sI16395
(lp5
sI16396
(lp6
sI24590
(lp7
sI15
(lp8
sI8209
(lp9
sI24579
(lp10
I859
asI20
(lp11
sI8213
(lp12
I16007
aI19129
asI24598
(lp13
sI17753
(lp14
sI24601
(lp15
sI16413
(lp16
sI16414
(lp17
sI16417
(lp18
sI24610
(lp19
sI37
(lp20
I10079
aI14937
asI16422
(lp21
sI42
(lp22
sI44
(lp23
sI16429
(lp24
sI46
(lp25
I48
aI49
aI53
aI56
aI57
aI59
aI61
aI62
aI66
aI69
aI70
aI71
aI72
aI74
aI75
aI76
aI84
aI86
aI87
aI91
aI92
asI16431
(lp26
sI48
(lp27
I46
asI49
(lp28
I46
asI16434
(lp29
sI53
(lp30
I46
asI8247
(lp31
sI8248
(lp32
sI57
(lp33
I46
asI59
(lp34
I46
asI61
(lp35
I46
aI20148
asI62
(lp36
I46
asI24640
(lp37
sI24641
(lp38
sI66
(lp39
I46
asI8260
(lp40
sI69
(lp41
I46
asI70
(lp42
I46
asI71
(lp43
I46
asI72
(lp44
I46
asI74
(lp45
I46
aI445
asI75
(lp46
I46
asI76
(lp47
I46
asI84
(lp48
I46
asI86
(lp49
I46
asI87
(lp50
I46
asI91
(lp51
I46
asI92
(lp52
I46
asI16482
(lp53
sI10939
(lp54
sI16484
(lp55
sI24593
(lp56
I1369
asI16488
(lp57
sI16493
(lp58
sI16496
(lp59
sI24595
(lp60
sI16500
(lp61
sI16503
(lp62
I24722
asI8312
(lp63
sI16404
(lp64
sI16507
(lp65
sI16509
(lp66
sI16514
(lp67
sI131
(lp68
sI24708
(lp69
sI16517
(lp70
I4826
asI24710
(lp71
sI16520
(lp72
I13959
asI16523
(lp73
sI8334
(lp74
sI16527
(lp75
I1144
asI24722
(lp76
I16503
asI147
(lp77
sI24724
(lp78
I1480
asI8343
(lp79
sI16538
(lp80
sI25101
(lp81
I12494
asI24734
(lp82
sI24736
(lp83
sI25968
(lp84
I24379
asI24742
(lp85
sI25969
(lp86
sI16554
(lp87
sI24750
(lp88
sI2188
(lp89
I23777
asI24755
(lp90
sI16564
(lp91
sI16571
(lp92
sI189
(lp93
sI8382
(lp94
sI16577
(lp95
sI24771
(lp96
sI8390
(lp97
sI8396
(lp98
sI209
(lp99
sI24794
(lp100
I24795
asI24795
(lp101
I5835
aI24794
aI25599
asI16604
(lp102
sI8413
(lp103
sI24613
(lp104
sI16610
(lp105
sI16612
(lp106
sI24813
(lp107
sI24815
(lp108
sI24816
(lp109
sI24820
(lp110
I3611
asI251
(lp111
sI252
(lp112
sI24829
(lp113
sI16638
(lp114
sI256
(lp115
sI20351
(lp116
sI16644
(lp117
sI8453
(lp118
sI16647
(lp119
sI16428
(lp120
sI16650
(lp121
sI16654
(lp122
sI274
(lp123
sI275
(lp124
I15560
asI8470
(lp125
sI282
(lp126
sI18278
(lp127
sI16671
(lp128
sI16432
(lp129
sI16433
(lp130
sI300
(lp131
sI24885
(lp132
sI15071
(lp133
sI16702
(lp134
sI8512
(lp135
sI24897
(lp136
sI16713
(lp137
sI24907
(lp138
sI8525
(lp139
I970
asI24912
(lp140
sI56
(lp141
I46
asI8532
(lp142
sI17806
(lp143
sI8534
(lp144
sI8541
(lp145
sI24927
(lp146
sI352
(lp147
sI8545
(lp148
sI9559
(lp149
sI16443
(lp150
sI24933
(lp151
sI24936
(lp152
sI24938
(lp153
I24947
asI363
(lp154
sI364
(lp155
sI24944
(lp156
sI16755
(lp157
sI8566
(lp158
sI16761
(lp159
sI378
(lp160
sI16763
(lp161
sI383
(lp162
sI16768
(lp163
sI385
(lp164
sI8582
(lp165
sI391
(lp166
sI1104
(lp167
sI8585
(lp168
sI394
(lp169
sI8592
(lp170
sI12834
(lp171
I12836
asI24981
(lp172
I25864
asI8599
(lp173
sI408
(lp174
sI409
(lp175
sI16794
(lp176
sI5530
(lp177
sI415
(lp178
sI8608
(lp179
sI418
(lp180
sI17819
(lp181
sI16804
(lp182
I18992
aI24425
aI25430
aI25431
asI8615
(lp183
sI8616
(lp184
sI425
(lp185
sI25003
(lp186
sI25004
(lp187
sI16818
(lp188
sI25013
(lp189
I24466
asI25656
(lp190
sI16824
(lp191
I16826
asI12878
(lp192
sI16826
(lp193
I16824
asI5743
(lp194
I5744
asI445
(lp195
I74
asI16835
(lp196
sI454
(lp197
sI16841
(lp198
sI25034
(lp199
sI8652
(lp200
I790
asI25047
(lp201
sI472
(lp202
sI474
(lp203
sI26021
(lp204
sI9836
(lp205
sI8675
(lp206
I1480
asI485
(lp207
sI8678
(lp208
sI487
(lp209
sI16874
(lp210
I4445
asI12963
(lp211
I8796
asI16883
(lp212
sI8693
(lp213
sI26025
(lp214
sI16888
(lp215
sI8699
(lp216
I4156
asI8700
(lp217
I4156
asI509
(lp218
sI16895
(lp219
sI16897
(lp220
sI8707
(lp221
sI26463
(lp222
sI25095
(lp223
sI521
(lp224
I11135
asI25098
(lp225
sI523
(lp226
sI16909
(lp227
sI526
(lp228
sI529
(lp229
sI16914
(lp230
sI25113
(lp231
I10321
asI25114
(lp232
sI16924
(lp233
sI16926
(lp234
sI16658
(lp235
sI16939
(lp236
sI8753
(lp237
sI8755
(lp238
I8757
aI8758
aI8760
aI8761
aI8762
asI25140
(lp239
sI8757
(lp240
I8755
asI8758
(lp241
I8755
asI16952
(lp242
sI25145
(lp243
sI16954
(lp244
sI16957
(lp245
I9041
asI574
(lp246
I575
asI575
(lp247
I574
aI3604
asI25153
(lp248
sI25154
(lp249
sI579
(lp250
sI25156
(lp251
sI25388
(lp252
sI16968
(lp253
sI594
(lp254
sI596
(lp255
sI16981
(lp256
sI8790
(lp257
sI8793
(lp258
sI16987
(lp259
sI8796
(lp260
I12963
asI25181
(lp261
sI16992
(lp262
sI609
(lp263
sI610
(lp264
I611
asI611
(lp265
I610
aI1092
aI3914
aI5048
aI13002
aI13970
aI16327
aI17891
aI18759
aI20033
aI20034
aI20035
aI20039
aI20042
aI20044
asI25192
(lp266
sI8809
(lp267
sI21949
(lp268
I26120
asI17008
(lp269
sI839
(lp270
I15051
asI19379
(lp271
sI8822
(lp272
sI25208
(lp273
I25209
asI25209
(lp274
I790
aI25208
asI634
(lp275
sI17855
(lp276
sI8833
(lp277
sI8835
(lp278
I3259
asI8838
(lp279
I25061
asI25224
(lp280
sI8843
(lp281
sI8850
(lp282
sI3568
(lp283
I3569
asI17046
(lp284
sI17047
(lp285
sI26053
(lp286
I14007
asI25248
(lp287
sI25249
(lp288
sI17063
(lp289
sI8875
(lp290
sI17069
(lp291
sI8880
(lp292
sI17075
(lp293
sI25269
(lp294
sI25270
(lp295
sI25271
(lp296
sI25272
(lp297
sI25273
(lp298
sI25274
(lp299
sI25275
(lp300
sI17087
(lp301
sI25281
(lp302
sI25282
(lp303
sI25283
(lp304
I10892
asI8900
(lp305
sI709
(lp306
I708
asI713
(lp307
I714
asI714
(lp308
I713
aI9184
aI18761
aI21859
aI21863
aI21866
asI25292
(lp309
sI25296
(lp310
sI17105
(lp311
sI17107
(lp312
sI16505
(lp313
sI8920
(lp314
sI17114
(lp315
sI8924
(lp316
sI25309
(lp317
sI17119
(lp318
sI25312
(lp319
sI8934
(lp320
sI17128
(lp321
sI25324
(lp322
sI8942
(lp323
sI25331
(lp324
sI25333
(lp325
sI25334
(lp326
sI17143
(lp327
sI8955
(lp328
sI8957
(lp329
sI17150
(lp330
sI8959
(lp331
sI17155
(lp332
sI774
(lp333
sI17168
(lp334
sI785
(lp335
I788
asI25362
(lp336
I24925
asI17171
(lp337
sI788
(lp338
I785
asI790
(lp339
I4015
aI8652
aI8854
aI9694
aI11627
aI21031
aI25209
asI791
(lp340
sI17176
(lp341
I1144
asI16666
(lp342
sI8987
(lp343
sI17180
(lp344
sI25373
(lp345
sI17182
(lp346
sI17183
(lp347
sI17185
(lp348
sI17188
(lp349
sI17191
(lp350
sI25384
(lp351
sI17193
(lp352
sI17194
(lp353
sI17196
(lp354
sI25389
(lp355
sI24712
(lp356
sI21982
(lp357
sI823
(lp358
sI25403
(lp359
sI25404
(lp360
sI17213
(lp361
sI17215
(lp362
sI836
(lp363
sI9029
(lp364
sI9030
(lp365
sI9031
(lp366
sI840
(lp367
sI25417
(lp368
sI17226
(lp369
sI9035
(lp370
sI17228
(lp371
sI9037
(lp372
sI846
(lp373
sI25423
(lp374
sI9041
(lp375
I16957
asI17237
(lp376
sI25430
(lp377
I16804
asI25431
(lp378
I16804
asI25432
(lp379
sI859
(lp380
I14617
aI15178
aI21265
aI24508
aI24578
aI24579
asI860
(lp381
sI17245
(lp382
sI25439
(lp383
sI9059
(lp384
I10231
asI17252
(lp385
sI25445
(lp386
sI19260
(lp387
sI17258
(lp388
sI25451
(lp389
sI25452
(lp390
sI9071
(lp391
sI25456
(lp392
I10749
asI25457
(lp393
sI882
(lp394
I13136
asI25459
(lp395
I25460
asI9076
(lp396
sI25461
(lp397
sI890
(lp398
sI891
(lp399
sI17278
(lp400
sI18579
(lp401
I18580
asI24727
(lp402
sI9101
(lp403
sI26093
(lp404
sI17302
(lp405
sI4249
(lp406
sI9112
(lp407
sI921
(lp408
I18650
asI25945
(lp409
sI25519
(lp410
sI25523
(lp411
sI17334
(lp412
sI17336
(lp413
sI957
(lp414
sI17344
(lp415
sI25541
(lp416
sI25542
(lp417
sI968
(lp418
I9280
aI15953
aI18252
aI20015
aI20025
asI969
(lp419
I970
asI970
(lp420
I969
aI3414
aI8525
aI13824
aI13830
aI13832
asI17355
(lp421
sI4258
(lp422
sI975
(lp423
sI25554
(lp424
sI17366
(lp425
sI984
(lp426
sI19673
(lp427
sI17371
(lp428
sI25564
(lp429
sI989
(lp430
sI9184
(lp431
I714
asI995
(lp432
sI998
(lp433
I2713
aI13125
asI15185
(lp434
sI9194
(lp435
sI25580
(lp436
sI1007
(lp437
I1008
asI1008
(lp438
I1007
aI6497
asI25585
(lp439
sI1013
(lp440
I13959
asI17399
(lp441
sI9212
(lp442
sI1021
(lp443
sI25599
(lp444
I3262
aI24795
asI9220
(lp445
I3262
asI1030
(lp446
sI25608
(lp447
sI1036
(lp448
sI26114
(lp449
sI17423
(lp450
sI25618
(lp451
sI17428
(lp452
sI17429
(lp453
sI17430
(lp454
sI25623
(lp455
sI25624
(lp456
sI25625
(lp457
sI17434
(lp458
sI17436
(lp459
sI25629
(lp460
sI17438
(lp461
sI25631
(lp462
sI25632
(lp463
sI17441
(lp464
sI17448
(lp465
sI2908
(lp466
sI9258
(lp467
I9376
asI17451
(lp468
sI9266
(lp469
sI17464
(lp470
sI9275
(lp471
sI1084
(lp472
sI25661
(lp473
sI25662
(lp474
sI25663
(lp475
sI9280
(lp476
I968
asI25665
(lp477
sI25666
(lp478
sI1092
(lp479
I611
asI25669
(lp480
sI17479
(lp481
I12644
asI25672
(lp482
sI25674
(lp483
I3611
asI25676
(lp484
sI25677
(lp485
sI25679
(lp486
sI9296
(lp487
sI17489
(lp488
sI17491
(lp489
sI25685
(lp490
sI17499
(lp491
sI1121
(lp492
sI1122
(lp493
I1123
asI1123
(lp494
I1122
asI25701
(lp495
sI1126
(lp496
sI22033
(lp497
sI9320
(lp498
sI1132
(lp499
I1133
asI1133
(lp500
I1132
aI18341
asI9328
(lp501
sI25713
(lp502
I14033
asI9330
(lp503
sI17939
(lp504
I17941
asI25716
(lp505
sI17525
(lp506
sI1144
(lp507
I16527
aI17176
aI26432
asI9342
(lp508
sI17535
(lp509
sI17536
(lp510
sI1153
(lp511
sI1155
(lp512
sI1158
(lp513
sI9351
(lp514
sI9352
(lp515
sI9354
(lp516
sI9358
(lp517
sI1167
(lp518
I22990
aI22991
asI17552
(lp519
sI16579
(lp520
sI17562
(lp521
sI9371
(lp522
sI25759
(lp523
sI9376
(lp524
I9258
asI9377
(lp525
sI26139
(lp526
sI25765
(lp527
sI25766
(lp528
sI17575
(lp529
sI22044
(lp530
sI17578
(lp531
sI17580
(lp532
sI25773
(lp533
sI9390
(lp534
sI25775
(lp535
sI17584
(lp536
sI1201
(lp537
sI9394
(lp538
sI9395
(lp539
sI1207
(lp540
I23035
asI25784
(lp541
sI9401
(lp542
sI25786
(lp543
sI25788
(lp544
sI9405
(lp545
sI17598
(lp546
sI9407
(lp547
I9406
asI17600
(lp548
sI9409
(lp549
sI9413
(lp550
sI9414
(lp551
sI9417
(lp552
sI9419
(lp553
sI9421
(lp554
sI25807
(lp555
sI25808
(lp556
sI9425
(lp557
sI9426
(lp558
sI9427
(lp559
sI9428
(lp560
sI25817
(lp561
sI9434
(lp562
sI17632
(lp563
sI4304
(lp564
I3023
asI17634
(lp565
sI1251
(lp566
sI25830
(lp567
sI1257
(lp568
sI1259
(lp569
sI1260
(lp570
sI1261
(lp571
sI22056
(lp572
sI17651
(lp573
sI25845
(lp574
sI17654
(lp575
sI9463
(lp576
sI25848
(lp577
sI9465
(lp578
sI9467
(lp579
sI25852
(lp580
sI17662
(lp581
sI9472
(lp582
sI22059
(lp583
sI17668
(lp584
sI9477
(lp585
sI17671
(lp586
sI25864
(lp587
I24981
asI17673
(lp588
sI1291
(lp589
sI17676
(lp590
sI15234
(lp591
sI17678
(lp592
sI17679
(lp593
sI9493
(lp594
sI9045
(lp595
sI20697
(lp596
sI25880
(lp597
sI25883
(lp598
sI9500
(lp599
sI9506
(lp600
sI25893
(lp601
sI17703
(lp602
sI9517
(lp603
sI25905
(lp604
sI9779
(lp605
sI9526
(lp606
sI25911
(lp607
sI25912
(lp608
sI25913
(lp609
sI25915
(lp610
sI25916
(lp611
sI15242
(lp612
sI25918
(lp613
sI22069
(lp614
sI25920
(lp615
sI25921
(lp616
sI9538
(lp617
sI9539
(lp618
sI25924
(lp619
sI17733
(lp620
sI25926
(lp621
sI1351
(lp622
I23883
asI25928
(lp623
sI25929
(lp624
sI25930
(lp625
sI25931
(lp626
sI25932
(lp627
sI25933
(lp628
sI25934
(lp629
sI17747
(lp630
sI17748
(lp631
sI17749
(lp632
sI26169
(lp633
sI1369
(lp634
I24593
asI25946
(lp635
sI17760
(lp636
sI15248
(lp637
sI25954
(lp638
sI25955
(lp639
sI25957
(lp640
sI9579
(lp641
sI25964
(lp642
sI25965
(lp643
sI25966
(lp644
sI25967
(lp645
sI9584
(lp646
sI17777
(lp647
sI25415
(lp648
sI25971
(lp649
sI17782
(lp650
sI25976
(lp651
I24556
asI1401
(lp652
I11083
aI11384
asI9596
(lp653
sI9597
(lp654
sI25984
(lp655
sI26176
(lp656
sI25987
(lp657
sI25988
(lp658
sI17797
(lp659
sI25990
(lp660
sI26177
(lp661
sI25994
(lp662
sI25997
(lp663
sI9614
(lp664
sI9617
(lp665
sI26002
(lp666
sI26005
(lp667
sI9627
(lp668
I3262
asI9628
(lp669
sI25869
(lp670
sI17823
(lp671
sI26017
(lp672
sI26018
(lp673
sI26019
(lp674
sI9637
(lp675
sI26022
(lp676
sI17833
(lp677
sI17779
(lp678
sI17836
(lp679
sI17837
(lp680
sI17839
(lp681
sI9650
(lp682
sI12531
(lp683
sI9655
(lp684
sI9656
(lp685
I2663
asI9657
(lp686
I2663
asI17850
(lp687
sI1471
(lp688
I25659
asI17858
(lp689
I4244
asI17861
(lp690
sI9670
(lp691
sI1480
(lp692
I8675
aI16117
aI16119
aI24724
asI9675
(lp693
sI17875
(lp694
sI26068
(lp695
sI26069
(lp696
sI9686
(lp697
sI26071
(lp698
sI26075
(lp699
sI26076
(lp700
sI9694
(lp701
I790
asI9695
(lp702
sI17891
(lp703
I611
asI26084
(lp704
sI17894
(lp705
sI26088
(lp706
sI26089
(lp707
sI26090
(lp708
sI17899
(lp709
sI9709
(lp710
sI1519
(lp711
sI17904
(lp712
I1887
asI1521
(lp713
I1523
asI1523
(lp714
I1521
aI22294
asI9716
(lp715
sI24830
(lp716
sI17912
(lp717
sI1532
(lp718
sI17918
(lp719
sI23783
(lp720
sI17922
(lp721
sI15275
(lp722
sI26117
(lp723
sI17926
(lp724
sI26120
(lp725
I21949
asI1546
(lp726
sI17932
(lp727
sI9744
(lp728
sI16643
(lp729
sI17941
(lp730
I17939
asI9750
(lp731
sI1561
(lp732
sI9755
(lp733
sI26140
(lp734
sI17951
(lp735
sI9765
(lp736
sI18013
(lp737
sI26162
(lp738
sI1587
(lp739
sI26167
(lp740
sI15284
(lp741
sI9823
(lp742
sI17984
(lp743
sI9824
(lp744
sI17986
(lp745
sI9799
(lp746
sI9800
(lp747
sI1609
(lp748
sI26186
(lp749
I25668
asI26189
(lp750
sI26194
(lp751
sI18019
(lp752
sI26197
(lp753
sI18020
(lp754
sI26202
(lp755
sI26203
(lp756
sI26205
(lp757
sI18014
(lp758
sI1637
(lp759
sI1632
(lp760
sI9827
(lp761
I9828
asI9828
(lp762
I9827
asI26213
(lp763
sI18022
(lp764
I24093
asI1641
(lp765
sI18028
(lp766
sI9837
(lp767
sI18030
(lp768
sI15293
(lp769
I15289
asI9840
(lp770
sI1651
(lp771
sI1653
(lp772
sI18038
(lp773
sI26217
(lp774
sI9848
(lp775
I20717
asI1660
(lp776
sI26238
(lp777
sI9855
(lp778
sI9856
(lp779
sI9857
(lp780
sI9858
(lp781
sI1668
(lp782
sI1669
(lp783
sI9862
(lp784
sI26247
(lp785
sI9864
(lp786
sI1644
(lp787
I1887
asI22379
(lp788
sI26255
(lp789
sI26256
(lp790
sI1681
(lp791
sI1682
(lp792
sI26261
(lp793
sI18070
(lp794
sI26264
(lp795
sI9881
(lp796
I9882
asI9882
(lp797
I9881
asI26267
(lp798
sI9885
(lp799
sI9886
(lp800
sI9887
(lp801
sI18081
(lp802
sI9891
(lp803
sI26278
(lp804
sI18087
(lp805
sI1704
(lp806
sI26282
(lp807
sI9900
(lp808
sI9904
(lp809
sI18100
(lp810
I22431
asI26293
(lp811
sI26294
(lp812
sI11209
(lp813
sI18105
(lp814
sI26298
(lp815
sI18108
(lp816
sI18113
(lp817
sI18115
(lp818
I18338
asI9926
(lp819
I13493
asI9929
(lp820
sI18122
(lp821
sI9931
(lp822
sI1742
(lp823
sI9943
(lp824
sI9944
(lp825
sI26330
(lp826
sI9947
(lp827
sI9954
(lp828
sI18148
(lp829
sI9957
(lp830
sI18152
(lp831
sI26345
(lp832
I14361
asI18157
(lp833
sI26350
(lp834
sI18159
(lp835
sI18161
(lp836
sI9970
(lp837
I22885
asI9972
(lp838
sI26357
(lp839
sI26358
(lp840
sI26359
(lp841
sI9976
(lp842
sI9977
(lp843
sI26362
(lp844
sI26239
(lp845
sI9981
(lp846
sI18174
(lp847
sI26367
(lp848
sI9984
(lp849
sI26369
(lp850
sI26370
(lp851
sI26371
(lp852
sI26374
(lp853
I18781
asI9991
(lp854
sI26376
(lp855
sI22152
(lp856
sI9994
(lp857
sI11223
(lp858
sI18190
(lp859
sI26386
(lp860
sI10003
(lp861
sI18197
(lp862
sI10006
(lp863
I10380
asI18199
(lp864
sI9860
(lp865
sI18206
(lp866
sI26245
(lp867
sI26401
(lp868
sI18211
(lp869
sI18212
(lp870
sI26246
(lp871
sI10023
(lp872
sI26409
(lp873
sI10027
(lp874
sI18223
(lp875
sI10032
(lp876
sI10033
(lp877
sI10034
(lp878
sI10035
(lp879
sI26420
(lp880
sI26421
(lp881
sI10039
(lp882
sI10040
(lp883
sI26432
(lp884
I1144
asI10049
(lp885
sI10050
(lp886
sI18244
(lp887
sI10053
(lp888
sI26441
(lp889
sI26444
(lp890
sI1871
(lp891
sI26448
(lp892
I4015
asI26449
(lp893
I4015
asI1877
(lp894
sI18262
(lp895
sI10078
(lp896
sI1887
(lp897
I1644
aI17904
asI10080
(lp898
sI1891
(lp899
sI10084
(lp900
sI10086
(lp901
I4727
asI26257
(lp902
sI10088
(lp903
I21089
asI5778
(lp904
sI10094
(lp905
sI11240
(lp906
sI10098
(lp907
sI18294
(lp908
sI1912
(lp909
sI10106
(lp910
sI1915
(lp911
sI10108
(lp912
sI1918
(lp913
sI1920
(lp914
sI13974
(lp915
sI17795
(lp916
sI21614
(lp917
I21615
asI10129
(lp918
I24248
asI18322
(lp919
sI18323
(lp920
sI18324
(lp921
sI18328
(lp922
sI18329
(lp923
sI26266
(lp924
sI1954
(lp925
I1955
asI1955
(lp926
I1954
asI18341
(lp927
I1133
asI10150
(lp928
sI18345
(lp929
sI10157
(lp930
I10885
aI14043
asI18078
(lp931
sI10167
(lp932
sI19445
(lp933
sI18368
(lp934
sI18369
(lp935
sI18376
(lp936
sI10185
(lp937
sI18380
(lp938
sI1997
(lp939
sI10193
(lp940
sI18386
(lp941
sI18083
(lp942
sI18392
(lp943
sI18397
(lp944
sI18399
(lp945
sI10212
(lp946
sI10214
(lp947
sI2024
(lp948
sI18411
(lp949
sI2031
(lp950
sI9896
(lp951
sI2035
(lp952
sI10229
(lp953
I5085
asI10231
(lp954
I9059
asI10234
(lp955
sI18090
(lp956
sI18436
(lp957
sI25437
(lp958
sI2062
(lp959
sI18448
(lp960
sI10259
(lp961
sI2068
(lp962
sI10264
(lp963
sI18464
(lp964
sI18096
(lp965
I5407
asI18470
(lp966
sI18471
(lp967
sI18475
(lp968
sI349
(lp969
sI18485
(lp970
sI18486
(lp971
sI9908
(lp972
sI18492
(lp973
sI18494
(lp974
sI2115
(lp975
sI18500
(lp976
sI2117
(lp977
I12709
asI2118
(lp978
I2130
asI18503
(lp979
sI2120
(lp980
sI2121
(lp981
I12709
asI18506
(lp982
sI18507
(lp983
I20007
asI2124
(lp984
sI2129
(lp985
sI2130
(lp986
I2118
aI15679
asI10323
(lp987
sI10324
(lp988
sI18519
(lp989
sI2140
(lp990
sI2146
(lp991
I2147
asI2147
(lp992
I2146
asI2149
(lp993
I20890
asI18534
(lp994
sI2164
(lp995
sI2166
(lp996
sI16746
(lp997
sI10366
(lp998
sI18561
(lp999
sI24939
(lp1000
sI10373
(lp1001
sI18567
(lp1002
sI8556
(lp1003
sI18570
(lp1004
sI10380
(lp1005
I10006
asI2189
(lp1006
sI18578
(lp1007
sI10387
(lp1008
sI18580
(lp1009
I18579
asI2197
(lp1010
sI18584
(lp1011
sI18593
(lp1012
sI2210
(lp1013
sI18600
(lp1014
sI2217
(lp1015
sI18606
(lp1016
sI10419
(lp1017
I14630
asI18613
(lp1018
sI18617
(lp1019
sI14027
(lp1020
sI18632
(lp1021
I18633
asI18633
(lp1022
I18632
asI2258
(lp1023
sI10452
(lp1024
sI10455
(lp1025
sI18650
(lp1026
I921
asI2269
(lp1027
sI10463
(lp1028
sI18664
(lp1029
sI18669
(lp1030
sI18676
(lp1031
sI4478
(lp1032
sI18690
(lp1033
sI10502
(lp1034
I10727
asI18695
(lp1035
sI18696
(lp1036
sI18699
(lp1037
sI18709
(lp1038
sI18712
(lp1039
sI2337
(lp1040
sI390
(lp1041
sI10535
(lp1042
I10902
asI18730
(lp1043
sI20871
(lp1044
sI18733
(lp1045
sI18736
(lp1046
sI18738
(lp1047
sI11315
(lp1048
sI18740
(lp1049
sI393
(lp1050
sI18759
(lp1051
I611
asI18761
(lp1052
I714
asI18146
(lp1053
sI18769
(lp1054
sI22243
(lp1055
sI18774
(lp1056
sI18781
(lp1057
I26374
asI16784
(lp1058
sI18787
(lp1059
sI18794
(lp1060
sI10605
(lp1061
sI18798
(lp1062
I3918
asI18801
(lp1063
sI18804
(lp1064
I4131
aI10896
asI10614
(lp1065
I13673
asI10616
(lp1066
sI18809
(lp1067
sI2434
(lp1068
sI16791
(lp1069
sI2445
(lp1070
sI18841
(lp1071
sI20890
(lp1072
I2149
asI2464
(lp1073
sI10659
(lp1074
sI2470
(lp1075
sI18855
(lp1076
sI18857
(lp1077
sI18858
(lp1078
sI10668
(lp1079
sI18866
(lp1080
I2724
asI18881
(lp1081
sI2500
(lp1082
I2501
asI2501
(lp1083
I2500
asI2503
(lp1084
I16349
asI10696
(lp1085
sI18892
(lp1086
sI11813
(lp1087
sI18895
(lp1088
sI26360
(lp1089
sI18900
(lp1090
sI18901
(lp1091
sI26361
(lp1092
sI2520
(lp1093
sI4516
(lp1094
sI19535
(lp1095
sI10720
(lp1096
sI2529
(lp1097
I24118
aI25425
asI26363
(lp1098
sI18917
(lp1099
sI18918
(lp1100
sI2535
(lp1101
sI10729
(lp1102
sI18088
(lp1103
sI10733
(lp1104
sI2542
(lp1105
sI2550
(lp1106
I23100
aI23101
asI8617
(lp1107
sI10749
(lp1108
I14127
aI14339
aI25456
asI26368
(lp1109
sI10758
(lp1110
sI10759
(lp1111
sI10764
(lp1112
sI10766
(lp1113
sI17243
(lp1114
sI5891
(lp1115
I5894
aI5904
asI18964
(lp1116
sI18967
(lp1117
sI10778
(lp1118
sI18973
(lp1119
I13362
asI18986
(lp1120
sI26375
(lp1121
sI18992
(lp1122
I16804
asI10801
(lp1123
sI18995
(lp1124
sI22281
(lp1125
sI19006
(lp1126
I14363
asI19552
(lp1127
sI19010
(lp1128
sI19018
(lp1129
sI10831
(lp1130
sI2644
(lp1131
sI19035
(lp1132
sI10845
(lp1133
sI5904
(lp1134
I5891
asI19043
(lp1135
I3414
asI2663
(lp1136
I9656
aI9657
aI9663
asI19052
(lp1137
sI19054
(lp1138
sI25659
(lp1139
I1471
asI10865
(lp1140
sI10873
(lp1141
sI10877
(lp1142
sI10879
(lp1143
sI19073
(lp1144
sI10885
(lp1145
I10157
asI10886
(lp1146
sI19080
(lp1147
sI10889
(lp1148
sI10892
(lp1149
I13639
aI25283
asI10896
(lp1150
I18804
asI2705
(lp1151
I23360
asI19090
(lp1152
sI19093
(lp1153
sI10902
(lp1154
I10535
asI2713
(lp1155
I998
aI14399
asI10910
(lp1156
sI10912
(lp1157
sI10915
(lp1158
sI2724
(lp1159
I18866
aI21912
asI12742
(lp1160
sI19115
(lp1161
sI19119
(lp1162
sI10930
(lp1163
sI10932
(lp1164
sI19127
(lp1165
sI19129
(lp1166
I8213
asI18207
(lp1167
sI10941
(lp1168
sI10950
(lp1169
sI19148
(lp1170
sI10960
(lp1171
sI2770
(lp1172
I14158
aI15601
aI19755
aI21708
asI10966
(lp1173
sI10973
(lp1174
sI10975
(lp1175
sI10980
(lp1176
sI10985
(lp1177
sI19179
(lp1178
sI10990
(lp1179
sI10999
(lp1180
sI11000
(lp1181
sI11001
(lp1182
sI11002
(lp1183
sI19199
(lp1184
sI2818
(lp1185
sI19204
(lp1186
sI11020
(lp1187
sI19217
(lp1188
sI11026
(lp1189
sI25551
(lp1190
sI14127
(lp1191
I10749
asI2851
(lp1192
I16332
asI2861
(lp1193
sI11056
(lp1194
sI2868
(lp1195
I23788
asI2869
(lp1196
I24248
asI19255
(lp1197
sI11064
(lp1198
sI11067
(lp1199
sI2876
(lp1200
sI2877
(lp1201
I4018
aI4019
asI11072
(lp1202
sI11073
(lp1203
sI19267
(lp1204
sI4577
(lp1205
sI11083
(lp1206
I1401
asI19276
(lp1207
sI19277
(lp1208
sI19278
(lp1209
sI11088
(lp1210
sI9621
(lp1211
sI25059
(lp1212
sI19284
(lp1213
sI19287
(lp1214
sI2905
(lp1215
sI19292
(lp1216
sI25061
(lp1217
I8838
aI19798
asI11109
(lp1218
sI2923
(lp1219
sI19308
(lp1220
sI19316
(lp1221
sI19317
(lp1222
I3918
asI11126
(lp1223
sI19319
(lp1224
sI11135
(lp1225
I521
asI11136
(lp1226
sI6365
(lp1227
sI11144
(lp1228
sI4589
(lp1229
sI11168
(lp1230
sI2979
(lp1231
sI19370
(lp1232
sI11179
(lp1233
sI11182
(lp1234
I3051
asI2991
(lp1235
sI11184
(lp1236
I3051
asI19377
(lp1237
sI11187
(lp1238
sI19381
(lp1239
sI11192
(lp1240
sI19385
(lp1241
sI3003
(lp1242
sI11196
(lp1243
sI14154
(lp1244
sI19398
(lp1245
sI18252
(lp1246
I968
asI11210
(lp1247
sI11830
(lp1248
I3044
asI11212
(lp1249
sI11213
(lp1250
sI3022
(lp1251
sI3023
(lp1252
I4304
asI20984
(lp1253
sI3031
(lp1254
sI19416
(lp1255
sI19417
(lp1256
sI11234
(lp1257
sI3044
(lp1258
I11830
asI19430
(lp1259
sI19432
(lp1260
sI11241
(lp1261
sI3050
(lp1262
sI3051
(lp1263
I11182
aI11183
aI11184
asI3061
(lp1264
sI24925
(lp1265
I25362
asI3069
(lp1266
sI11262
(lp1267
sI11263
(lp1268
sI4608
(lp1269
sI19459
(lp1270
sI19462
(lp1271
sI11277
(lp1272
sI11281
(lp1273
sI11284
(lp1274
sI19477
(lp1275
sI19485
(lp1276
sI11295
(lp1277
sI11296
(lp1278
sI14171
(lp1279
sI3108
(lp1280
sI12806
(lp1281
sI3117
(lp1282
sI3118
(lp1283
sI11311
(lp1284
sI19507
(lp1285
sI11316
(lp1286
sI11319
(lp1287
sI11320
(lp1288
sI11323
(lp1289
sI16906
(lp1290
sI3141
(lp1291
sI19530
(lp1292
sI11341
(lp1293
sI11343
(lp1294
sI3152
(lp1295
sI11346
(lp1296
sI18275
(lp1297
sI25102
(lp1298
I10321
asI1892
(lp1299
sI3168
(lp1300
sI11362
(lp1301
sI19556
(lp1302
I11496
asI11365
(lp1303
sI11368
(lp1304
sI11370
(lp1305
sI3180
(lp1306
sI18655
(lp1307
sI5993
(lp1308
sI11384
(lp1309
I1401
asI11390
(lp1310
sI19587
(lp1311
sI11397
(lp1312
sI11398
(lp1313
sI22380
(lp1314
sI19594
(lp1315
sI3213
(lp1316
sI19599
(lp1317
sI22748
(lp1318
sI11413
(lp1319
sI19616
(lp1320
sI19622
(lp1321
sI3244
(lp1322
sI13747
(lp1323
sI3246
(lp1324
sI11439
(lp1325
sI23752
(lp1326
sI19634
(lp1327
sI19639
(lp1328
sI11449
(lp1329
sI3259
(lp1330
I8835
asI3261
(lp1331
sI3262
(lp1332
I9220
aI9627
aI25599
asI11458
(lp1333
sI11459
(lp1334
sI3273
(lp1335
I21656
asI3277
(lp1336
sI19662
(lp1337
sI3287
(lp1338
sI3288
(lp1339
sI3289
(lp1340
sI11482
(lp1341
I11481
asI11484
(lp1342
sI11491
(lp1343
sI19686
(lp1344
sI11496
(lp1345
I19556
asI3311
(lp1346
sI11507
(lp1347
I11508
asI11508
(lp1348
I11507
aI14042
asI11510
(lp1349
sI3325
(lp1350
sI3326
(lp1351
sI19711
(lp1352
sI555
(lp1353
sI11529
(lp1354
sI19671
(lp1355
sI3340
(lp1356
sI11541
(lp1357
I11542
asI11542
(lp1358
I11541
asI11543
(lp1359
sI11552
(lp1360
sI23771
(lp1361
I24799
asI11557
(lp1362
sI11559
(lp1363
sI3368
(lp1364
sI19676
(lp1365
sI19755
(lp1366
I2770
asI3373
(lp1367
sI3377
(lp1368
sI25139
(lp1369
sI3386
(lp1370
sI19771
(lp1371
sI25141
(lp1372
sI3397
(lp1373
sI19784
(lp1374
sI3404
(lp1375
sI19789
(lp1376
sI8760
(lp1377
I8755
asI19795
(lp1378
sI25755
(lp1379
sI3414
(lp1380
I970
aI5480
aI19043
aI22344
aI22945
asI19799
(lp1381
sI8762
(lp1382
I8755
asI19809
(lp1383
sI12859
(lp1384
sI23782
(lp1385
sI3431
(lp1386
sI11627
(lp1387
I790
asI19821
(lp1388
sI25149
(lp1389
sI11635
(lp1390
sI11637
(lp1391
sI11638
(lp1392
sI11639
(lp1393
sI25151
(lp1394
sI11644
(lp1395
sI19840
(lp1396
sI3458
(lp1397
I3460
asI3460
(lp1398
I3458
aI12435
aI15107
aI15108
aI15111
aI24020
asI11653
(lp1399
sI11661
(lp1400
sI11665
(lp1401
sI19859
(lp1402
sI9663
(lp1403
I2663
asI11672
(lp1404
sI19867
(lp1405
sI11681
(lp1406
sI11683
(lp1407
sI11687
(lp1408
sI11691
(lp1409
I11692
asI11692
(lp1410
I11691
asI19890
(lp1411
sI11699
(lp1412
sI11701
(lp1413
sI19894
(lp1414
sI3514
(lp1415
sI3520
(lp1416
sI11713
(lp1417
I15215
asI3524
(lp1418
sI19702
(lp1419
sI19912
(lp1420
sI18338
(lp1421
I18115
asI25413
(lp1422
sI11734
(lp1423
sI11735
(lp1424
sI3545
(lp1425
sI11738
(lp1426
sI15610
(lp1427
sI3551
(lp1428
sI3557
(lp1429
sI3564
(lp1430
sI3566
(lp1431
sI11760
(lp1432
sI3569
(lp1433
I3568
asI11762
(lp1434
sI3571
(lp1435
sI11765
(lp1436
sI3576
(lp1437
sI19961
(lp1438
sI11772
(lp1439
sI11773
(lp1440
sI19966
(lp1441
sI3590
(lp1442
sI3597
(lp1443
I3598
asI3598
(lp1444
I3597
asI3603
(lp1445
sI3604
(lp1446
I575
asI22446
(lp1447
sI19990
(lp1448
sI19994
(lp1449
sI3611
(lp1450
I24820
aI25674
asI19996
(lp1451
sI3618
(lp1452
sI25179
(lp1453
sI11812
(lp1454
sI20005
(lp1455
sI20007
(lp1456
I18507
asI20015
(lp1457
I968
asI3634
(lp1458
sI3635
(lp1459
sI12894
(lp1460
sI20022
(lp1461
sI11831
(lp1462
sI20025
(lp1463
I968
asI20030
(lp1464
sI18357
(lp1465
sI20032
(lp1466
sI20033
(lp1467
I611
asI11842
(lp1468
sI20035
(lp1469
I611
asI3654
(lp1470
sI20039
(lp1471
I611
asI3656
(lp1472
sI3657
(lp1473
sI20042
(lp1474
I611
asI20044
(lp1475
I611
asI11481
(lp1476
I11482
asI20049
(lp1477
sI20050
(lp1478
I20051
asI20051
(lp1479
I20050
asI20053
(lp1480
sI20055
(lp1481
sI20056
(lp1482
sI11866
(lp1483
sI11867
(lp1484
sI20062
(lp1485
sI20066
(lp1486
sI3685
(lp1487
sI12125
(lp1488
sI20072
(lp1489
sI20073
(lp1490
sI3690
(lp1491
I3689
aI14955
aI19055
asI3691
(lp1492
sI3692
(lp1493
sI20080
(lp1494
sI3699
(lp1495
sI11892
(lp1496
sI20089
(lp1497
sI11903
(lp1498
sI11909
(lp1499
sI11914
(lp1500
sI24947
(lp1501
I24938
asI11922
(lp1502
sI11925
(lp1503
sI20121
(lp1504
sI8815
(lp1505
sI3741
(lp1506
I4188
asI20126
(lp1507
sI20128
(lp1508
sI20130
(lp1509
sI20147
(lp1510
sI20148
(lp1511
I61
asI20153
(lp1512
sI3772
(lp1513
sI11968
(lp1514
sI11970
(lp1515
sI21110
(lp1516
sI20166
(lp1517
sI20169
(lp1518
sI3786
(lp1519
sI20178
(lp1520
sI11991
(lp1521
sI23845
(lp1522
sI20193
(lp1523
sI20194
(lp1524
sI3813
(lp1525
sI3816
(lp1526
sI1662
(lp1527
sI12926
(lp1528
sI20214
(lp1529
sI3838
(lp1530
sI12928
(lp1531
sI20226
(lp1532
sI15660
(lp1533
sI20251
(lp1534
sI3872
(lp1535
sI3873
(lp1536
sI12066
(lp1537
sI22491
(lp1538
sI12070
(lp1539
sI11569
(lp1540
sI3881
(lp1541
sI20266
(lp1542
sI12077
(lp1543
sI20271
(lp1544
sI3891
(lp1545
I3893
asI3893
(lp1546
I3891
aI15773
asI15951
(lp1547
sI3901
(lp1548
sI24953
(lp1549
sI3905
(lp1550
sI12100
(lp1551
sI20297
(lp1552
sI12106
(lp1553
sI3918
(lp1554
I4826
aI18798
aI19317
aI22594
aI22595
aI22596
aI22598
asI12113
(lp1555
sI12943
(lp1556
sI3933
(lp1557
sI20321
(lp1558
sI3938
(lp1559
sI3940
(lp1560
sI3942
(lp1561
sI3949
(lp1562
sI12146
(lp1563
sI17223
(lp1564
sI3963
(lp1565
sI20349
(lp1566
sI3967
(lp1567
sI20353
(lp1568
sI8854
(lp1569
I790
asI3975
(lp1570
sI20364
(lp1571
sI3982
(lp1572
sI20368
(lp1573
sI3986
(lp1574
sI3991
(lp1575
sI20378
(lp1576
sI6127
(lp1577
sI20382
(lp1578
sI20384
(lp1579
sI20386
(lp1580
sI4004
(lp1581
sI20392
(lp1582
sI4013
(lp1583
sI4015
(lp1584
I790
aI26448
aI26449
asI20401
(lp1585
sI4018
(lp1586
I2877
asI4019
(lp1587
I2877
asI4020
(lp1588
sI20409
(lp1589
sI12219
(lp1590
sI4028
(lp1591
sI4030
(lp1592
sI20417
(lp1593
sI4034
(lp1594
sI17057
(lp1595
sI12234
(lp1596
sI20430
(lp1597
sI4047
(lp1598
sI4051
(lp1599
sI4057
(lp1600
sI20443
(lp1601
sI4064
(lp1602
sI12259
(lp1603
sI4073
(lp1604
sI12266
(lp1605
sI20459
(lp1606
sI20466
(lp1607
sI20468
(lp1608
sI4777
(lp1609
sI4088
(lp1610
sI20475
(lp1611
sI12284
(lp1612
sI20478
(lp1613
sI20479
(lp1614
sI20480
(lp1615
sI19798
(lp1616
I25061
asI20491
(lp1617
sI20493
(lp1618
sI20497
(lp1619
sI20499
(lp1620
sI20502
(lp1621
sI20506
(lp1622
sI20512
(lp1623
sI4131
(lp1624
I18804
asI20517
(lp1625
sI17158
(lp1626
sI12337
(lp1627
I14299
aI22454
asI12338
(lp1628
sI4150
(lp1629
sI20535
(lp1630
sI12344
(lp1631
sI4153
(lp1632
sI4156
(lp1633
I8699
aI8700
asI4157
(lp1634
sI20542
(lp1635
sI17077
(lp1636
sI4166
(lp1637
sI20555
(lp1638
sI20563
(lp1639
sI12374
(lp1640
sI12985
(lp1641
sI20569
(lp1642
sI4188
(lp1643
I3741
asI17082
(lp1644
sI12390
(lp1645
sI3686
(lp1646
sI20594
(lp1647
sI12404
(lp1648
sI12405
(lp1649
sI12413
(lp1650
sI12416
(lp1651
sI20613
(lp1652
I20897
asI20616
(lp1653
sI20620
(lp1654
sI12435
(lp1655
I3460
asI4244
(lp1656
I17858
asI20629
(lp1657
sI20630
(lp1658
sI12439
(lp1659
sI4248
(lp1660
sI708
(lp1661
I709
asI12450
(lp1662
I13275
asI4260
(lp1663
sI4261
(lp1664
sI4262
(lp1665
sI20651
(lp1666
sI12462
(lp1667
sI4271
(lp1668
sI12469
(lp1669
sI17097
(lp1670
sI20676
(lp1671
sI12485
(lp1672
sI12486
(lp1673
sI3689
(lp1674
I3690
asI4296
(lp1675
sI12489
(lp1676
sI12492
(lp1677
sI12494
(lp1678
I25101
asI12495
(lp1679
sI12496
(lp1680
sI12505
(lp1681
sI20699
(lp1682
sI12511
(lp1683
sI13008
(lp1684
sI12517
(lp1685
sI20710
(lp1686
sI20717
(lp1687
I9848
asI4338
(lp1688
sI723
(lp1689
sI20725
(lp1690
sI12535
(lp1691
sI20728
(lp1692
sI4346
(lp1693
sI4348
(lp1694
I4350
asI4350
(lp1695
I4348
asI12543
(lp1696
sI12546
(lp1697
sI20740
(lp1698
sI20741
(lp1699
sI20742
(lp1700
sI4359
(lp1701
sI4362
(lp1702
sI4363
(lp1703
sI12556
(lp1704
sI12557
(lp1705
sI4370
(lp1706
sI20756
(lp1707
sI20764
(lp1708
sI12574
(lp1709
sI20769
(lp1710
sI12578
(lp1711
sI22577
(lp1712
sI25308
(lp1713
sI20778
(lp1714
sI4404
(lp1715
sI12600
(lp1716
sI12601
(lp1717
sI4412
(lp1718
sI12608
(lp1719
sI12617
(lp1720
sI12622
(lp1721
sI4445
(lp1722
I16874
asI12640
(lp1723
sI12644
(lp1724
I17479
aI22525
asI17126
(lp1725
sI4456
(lp1726
sI25790
(lp1727
sI20848
(lp1728
sI12660
(lp1729
sI20861
(lp1730
sI12670
(lp1731
sI4486
(lp1732
sI4487
(lp1733
sI4488
(lp1734
sI12681
(lp1735
sI20874
(lp1736
sI12683
(lp1737
sI4492
(lp1738
sI12686
(lp1739
sI20879
(lp1740
sI18499
(lp1741
sI20884
(lp1742
sI4505
(lp1743
sI4506
(lp1744
sI20897
(lp1745
I20613
asI12706
(lp1746
sI12707
(lp1747
sI12708
(lp1748
sI12709
(lp1749
I2117
aI2121
asI12713
(lp1750
sI2119
(lp1751
sI20908
(lp1752
sI20909
(lp1753
sI20911
(lp1754
sI18505
(lp1755
sI12736
(lp1756
sI4548
(lp1757
sI20934
(lp1758
sI13245
(lp1759
sI25680
(lp1760
sI20943
(lp1761
sI20948
(lp1762
sI20951
(lp1763
I5359
asI4572
(lp1764
sI20961
(lp1765
sI25339
(lp1766
sI10321
(lp1767
I25102
aI25113
asI12778
(lp1768
sI12780
(lp1769
sI12781
(lp1770
sI17149
(lp1771
sI20976
(lp1772
sI2131
(lp1773
sI4600
(lp1774
sI4601
(lp1775
sI13055
(lp1776
sI20988
(lp1777
sI12800
(lp1778
sI4864
(lp1779
I15707
aI15708
asI20994
(lp1780
sI12803
(lp1781
sI4612
(lp1782
sI4614
(lp1783
sI21000
(lp1784
sI4617
(lp1785
sI21007
(lp1786
I14033
asI12816
(lp1787
sI21010
(lp1788
sI21013
(lp1789
sI21014
(lp1790
sI12825
(lp1791
sI12831
(lp1792
sI14339
(lp1793
I10749
asI12833
(lp1794
sI21026
(lp1795
sI12836
(lp1796
I12834
asI8966
(lp1797
sI21030
(lp1798
sI21031
(lp1799
I790
asI21032
(lp1800
sI4653
(lp1801
sI21041
(lp1802
sI4661
(lp1803
sI4662
(lp1804
I4663
asI4663
(lp1805
I4662
asI21051
(lp1806
sI12868
(lp1807
sI7607
(lp1808
sI21068
(lp1809
sI12877
(lp1810
sI21070
(lp1811
sI4688
(lp1812
sI21075
(lp1813
sI12885
(lp1814
sI21082
(lp1815
sI12891
(lp1816
sI4700
(lp1817
sI21086
(lp1818
sI21089
(lp1819
I10088
aI21090
asI21090
(lp1820
I21089
asI25361
(lp1821
sI21099
(lp1822
sI21100
(lp1823
sI4882
(lp1824
sI12911
(lp1825
sI12914
(lp1826
sI4725
(lp1827
sI4726
(lp1828
I4727
asI4727
(lp1829
I4726
aI10086
asI21112
(lp1830
sI25953
(lp1831
sI12925
(lp1832
sI4734
(lp1833
sI21120
(lp1834
sI12929
(lp1835
sI11069
(lp1836
sI12936
(lp1837
sI12937
(lp1838
sI21130
(lp1839
sI4749
(lp1840
sI12942
(lp1841
sI21135
(lp1842
sI12946
(lp1843
sI12947
(lp1844
sI19253
(lp1845
sI12951
(lp1846
sI22639
(lp1847
sI12958
(lp1848
sI7621
(lp1849
sI24709
(lp1850
sI25371
(lp1851
sI4776
(lp1852
sI21161
(lp1853
sI21163
(lp1854
sI12973
(lp1855
sI21171
(lp1856
sI18548
(lp1857
sI21178
(lp1858
sI12990
(lp1859
sI21189
(lp1860
sI801
(lp1861
sI13002
(lp1862
I611
asI21195
(lp1863
sI13007
(lp1864
sI4816
(lp1865
sI13091
(lp1866
sI4826
(lp1867
I3918
aI16517
asI13019
(lp1868
sI21212
(lp1869
sI4832
(lp1870
sI8761
(lp1871
I8755
asI13029
(lp1872
sI25383
(lp1873
sI13036
(lp1874
sI13037
(lp1875
sI13041
(lp1876
sI4853
(lp1877
sI13047
(lp1878
sI4856
(lp1879
sI21246
(lp1880
sI4863
(lp1881
sI21248
(lp1882
sI21250
(lp1883
sI21257
(lp1884
sI21265
(lp1885
I859
asI21266
(lp1886
sI4889
(lp1887
sI4892
(lp1888
sI4894
(lp1889
sI21279
(lp1890
sI21280
(lp1891
sI13090
(lp1892
sI21283
(lp1893
sI13098
(lp1894
sI4907
(lp1895
sI13101
(lp1896
sI13109
(lp1897
sI13111
(lp1898
sI13125
(lp1899
I998
asI13127
(lp1900
sI13129
(lp1901
sI13130
(lp1902
sI4939
(lp1903
sI13132
(lp1904
sI13135
(lp1905
sI13136
(lp1906
I882
asI13138
(lp1907
sI13140
(lp1908
sI13144
(lp1909
sI21339
(lp1910
sI13148
(lp1911
sI4957
(lp1912
sI13152
(lp1913
sI13154
(lp1914
sI21347
(lp1915
sI13158
(lp1916
sI4971
(lp1917
sI2194
(lp1918
sI2195
(lp1919
sI4980
(lp1920
sI4982
(lp1921
sI13176
(lp1922
sI25407
(lp1923
I21697
asI4995
(lp1924
sI13188
(lp1925
sI13201
(lp1926
sI13206
(lp1927
I23383
asI13210
(lp1928
sI13214
(lp1929
sI837
(lp1930
sI21409
(lp1931
sI5031
(lp1932
sI21419
(lp1933
sI21420
(lp1934
sI24718
(lp1935
sI841
(lp1936
sI5048
(lp1937
I611
asI25418
(lp1938
sI5054
(lp1939
sI19957
(lp1940
sI13248
(lp1941
sI6304
(lp1942
sI13250
(lp1943
sI17227
(lp1944
sI13259
(lp1945
sI13261
(lp1946
sI19960
(lp1947
sI25422
(lp1948
sI13274
(lp1949
sI13275
(lp1950
I12450
aI13276
asI13276
(lp1951
I13275
asI5085
(lp1952
I10229
asI13278
(lp1953
sI13280
(lp1954
sI13281
(lp1955
sI25425
(lp1956
I2529
asI13293
(lp1957
sI13294
(lp1958
sI13298
(lp1959
sI13301
(lp1960
sI13302
(lp1961
sI18601
(lp1962
sI4948
(lp1963
sI13310
(lp1964
sI25429
(lp1965
sI13314
(lp1966
sI13322
(lp1967
sI13333
(lp1968
sI13336
(lp1969
sI13337
(lp1970
sI5153
(lp1971
sI5155
(lp1972
sI13351
(lp1973
sI21551
(lp1974
sI21552
(lp1975
sI13361
(lp1976
I13362
asI13362
(lp1977
I13361
aI18973
asI21556
(lp1978
sI21558
(lp1979
sI21567
(lp1980
sI13377
(lp1981
sI13383
(lp1982
sI5192
(lp1983
sI13386
(lp1984
sI5197
(lp1985
sI5216
(lp1986
sI5229
(lp1987
I23091
aI23093
asI5230
(lp1988
sI21615
(lp1989
I21614
asI21618
(lp1990
sI13430
(lp1991
sI25449
(lp1992
sI21625
(lp1993
sI13434
(lp1994
sI13437
(lp1995
sI13441
(lp1996
sI13443
(lp1997
sI5258
(lp1998
sI13454
(lp1999
I13455
asI13455
(lp2000
I13454
asI21650
(lp2001
sI21656
(lp2002
I3273
asI879
(lp2003
sI21665
(lp2004
sI13476
(lp2005
sI5294
(lp2006
sI13490
(lp2007
sI14361
(lp2008
I26345
asI13493
(lp2009
I9926
asI13172
(lp2010
sI21691
(lp2011
sI21692
(lp2012
sI13501
(lp2013
sI13502
(lp2014
sI5313
(lp2015
sI13507
(lp2016
sI5316
(lp2017
sI21701
(lp2018
sI21707
(lp2019
sI21708
(lp2020
I2770
asI21714
(lp2021
sI13526
(lp2022
sI21721
(lp2023
sI13534
(lp2024
sI21727
(lp2025
sI21729
(lp2026
sI13541
(lp2027
sI21736
(lp2028
sI21742
(lp2029
sI5359
(lp2030
I20951
asI21744
(lp2031
sI24104
(lp2032
sI25470
(lp2033
sI21750
(lp2034
sI13563
(lp2035
sI13569
(lp2036
sI21765
(lp2037
sI5387
(lp2038
sI21775
(lp2039
I15433
asI13584
(lp2040
sI21778
(lp2041
sI13588
(lp2042
sI3631
(lp2043
sI5404
(lp2044
sI21791
(lp2045
sI5409
(lp2046
sI5410
(lp2047
sI13606
(lp2048
sI21799
(lp2049
sI13609
(lp2050
sI13612
(lp2051
sI21805
(lp2052
sI13615
(lp2053
sI5425
(lp2054
sI5427
(lp2055
sI13621
(lp2056
sI5434
(lp2057
I5435
asI5435
(lp2058
I5434
asI13630
(lp2059
sI5445
(lp2060
sI13638
(lp2061
sI13639
(lp2062
I10892
asI5450
(lp2063
sI13644
(lp2064
sI13647
(lp2065
sI13648
(lp2066
sI13650
(lp2067
sI13656
(lp2068
sI13664
(lp2069
sI21859
(lp2070
I714
asI13670
(lp2071
sI21863
(lp2072
I714
asI5480
(lp2073
I3414
asI13673
(lp2074
I10614
asI21866
(lp2075
I714
asI5484
(lp2076
sI13677
(lp2077
sI13690
(lp2078
sI5501
(lp2079
sI5505
(lp2080
sI13699
(lp2081
sI13701
(lp2082
sI5516
(lp2083
sI20034
(lp2084
I611
asI13710
(lp2085
sI15939
(lp2086
sI13716
(lp2087
sI21912
(lp2088
I2724
asI13721
(lp2089
sI13722
(lp2090
sI5535
(lp2091
sI21930
(lp2092
sI5547
(lp2093
sI5548
(lp2094
sI5550
(lp2095
sI13743
(lp2096
sI13744
(lp2097
sI11848
(lp2098
sI5555
(lp2099
sI25460
(lp2100
I25459
asI21946
(lp2101
sI11850
(lp2102
sI21950
(lp2103
sI5572
(lp2104
sI5573
(lp2105
sI13771
(lp2106
sI5582
(lp2107
sI5583
(lp2108
sI13782
(lp2109
sI24143
(lp2110
sI21981
(lp2111
sI5598
(lp2112
sI21984
(lp2113
sI5603
(lp2114
sI5610
(lp2115
sI13803
(lp2116
sI22005
(lp2117
sI22011
(lp2118
sI13824
(lp2119
I970
asI5635
(lp2120
sI13830
(lp2121
I970
asI13832
(lp2122
I970
asI5036
(lp2123
sI5643
(lp2124
sI22029
(lp2125
sI11372
(lp2126
sI5660
(lp2127
sI5664
(lp2128
sI5666
(lp2129
sI5672
(lp2130
sI22057
(lp2131
sI22058
(lp2132
sI5675
(lp2133
sI22063
(lp2134
sI13872
(lp2135
sI5683
(lp2136
sI5684
(lp2137
sI11870
(lp2138
sI22070
(lp2139
sI22072
(lp2140
sI13885
(lp2141
sI22078
(lp2142
sI22081
(lp2143
sI5699
(lp2144
sI13893
(lp2145
sI5707
(lp2146
sI3682
(lp2147
sI5710
(lp2148
sI5715
(lp2149
sI5716
(lp2150
sI22102
(lp2151
sI22107
(lp2152
sI5725
(lp2153
sI13919
(lp2154
sI22113
(lp2155
sI13923
(lp2156
sI13925
(lp2157
I26280
asI13926
(lp2158
sI5740
(lp2159
sI13935
(lp2160
sI5744
(lp2161
I5743
asI13937
(lp2162
sI5747
(lp2163
sI13943
(lp2164
I13944
asI13944
(lp2165
I13943
asI11882
(lp2166
sI5760
(lp2167
sI9152
(lp2168
sI11883
(lp2169
sI13956
(lp2170
I13957
asI13957
(lp2171
I13956
asI13959
(lp2172
I1013
aI16520
asI19733
(lp2173
sI5770
(lp2174
sI5773
(lp2175
sI22158
(lp2176
sI13967
(lp2177
sI22160
(lp2178
sI13970
(lp2179
I611
asI13251
(lp2180
sI5781
(lp2181
sI5782
(lp2182
sI19560
(lp2183
sI5790
(lp2184
sI5792
(lp2185
sI24176
(lp2186
sI5796
(lp2187
sI5799
(lp2188
sI13995
(lp2189
sI5804
(lp2190
sI14000
(lp2191
sI26280
(lp2192
I13925
asI5810
(lp2193
sI14005
(lp2194
sI14006
(lp2195
sI5815
(lp2196
sI14009
(lp2197
I14481
asI5819
(lp2198
sI5820
(lp2199
sI14013
(lp2200
sI14015
(lp2201
sI14016
(lp2202
sI14018
(lp2203
sI971
(lp2204
sI5833
(lp2205
sI5835
(lp2206
I24795
asI14029
(lp2207
sI5839
(lp2208
sI14033
(lp2209
I21007
aI25713
asI5843
(lp2210
sI5844
(lp2211
sI5845
(lp2212
I23026
asI14039
(lp2213
sI14041
(lp2214
sI14042
(lp2215
I11508
asI14043
(lp2216
I10157
asI22238
(lp2217
sI5859
(lp2218
sI5860
(lp2219
sI22245
(lp2220
sI20654
(lp2221
sI5874
(lp2222
sI14083
(lp2223
sI982
(lp2224
sI5894
(lp2225
I5891
asI22279
(lp2226
sI22280
(lp2227
sI14089
(lp2228
sI22288
(lp2229
sI17368
(lp2230
sI22290
(lp2231
sI22294
(lp2232
I1523
asI5911
(lp2233
sI14105
(lp2234
sI14107
(lp2235
sI22300
(lp2236
sI5922
(lp2237
sI22307
(lp2238
sI6449
(lp2239
sI22314
(lp2240
sI22317
(lp2241
sI5934
(lp2242
sI25565
(lp2243
sI14139
(lp2244
sI14143
(lp2245
sI22339
(lp2246
sI14151
(lp2247
sI22344
(lp2248
I3414
asI14153
(lp2249
sI22346
(lp2250
sI22347
(lp2251
sI14158
(lp2252
I2770
aI14159
asI14159
(lp2253
I14158
asI22361
(lp2254
sI22362
(lp2255
sI22363
(lp2256
sI22370
(lp2257
sI22372
(lp2258
sI14185
(lp2259
sI14187
(lp2260
sI5996
(lp2261
sI14190
(lp2262
sI14194
(lp2263
sI22387
(lp2264
sI6005
(lp2265
sI14203
(lp2266
sI3733
(lp2267
sI14209
(lp2268
sI6019
(lp2269
sI24478
(lp2270
I24477
asI6029
(lp2271
sI22414
(lp2272
sI22415
(lp2273
sI14225
(lp2274
sI22419
(lp2275
sI14228
(lp2276
sI22422
(lp2277
sI25583
(lp2278
sI22428
(lp2279
sI6045
(lp2280
sI22431
(lp2281
I18100
asI22432
(lp2282
sI22433
(lp2283
sI22441
(lp2284
sI22445
(lp2285
sI6062
(lp2286
sI26389
(lp2287
sI22454
(lp2288
I12337
asI22455
(lp2289
I14363
asI22456
(lp2290
sI22459
(lp2291
I22460
asI22460
(lp2292
I22459
asI14269
(lp2293
sI14271
(lp2294
sI14283
(lp2295
sI22479
(lp2296
sI6096
(lp2297
sI14289
(lp2298
sI1294
(lp2299
I1292
asI25299
(lp2300
sI14298
(lp2301
sI14299
(lp2302
I12337
asI22493
(lp2303
sI22495
(lp2304
sI22498
(lp2305
sI22508
(lp2306
sI22509
(lp2307
sI6126
(lp2308
sI14007
(lp2309
I26053
asI14324
(lp2310
sI14328
(lp2311
sI14329
(lp2312
sI22525
(lp2313
I12644
asI22531
(lp2314
sI22532
(lp2315
sI14342
(lp2316
sI14344
(lp2317
sI14349
(lp2318
sI22549
(lp2319
sI22553
(lp2320
sI22554
(lp2321
sI14363
(lp2322
I19006
aI22455
asI22558
(lp2323
sI14369
(lp2324
sI14377
(lp2325
sI14379
(lp2326
sI14380
(lp2327
sI22573
(lp2328
sI22574
(lp2329
sI14384
(lp2330
sI17416
(lp2331
sI25575
(lp2332
sI14397
(lp2333
sI6206
(lp2334
sI14399
(lp2335
I2713
asI22594
(lp2336
I3918
asI22595
(lp2337
I3918
asI22596
(lp2338
I3918
asI14406
(lp2339
sI22881
(lp2340
sI22602
(lp2341
sI14412
(lp2342
sI14416
(lp2343
I14417
asI14119
(lp2344
I15138
asI22616
(lp2345
sI25615
(lp2346
sI22621
(lp2347
sI22623
(lp2348
sI22625
(lp2349
I10727
asI22626
(lp2350
I10727
asI22627
(lp2351
I10727
asI22629
(lp2352
sI22632
(lp2353
sI22638
(lp2354
sI14447
(lp2355
sI14454
(lp2356
sI14465
(lp2357
sI6276
(lp2358
sI14472
(lp2359
sI14474
(lp2360
sI6288
(lp2361
sI14481
(lp2362
I14009
aI15601
asI17433
(lp2363
sI14490
(lp2364
I14492
asI14492
(lp2365
I14490
asI14493
(lp2366
sI14494
(lp2367
sI14496
(lp2368
sI14506
(lp2369
sI11826
(lp2370
sI14508
(lp2371
sI6317
(lp2372
sI22703
(lp2373
sI22710
(lp2374
sI6331
(lp2375
sI25633
(lp2376
sI22728
(lp2377
sI14543
(lp2378
sI18215
(lp2379
sI13347
(lp2380
sI14555
(lp2381
sI6364
(lp2382
sI14557
(lp2383
sI26399
(lp2384
sI5122
(lp2385
sI15215
(lp2386
I11713
asI14564
(lp2387
sI14573
(lp2388
sI22768
(lp2389
sI24763
(lp2390
sI25641
(lp2391
sI14589
(lp2392
sI14591
(lp2393
sI22787
(lp2394
sI22792
(lp2395
sI22793
(lp2396
sI24491
(lp2397
sI14608
(lp2398
sI22803
(lp2399
sI22805
(lp2400
sI14617
(lp2401
I859
asI6429
(lp2402
sI6437
(lp2403
sI14630
(lp2404
I10419
asI21553
(lp2405
sI6446
(lp2406
I6447
asI6447
(lp2407
I6446
asI22833
(lp2408
sI6455
(lp2409
sI6468
(lp2410
sI5174
(lp2411
sI22854
(lp2412
sI14663
(lp2413
sI14664
(lp2414
sI6473
(lp2415
sI22859
(lp2416
I23078
asI22865
(lp2417
sI14676
(lp2418
sI6485
(lp2419
sI22872
(lp2420
sI6493
(lp2421
I6497
asI14686
(lp2422
sI22879
(lp2423
sI6497
(lp2424
I1008
aI6493
asI14691
(lp2425
sI22885
(lp2426
I9970
asI14695
(lp2427
sI14705
(lp2428
sI22899
(lp2429
sI14708
(lp2430
sI14709
(lp2431
sI14713
(lp2432
sI14718
(lp2433
sI22911
(lp2434
sI14722
(lp2435
sI6544
(lp2436
I6545
asI6545
(lp2437
I6544
asI6546
(lp2438
sI25668
(lp2439
I26186
asI6555
(lp2440
sI22944
(lp2441
sI22945
(lp2442
I3414
asI22948
(lp2443
sI14759
(lp2444
sI14761
(lp2445
sI22954
(lp2446
sI14763
(lp2447
sI14764
(lp2448
sI6576
(lp2449
sI6578
(lp2450
sI14771
(lp2451
sI14772
(lp2452
sI22965
(lp2453
sI22969
(lp2454
sI6586
(lp2455
sI14783
(lp2456
sI14784
(lp2457
sI22977
(lp2458
sI14786
(lp2459
sI22980
(lp2460
sI14793
(lp2461
sI13586
(lp2462
sI16119
(lp2463
I1480
asI22988
(lp2464
sI22990
(lp2465
I1167
asI14799
(lp2466
sI22992
(lp2467
sI26407
(lp2468
sI14804
(lp2469
sI14806
(lp2470
sI23000
(lp2471
sI14817
(lp2472
sI23010
(lp2473
sI23014
(lp2474
sI6635
(lp2475
sI6636
(lp2476
sI23024
(lp2477
sI23026
(lp2478
I5845
asI14836
(lp2479
sI14838
(lp2480
sI23035
(lp2481
I1207
asI23037
(lp2482
sI23038
(lp2483
sI6658
(lp2484
sI6659
(lp2485
sI23044
(lp2486
sI22956
(lp2487
sI23050
(lp2488
sI14859
(lp2489
sI14867
(lp2490
sI6679
(lp2491
sI14873
(lp2492
sI14875
(lp2493
sI15771
(lp2494
sI23070
(lp2495
sI23078
(lp2496
I22859
asI23079
(lp2497
sI6698
(lp2498
sI23091
(lp2499
I5229
asI23093
(lp2500
I5229
asI20233
(lp2501
sI14907
(lp2502
sI23100
(lp2503
I2550
asI23101
(lp2504
I2550
asI6720
(lp2505
sI14919
(lp2506
sI23112
(lp2507
sI23113
(lp2508
sI23114
(lp2509
sI14929
(lp2510
sI14931
(lp2511
sI14937
(lp2512
I37
asI13902
(lp2513
sI6748
(lp2514
sI23137
(lp2515
I23138
asI23138
(lp2516
I23137
asI23139
(lp2517
sI14955
(lp2518
I3690
asI14956
(lp2519
sI23149
(lp2520
sI14959
(lp2521
sI14961
(lp2522
sI14972
(lp2523
sI14975
(lp2524
sI14979
(lp2525
sI14982
(lp2526
sI14987
(lp2527
sI23187
(lp2528
I23425
asI23188
(lp2529
sI13422
(lp2530
sI18884
(lp2531
sI23194
(lp2532
sI6811
(lp2533
sI23196
(lp2534
sI23202
(lp2535
sI12775
(lp2536
sI15016
(lp2537
sI23215
(lp2538
I23901
asI23216
(lp2539
sI2504
(lp2540
sI15028
(lp2541
I15029
asI15029
(lp2542
I15028
asI15034
(lp2543
sI15043
(lp2544
sI6604
(lp2545
sI15051
(lp2546
I839
asI23246
(lp2547
sI15061
(lp2548
sI23256
(lp2549
I23651
asI22991
(lp2550
I1167
asI15069
(lp2551
sI6879
(lp2552
sI15082
(lp2553
sI23279
(lp2554
sI15092
(lp2555
sI6904
(lp2556
sI2516
(lp2557
sI22598
(lp2558
I3918
asI23297
(lp2559
sI15107
(lp2560
I3460
asI15108
(lp2561
I3460
asI23301
(lp2562
sI15111
(lp2563
I3460
asI24364
(lp2564
sI15117
(lp2565
sI23310
(lp2566
sI23311
(lp2567
sI6928
(lp2568
sI9347
(lp2569
sI23316
(lp2570
sI2521
(lp2571
sI15133
(lp2572
sI15137
(lp2573
sI15138
(lp2574
I14119
asI6953
(lp2575
sI23360
(lp2576
I2705
asI14417
(lp2577
I14416
asI15178
(lp2578
I859
asI6626
(lp2579
sI6993
(lp2580
sI15187
(lp2581
sI23383
(lp2582
I13206
asI25744
(lp2583
sI16187
(lp2584
sI23399
(lp2585
sI10727
(lp2586
I10502
aI22625
aI22626
aI22627
asI15213
(lp2587
sI23407
(lp2588
sI25057
(lp2589
sI15223
(lp2590
sI23419
(lp2591
sI23422
(lp2592
sI15232
(lp2593
sI23425
(lp2594
I23187
asI7042
(lp2595
sI23427
(lp2596
sI23429
(lp2597
sI15238
(lp2598
sI23433
(lp2599
sI23434
(lp2600
sI15243
(lp2601
sI15244
(lp2602
sI23440
(lp2603
sI15258
(lp2604
sI7067
(lp2605
sI15260
(lp2606
sI17563
(lp2607
sI15273
(lp2608
sI23467
(lp2609
sI15276
(lp2610
sI18785
(lp2611
sI22604
(lp2612
sI15281
(lp2613
sI23476
(lp2614
sI15289
(lp2615
I15292
aI15293
asI15292
(lp2616
I15289
asI3914
(lp2617
I611
asI15294
(lp2618
sI15300
(lp2619
sI1185
(lp2620
sI15304
(lp2621
sI15306
(lp2622
sI2551
(lp2623
sI15308
(lp2624
sI15310
(lp2625
sI15323
(lp2626
sI15324
(lp2627
sI15328
(lp2628
sI15329
(lp2629
sI15330
(lp2630
sI26295
(lp2631
sI15336
(lp2632
sI25767
(lp2633
sI15350
(lp2634
sI15353
(lp2635
sI15357
(lp2636
sI17151
(lp2637
sI18945
(lp2638
sI7176
(lp2639
sI25772
(lp2640
sI14851
(lp2641
sI23426
(lp2642
sI9392
(lp2643
sI15396
(lp2644
sI22608
(lp2645
sI15401
(lp2646
sI23598
(lp2647
sI7215
(lp2648
sI15408
(lp2649
sI15412
(lp2650
sI15413
(lp2651
sI15417
(lp2652
sI15419
(lp2653
sI15423
(lp2654
sI15433
(lp2655
I21775
asI15435
(lp2656
sI15436
(lp2657
sI15437
(lp2658
sI15439
(lp2659
sI15443
(lp2660
sI15444
(lp2661
sI25785
(lp2662
sI15453
(lp2663
sI23651
(lp2664
I23256
asI9406
(lp2665
I9407
asI21697
(lp2666
I25407
asI15496
(lp2667
sI7314
(lp2668
I7966
asI21700
(lp2669
sI15522
(lp2670
sI15523
(lp2671
sI15525
(lp2672
sI15560
(lp2673
I275
asI15563
(lp2674
sI25805
(lp2675
sI15568
(lp2676
sI23762
(lp2677
sI7380
(lp2678
sI15579
(lp2679
sI23772
(lp2680
sI23774
(lp2681
sI23775
(lp2682
sI23776
(lp2683
sI23777
(lp2684
I2188
asI15586
(lp2685
sI15587
(lp2686
sI17977
(lp2687
sI15590
(lp2688
sI25809
(lp2689
sI23786
(lp2690
sI23788
(lp2691
I2868
asI15601
(lp2692
I2770
aI14481
asI7410
(lp2693
sI15603
(lp2694
sI23797
(lp2695
sI23802
(lp2696
sI24447
(lp2697
sI23082
(lp2698
sI15615
(lp2699
sI15616
(lp2700
sI15617
(lp2701
sI15621
(lp2702
sI15624
(lp2703
sI15627
(lp2704
sI15629
(lp2705
sI15634
(lp2706
sI23829
(lp2707
sI25818
(lp2708
sI15649
(lp2709
sI15650
(lp2710
sI15651
(lp2711
sI15653
(lp2712
sI15657
(lp2713
sI7468
(lp2714
sI15661
(lp2715
sI24799
(lp2716
I23771
asI15669
(lp2717
sI24457
(lp2718
sI23866
(lp2719
sI13535
(lp2720
sI15679
(lp2721
I2130
asI15681
(lp2722
sI23883
(lp2723
I1351
asI15700
(lp2724
sI23895
(lp2725
sI15707
(lp2726
I4864
asI15708
(lp2727
I4864
asI23901
(lp2728
I23215
asI15710
(lp2729
sI23908
(lp2730
sI796
(lp2731
sI23911
(lp2732
sI15720
(lp2733
sI23914
(lp2734
sI15724
(lp2735
sI23918
(lp2736
sI23931
(lp2737
sI15741
(lp2738
sI23936
(lp2739
sI23944
(lp2740
sI23956
(lp2741
sI21743
(lp2742
sI15773
(lp2743
I3893
asI15775
(lp2744
sI15777
(lp2745
sI15778
(lp2746
sI15779
(lp2747
sI15781
(lp2748
sI15787
(lp2749
sI24477
(lp2750
I24478
asI8982
(lp2751
sI12190
(lp2752
sI15799
(lp2753
sI23994
(lp2754
sI9461
(lp2755
sI9462
(lp2756
sI15815
(lp2757
sI15817
(lp2758
I15818
asI15818
(lp2759
I15817
asI15820
(lp2760
sI15821
(lp2761
sI15822
(lp2762
sI15824
(lp2763
sI24020
(lp2764
I3460
asI15831
(lp2765
sI24029
(lp2766
sI1275
(lp2767
sI24039
(lp2768
sI15848
(lp2769
sI15850
(lp2770
sI24046
(lp2771
sI24048
(lp2772
sI24053
(lp2773
sI24060
(lp2774
sI16299
(lp2775
sI24080
(lp2776
sI15892
(lp2777
sI12207
(lp2778
sI7708
(lp2779
sI24093
(lp2780
I18022
asI15902
(lp2781
sI15905
(lp2782
sI24099
(lp2783
sI12209
(lp2784
sI15912
(lp2785
sI24110
(lp2786
sI19037
(lp2787
sI24117
(lp2788
sI24118
(lp2789
I2529
asI25865
(lp2790
sI24120
(lp2791
sI15937
(lp2792
sI15938
(lp2793
sI9483
(lp2794
sI24133
(lp2795
sI24134
(lp2796
sI24136
(lp2797
sI1292
(lp2798
I1293
aI1294
asI1293
(lp2799
I1292
asI15953
(lp2800
I968
asI15956
(lp2801
sI25870
(lp2802
sI15967
(lp2803
sI10079
(lp2804
I37
asI15975
(lp2805
sI15976
(lp2806
sI15981
(lp2807
sI7792
(lp2808
sI20414
(lp2809
sI15992
(lp2810
sI15993
(lp2811
sI25877
(lp2812
sI16320
(lp2813
sI24194
(lp2814
sI24197
(lp2815
sI16007
(lp2816
I8213
asI23148
(lp2817
sI9495
(lp2818
sI16019
(lp2819
sI16023
(lp2820
sI24217
(lp2821
sI19055
(lp2822
I3690
asI16032
(lp2823
sI7841
(lp2824
sI24228
(lp2825
sI16037
(lp2826
sI7847
(lp2827
sI25884
(lp2828
sI24236
(lp2829
sI16328
(lp2830
sI7860
(lp2831
sI24248
(lp2832
I2869
aI10129
asI8718
(lp2833
sI5407
(lp2834
I18096
asI7869
(lp2835
sI24524
(lp2836
sI24270
(lp2837
sI7891
(lp2838
sI24278
(lp2839
sI24284
(lp2840
sI24287
(lp2841
sI24289
(lp2842
sI24295
(lp2843
sI16104
(lp2844
sI24297
(lp2845
sI24298
(lp2846
sI24299
(lp2847
sI16109
(lp2848
sI24302
(lp2849
sI24305
(lp2850
sI16117
(lp2851
I1480
asI24311
(lp2852
sI24532
(lp2853
sI24321
(lp2854
sI24323
(lp2855
sI24324
(lp2856
sI16137
(lp2857
sI15813
(lp2858
sI24336
(lp2859
sI12540
(lp2860
sI7966
(lp2861
I7314
asI16166
(lp2862
sI16169
(lp2863
sI16172
(lp2864
sI24365
(lp2865
sI24366
(lp2866
sI24541
(lp2867
sI24369
(lp2868
sI16178
(lp2869
sI21811
(lp2870
sI24379
(lp2871
I25968
asI16192
(lp2872
sI25910
(lp2873
sI812
(lp2874
sI20998
(lp2875
sI24401
(lp2876
sI24402
(lp2877
sI20451
(lp2878
sI24404
(lp2879
sI16214
(lp2880
sI16218
(lp2881
sI24415
(lp2882
sI24420
(lp2883
sI16230
(lp2884
sI24424
(lp2885
sI24425
(lp2886
I16804
asI25917
(lp2887
sI16635
(lp2888
sI16251
(lp2889
sI16255
(lp2890
sI16259
(lp2891
sI16262
(lp2892
sI16265
(lp2893
sI16267
(lp2894
sI24462
(lp2895
sI24466
(lp2896
I25013
asI15002
(lp2897
sI8094
(lp2898
sI13637
(lp2899
sI16288
(lp2900
sI24486
(lp2901
sI24488
(lp2902
sI24490
(lp2903
sI25927
(lp2904
sI17736
(lp2905
sI24501
(lp2906
sI9545
(lp2907
sI16910
(lp2908
sI24508
(lp2909
I859
asI24509
(lp2910
sI24512
(lp2911
sI16322
(lp2912
sI16327
(lp2913
I611
asI24520
(lp2914
sI16331
(lp2915
sI16332
(lp2916
I2851
asI24527
(lp2917
sI16336
(lp2918
sI16340
(lp2919
sI24538
(lp2920
sI24549
(lp2921
sI16349
(lp2922
I2503
asI16351
(lp2923
sI4091
(lp2924
sI11183
(lp2925
I3051
asI24556
(lp2926
I25976
asI24560
(lp2927
sI24561
(lp2928
s.