(dp0
I15360
(lp1
sI18532
(lp2
sI8706
(lp3
I6216
asI15875
(lp4
I1194
asI9221
(lp5
I2460
asI4102
(lp6
I1578
asI9223
(lp7
sI4104
(lp8
I1578
asI1034
(lp9
I1614
asI3084
(lp10
I811
aI5366
aI11140
aI13976
asI4098
(lp11
I1578
aI10171
asI1550
(lp12
I18110
aI18114
asI4111
(lp13
I1578
asI1553
(lp14
sI21011
(lp15
I811
asI26286
(lp16
sI5143
(lp17
sI1048
(lp18
I947
asI1049
(lp19
I947
asI21019
(lp20
I811
asI21022
(lp21
I811
asI13998
(lp22
I811
asI21025
(lp23
I811
asI21027
(lp24
I811
asI2599
(lp25
I811
aI14698
asI1576
(lp26
I1578
aI1580
asI21033
(lp27
I811
asI1578
(lp28
I1576
aI4096
aI4098
aI4102
aI4103
aI4104
aI4109
aI4111
asI4103
(lp29
I1578
asI1580
(lp30
I1576
asI21039
(lp31
I811
asI2951
(lp32
sI19001
(lp33
sI4155
(lp34
I811
asI21053
(lp35
I811
asI3851
(lp36
I1194
aI3850
aI19248
asI6216
(lp37
I4251
aI8706
asI5193
(lp38
I5194
asI5194
(lp39
I811
aI5193
aI16873
asI5195
(lp40
I5196
asI5196
(lp41
I5195
aI11171
aI11177
aI11178
asI1614
(lp42
I1034
asI4109
(lp43
I1578
asI15955
(lp44
I2460
aI4414
asI22101
(lp45
sI21706
(lp46
sI5732
(lp47
I5733
asI1125
(lp48
I893
asI13920
(lp49
I1194
asI26210
(lp50
I7911
asI14523
(lp51
I12566
asI2660
(lp52
I811
asI5733
(lp53
I811
aI5732
asI1041
(lp54
I947
asI8813
(lp55
I2439
asI10350
(lp56
I10429
aI14767
aI14797
asI9661
(lp57
I1194
aI11454
aI14723
asI1136
(lp58
sI3698
(lp59
I811
aI9215
asI18110
(lp60
I1550
aI18114
asI13431
(lp61
I811
asI8829
(lp62
sI4739
(lp63
sI4096
(lp64
I1578
asI17035
(lp65
I811
asI11916
(lp66
sI25710
(lp67
I2479
aI25535
asI13976
(lp68
I3084
asI4251
(lp69
I6216
asI25757
(lp70
sI1701
(lp71
I1702
aI1703
aI1705
asI1702
(lp72
I1701
asI1703
(lp73
I1701
aI12566
aI15036
asI2216
(lp74
sI892
(lp75
I893
asI1194
(lp76
I811
aI3851
aI4897
aI9661
aI11619
aI13920
aI14833
aI15866
aI15870
aI15871
aI15875
asI23214
(lp77
I21722
asI3771
(lp78
sI15036
(lp79
I1703
asI10429
(lp80
I10350
aI14723
aI16605
asI11454
(lp81
I9215
aI9658
aI9661
asI10944
(lp82
I811
asI18114
(lp83
I1550
aI18110
asI4808
(lp84
I4476
asI9930
(lp85
I811
asI14797
(lp86
I10350
asI10451
(lp87
I811
asI21722
(lp88
I23214
asI1245
(lp89
sI25311
(lp90
I21049
asI23270
(lp91
sI7911
(lp92
I811
aI26210
asI6889
(lp93
I4476
asI5867
(lp94
I5868
asI5868
(lp95
I811
aI5867
aI14829
asI25042
(lp96
I25043
asI4136
(lp97
I893
asI3826
(lp98
I811
asI18899
(lp99
I4476
asI756
(lp100
sI5366
(lp101
I3084
aI11150
aI16338
aI16339
asI4855
(lp102
I811
asI4858
(lp103
I811
asI9983
(lp104
I811
aI22922
asI20736
(lp105
I1494
asI22513
(lp106
I10615
asI14084
(lp107
I14723
asI26378
(lp108
sI2827
(lp109
I811
aI2460
asI14723
(lp110
I9661
aI10429
aI14084
asI12566
(lp111
I1703
aI1705
aI14523
asI26392
(lp112
I11140
asI11140
(lp113
I811
aI3084
aI26392
asI3290
(lp114
I811
asI20766
(lp115
I2479
asI24965
(lp116
sI4897
(lp117
I1194
aI19248
asI26410
(lp118
sI811
(lp119
I893
aI902
aI947
aI1194
aI2460
aI2599
aI2660
aI2827
aI3084
aI3290
aI3698
aI3826
aI4001
aI4155
aI4403
aI4855
aI4858
aI4925
aI5194
aI5733
aI5868
aI7911
aI9930
aI9983
aI10083
aI10451
aI10550
aI10615
aI10944
aI11140
aI13431
aI13998
aI14285
aI14697
aI16338
aI17035
aI18266
aI18446
aI18800
aI19333
aI21011
aI21019
aI21022
aI21025
aI21027
aI21033
aI21039
aI21049
aI21053
asI16605
(lp120
I10429
asI19248
(lp121
I3851
aI4897
asI4403
(lp122
I811
aI8701
asI10550
(lp123
I811
asI26424
(lp124
sI26428
(lp125
sI4925
(lp126
I811
asI4414
(lp127
I5095
aI15955
aI20860
asI4928
(lp128
sI10920
(lp129
sI11619
(lp130
I1194
asI12612
(lp131
sI12616
(lp132
I4476
asI2378
(lp133
sI2382
(lp134
sI11178
(lp135
I5196
asI21049
(lp136
I811
aI25311
asI18266
(lp137
I811
asI10083
(lp138
I811
asI10600
(lp139
I4476
asI14697
(lp140
I811
asI14698
(lp141
I2479
aI2599
asI18800
(lp142
I811
asI10615
(lp143
I811
aI22513
asI4475
(lp144
I4476
asI4476
(lp145
I4475
aI4808
aI6889
aI7112
aI10600
aI12616
aI18899
asI893
(lp146
I811
aI892
aI1125
aI4136
asI18303
(lp147
sI22336
(lp148
I2479
asI24962
(lp149
sI24963
(lp150
sI14212
(lp151
sI19333
(lp152
I811
asI902
(lp153
I811
asI2439
(lp154
I8813
asI22922
(lp155
I9983
asI4491
(lp156
I22960
asI11150
(lp157
I5366
asI20860
(lp158
I4414
asI4500
(lp159
I2479
asI2460
(lp160
I811
aI2827
aI9221
aI15955
asI4001
(lp161
I811
asI11171
(lp162
I5196
asI14833
(lp163
I1194
asI11177
(lp164
I5196
asI3850
(lp165
I3851
asI2479
(lp166
I4500
aI14698
aI20766
aI22336
aI25710
asI22960
(lp167
I4491
asI947
(lp168
I811
aI1041
aI1048
aI1049
asI4023
(lp169
sI14767
(lp170
I10350
asI9658
(lp171
I11454
asI10171
(lp172
I4098
asI4541
(lp173
sI25535
(lp174
I25710
asI7112
(lp175
I4476
asI9163
(lp176
sI14285
(lp177
I811
asI25043
(lp178
I25042
asI16338
(lp179
I811
aI5366
aI26108
asI16339
(lp180
I5366
asI1494
(lp181
I20736
asI13903
(lp182
sI5095
(lp183
I4414
asI1000
(lp184
sI16873
(lp185
I5194
asI18446
(lp186
I811
asI14829
(lp187
I5868
asI8701
(lp188
I4403
asI1009
(lp189
sI1705
(lp190
I1701
aI12566
asI15866
(lp191
I1194
asI15871
(lp192
I1194
asI26108
(lp193
I16338
asI12714
(lp194
sI15870
(lp195
I1194
asI9215
(lp196
I3698
aI11454
as.