(dp0
I4099
(lp1
sI16389
(lp2
I1612
asI4106
(lp3
sI4118
(lp4
sI24602
(lp5
I10561
asI22533
(lp6
I1617
asI2086
(lp7
sI2087
(lp8
sI9564
(lp9
sI10285
(lp10
I11132
aI22003
asI2097
(lp11
sI4148
(lp12
sI2101
(lp13
I1452
aI11382
asI20537
(lp14
sI20541
(lp15
I10025
asI4160
(lp16
I4162
asI4162
(lp17
I1408
aI3858
aI4008
aI4160
aI5748
aI11700
aI17905
aI21077
aI21154
aI21690
aI22142
aI22143
aI23155
aI23156
aI23157
asI2401
(lp18
I676
asI4170
(lp19
sI10333
(lp20
sI2162
(lp21
sI20597
(lp22
sI16504
(lp23
sI125
(lp24
I19295
aI21689
aI23156
aI25798
asI2201
(lp25
sI2211
(lp26
sI2230
(lp27
sI22712
(lp28
sI4291
(lp29
sI14538
(lp30
sI14551
(lp31
sI17787
(lp32
sI20713
(lp33
sI2284
(lp34
sI2286
(lp35
I719
asI12528
(lp36
sI243
(lp37
I245
asI245
(lp38
I243
aI2316
aI2352
aI11907
aI11923
aI11924
aI11931
aI11932
aI11933
aI11938
aI11942
aI11944
asI2295
(lp39
sI24837
(lp40
sI2316
(lp41
I245
asI2321
(lp42
I20071
asI16664
(lp43
sI2330
(lp44
sI18719
(lp45
sI2339
(lp46
sI13702
(lp47
sI2344
(lp48
I2468
asI2349
(lp49
sI2352
(lp50
I245
asI12595
(lp51
sI22836
(lp52
I2650
asI12597
(lp53
sI2358
(lp54
I2399
asI316
(lp55
sI10561
(lp56
I5726
aI24602
asI24903
(lp57
sI24905
(lp58
sI24909
(lp59
sI20816
(lp60
sI24915
(lp61
sI24916
(lp62
sI2389
(lp63
sI24919
(lp64
sI24921
(lp65
sI2399
(lp66
I2358
aI19291
aI20262
aI20263
aI20264
aI20265
asI24929
(lp67
sI12658
(lp68
I9521
asI2419
(lp69
sI2421
(lp70
sI2426
(lp71
sI12668
(lp72
I9521
asI2429
(lp73
sI2436
(lp74
sI14725
(lp75
sI20870
(lp76
I1457
asI14741
(lp77
I13488
asI2468
(lp78
I1968
aI1980
aI1987
aI2344
aI4575
aI4593
aI18029
aI18031
aI18349
asI2469
(lp79
I1970
aI1974
aI1976
aI4569
aI4595
aI15632
aI18029
aI18031
asI2481
(lp80
I2482
aI2485
asI2482
(lp81
I2481
asI2485
(lp82
I2481
asI22973
(lp83
sI18886
(lp84
sI10695
(lp85
sI459
(lp86
I21116
asI18902
(lp87
sI4569
(lp88
I2469
asI4575
(lp89
I2468
asI18919
(lp90
sI16881
(lp91
sI4595
(lp92
I1065
aI2469
asI8692
(lp93
sI2567
(lp94
sI1452
(lp95
I1558
aI2101
asI16913
(lp96
sI10179
(lp97
sI14879
(lp98
sI551
(lp99
sI18993
(lp100
sI18998
(lp101
sI571
(lp102
sI8765
(lp103
sI8773
(lp104
sI14923
(lp105
sI21071
(lp106
sI21073
(lp107
sI21077
(lp108
I4162
asI14935
(lp109
sI2650
(lp110
I3522
aI7526
aI22521
aI22836
aI24045
aI24049
asI23140
(lp111
sI14952
(lp112
sI19901
(lp113
sI23155
(lp114
I3857
aI4162
asI12916
(lp115
sI23157
(lp116
I3857
aI4162
asI23162
(lp117
I23163
asI23163
(lp118
I23162
asI21116
(lp119
I459
asI12932
(lp120
sI17029
(lp121
sI23186
(lp122
sI21144
(lp123
sI15003
(lp124
sI2719
(lp125
sI672
(lp126
sI21154
(lp127
I3857
aI4162
asI676
(lp128
I2401
asI12966
(lp129
sI23211
(lp130
sI689
(lp131
I691
asI691
(lp132
I689
asI16501
(lp133
sI18027
(lp134
I5932
asI8905
(lp135
sI719
(lp136
I2286
asI4593
(lp137
I2468
asI5927
(lp138
sI10025
(lp139
I20541
asI2518
(lp140
sI15112
(lp141
sI15113
(lp142
sI23315
(lp143
sI25395
(lp144
sI822
(lp145
sI4919
(lp146
sI21314
(lp147
sI843
(lp148
I844
aI845
asI844
(lp149
I843
asI845
(lp150
I843
asI4942
(lp151
sI4954
(lp152
sI19291
(lp153
I2399
aI20029
aI20031
asI19295
(lp154
I125
aI14066
asI9062
(lp155
sI873
(lp156
sI4978
(lp157
sI11132
(lp158
I10285
asI15250
(lp159
sI9711
(lp160
I9712
aI9713
aI9717
asI1970
(lp161
I1959
aI2469
asI9713
(lp162
I9711
asI5032
(lp163
sI5080
(lp164
sI994
(lp165
I9521
asI15331
(lp166
sI3053
(lp167
I9521
asI9206
(lp168
sI23555
(lp169
sI7173
(lp170
sI25607
(lp171
sI25609
(lp172
sI5131
(lp173
sI3092
(lp174
sI19483
(lp175
sI9245
(lp176
sI11299
(lp177
sI15400
(lp178
sI1065
(lp179
I1974
aI1992
aI4595
asI15407
(lp180
sI23612
(lp181
sI4280
(lp182
sI17905
(lp183
I3857
aI4162
asI11382
(lp184
I2101
aI16131
asI17257
(lp185
sI1163
(lp186
sI11404
(lp187
I1408
asI11405
(lp188
sI1903
(lp189
I1427
asI1190
(lp190
I1191
asI1191
(lp191
I1190
asI21674
(lp192
sI13488
(lp193
I14741
asI21682
(lp194
sI1205
(lp195
sI21689
(lp196
I125
aI3857
aI14066
aI21690
asI21690
(lp197
I4162
aI21689
asI25798
(lp198
I125
asI3321
(lp199
sI19713
(lp200
I3522
asI19715
(lp201
I3522
asI9486
(lp202
I3857
asI5677
(lp203
sI15632
(lp204
I2469
asI13589
(lp205
sI3351
(lp206
sI9497
(lp207
sI1308
(lp208
sI1316
(lp209
I15973
asI1318
(lp210
I1901
aI15819
asI15655
(lp211
sI15656
(lp212
sI1323
(lp213
sI9521
(lp214
I994
aI3053
aI11724
aI12658
aI12668
asI23878
(lp215
sI5449
(lp216
sI19790
(lp217
sI1365
(lp218
sI1372
(lp219
sI7526
(lp220
I2650
asI9594
(lp221
sI13887
(lp222
sI1408
(lp223
I4162
aI11404
aI11700
asI21889
(lp224
sI9606
(lp225
sI9607
(lp226
sI1427
(lp227
I1684
aI1900
aI1901
aI1902
aI1903
aI1906
asI17816
(lp228
sI11679
(lp229
sI5537
(lp230
I1457
asI3500
(lp231
sI1457
(lp232
I5537
aI5606
aI20870
asI24819
(lp233
sI11700
(lp234
I1408
aI3857
aI4162
asI26045
(lp235
sI3521
(lp236
I3522
asI3522
(lp237
I2650
aI3521
aI19713
aI19715
asI7619
(lp238
sI1476
(lp239
sI1477
(lp240
sI15819
(lp241
I1318
asI11724
(lp242
I1612
aI9521
asI3540
(lp243
sI3542
(lp244
sI3544
(lp245
sI20031
(lp246
I19291
asI24034
(lp247
I3857
asI5606
(lp248
I1457
asI24045
(lp249
I2650
asI26095
(lp250
I1616
asI9712
(lp251
I9711
asI24049
(lp252
I2650
asI22003
(lp253
I10285
asI9717
(lp254
I9711
asI3579
(lp255
sI26110
(lp256
sI26115
(lp257
sI11783
(lp258
I12061
asI1965
(lp259
I1959
asI1558
(lp260
I1452
asI1628
(lp261
sI1581
(lp262
sI15925
(lp263
sI20029
(lp264
I19291
asI5695
(lp265
sI13895
(lp266
sI1612
(lp267
I11724
aI16389
asI1616
(lp268
I26095
asI1617
(lp269
I22533
asI1623
(lp270
sI11868
(lp271
sI5726
(lp272
I10561
asI20063
(lp273
sI15973
(lp274
I1316
asI20071
(lp275
I2321
asI13931
(lp276
sI18029
(lp277
I2468
aI2469
asI18031
(lp278
I2468
aI2469
asI11891
(lp279
sI5748
(lp280
I3857
aI4162
asI22142
(lp281
I4162
aI22143
asI22143
(lp282
I4162
aI22142
asI11907
(lp283
I245
asI26244
(lp284
sI11923
(lp285
I245
asI1684
(lp286
I1427
asI11931
(lp287
I245
asI11932
(lp288
I245
asI11933
(lp289
I245
asI11938
(lp290
I245
asI11942
(lp291
I245
asI26279
(lp292
sI11944
(lp293
I245
asI23156
(lp294
I125
aI4162
asI18109
(lp295
sI3785
(lp296
sI9128
(lp297
sI14055
(lp298
sI14066
(lp299
I19295
aI21689
asI3832
(lp300
sI16129
(lp301
sI16131
(lp302
I11382
asI26381
(lp303
I5932
asI3856
(lp304
I3857
aI3858
asI3857
(lp305
I3856
aI5748
aI9486
aI11700
aI17905
aI21154
aI21689
aI23155
aI23157
aI24034
asI3858
(lp306
I3856
aI4162
asI18051
(lp307
sI12061
(lp308
I11783
asI10015
(lp309
sI20262
(lp310
I2399
asI20263
(lp311
I2399
asI20264
(lp312
I2399
asI20265
(lp313
I2399
asI5932
(lp314
I18027
aI26381
asI12598
(lp315
sI10060
(lp316
sI1872
(lp317
sI1876
(lp318
I22385
asI18281
(lp319
sI1900
(lp320
I1427
asI1901
(lp321
I1318
aI1427
asI1902
(lp322
I1427
asI18287
(lp323
sI3952
(lp324
sI22385
(lp325
I1876
asI1906
(lp326
I1427
asI10103
(lp327
sI11924
(lp328
I245
asI8060
(lp329
sI1919
(lp330
sI16271
(lp331
sI24482
(lp332
sI24484
(lp333
sI1959
(lp334
I1965
aI1967
aI1968
aI1970
aI1974
aI1976
aI1978
aI1980
aI1981
aI1985
aI1987
aI1988
aI1989
aI1992
asI4008
(lp335
I4162
asI16300
(lp336
sI18349
(lp337
I2468
asI1967
(lp338
I1959
asI1968
(lp339
I1959
aI2468
asI16306
(lp340
sI1974
(lp341
I1065
aI1959
aI2469
asI1976
(lp342
I1959
aI2469
asI1978
(lp343
I1959
asI1980
(lp344
I1959
aI2468
asI1981
(lp345
I1959
asI24511
(lp346
sI1985
(lp347
I1959
asI1987
(lp348
I1959
aI2468
asI1988
(lp349
I1959
asI1989
(lp350
I1959
asI1992
(lp351
I1065
aI1959
asI18379
(lp352
sI24542
(lp353
sI4082
(lp354
sI22521
(lp355
I2650
as.