(dp0
I22507
(lp1
sI10117
(lp2
I3374
asI9480
(lp3
I3374
asI6410
(lp4
sI25906
(lp5
I1944
asI13520
(lp6
I9234
asI16039
(lp7
sI25335
(lp8
I25336
asI4624
(lp9
sI4888
(lp10
sI3346
(lp11
sI10051
(lp12
sI20398
(lp13
I1944
asI9366
(lp14
sI1944
(lp15
I20398
aI24072
aI25399
aI25906
aI26198
asI4762
(lp16
sI9368
(lp17
sI16176
(lp18
I1488
asI9233
(lp19
I9234
asI16070
(lp20
sI1063
(lp21
sI12841
(lp22
sI10923
(lp23
sI25613
(lp24
sI23213
(lp25
sI3374
(lp26
I9480
aI10117
aI16508
asI16048
(lp27
sI24072
(lp28
I1944
asI5938
(lp29
I22862
asI16084
(lp30
sI25399
(lp31
I1944
asI16049
(lp32
sI735
(lp33
I2510
asI5948
(lp34
sI22218
(lp35
sI25406
(lp36
sI2507
(lp37
I2509
aI2510
aI2512
asI2509
(lp38
I2507
asI5958
(lp39
sI15440
(lp40
I1488
asI25161
(lp41
sI3274
(lp42
sI2251
(lp43
I2253
asI4450
(lp44
sI2510
(lp45
I735
aI2507
aI2512
asI2253
(lp46
I2251
asI1488
(lp47
I15440
aI16176
asI25336
(lp48
I4204
aI25335
asI15699
(lp49
sI10964
(lp50
I2047
asI3278
(lp51
sI26198
(lp52
I1944
asI22313
(lp53
sI11157
(lp54
I2298
asI602
(lp55
I2298
asI9338
(lp56
sI20575
(lp57
sI22240
(lp58
sI2512
(lp59
I2507
aI2510
asI866
(lp60
sI25829
(lp61
I4204
asI15121
(lp62
sI20714
(lp63
sI3307
(lp64
sI4204
(lp65
I9234
aI25336
aI25829
asI9234
(lp66
I4204
aI9233
aI13520
asI15486
(lp67
sI22227
(lp68
sI22862
(lp69
I5938
asI2046
(lp70
I2047
asI9335
(lp71
sI13048
(lp72
sI18516
(lp73
I2047
asI2298
(lp74
I602
aI11157
asI16508
(lp75
I3374
asI22398
(lp76
sI2047
(lp77
I2046
aI10964
aI18516
as.