(dp0
I6657
(lp1
I82
asI14852
(lp2
I9046
asI5206
(lp3
sI4107
(lp4
I82
asI19040
(lp5
I16642
asI8330
(lp6
I82
asI8048
(lp7
I82
asI12330
(lp8
I814
asI7216
(lp9
I82
aI26422
asI1593
(lp10
I8406
aI13599
aI19712
asI570
(lp11
I82
aI2767
aI7955
aI14681
asI19041
(lp12
I16642
asI5182
(lp13
I1142
asI2624
(lp14
I82
asI24129
(lp15
I2767
asI7234
(lp16
I82
asI3425
(lp17
sI82
(lp18
I85
aI138
aI273
aI309
aI439
aI446
aI464
aI570
aI621
aI667
aI880
aI903
aI1177
aI1214
aI1227
aI1236
aI1238
aI1278
aI1474
aI1874
aI2153
aI2222
aI2430
aI2437
aI2492
aI2527
aI2624
aI2873
aI2928
aI2966
aI3017
aI3548
aI4107
aI4806
aI5877
aI5923
aI6657
aI6752
aI6764
aI6793
aI6861
aI6890
aI6924
aI6987
aI7143
aI7216
aI7234
aI7260
aI7265
aI7300
aI7415
aI7471
aI7509
aI7517
aI7521
aI7577
aI7584
aI7614
aI7818
aI7837
aI7842
aI7892
aI7912
aI7916
aI7949
aI7955
aI7961
aI7975
aI7990
aI8048
aI8050
aI8052
aI8071
aI8095
aI8120
aI8135
aI8277
aI8278
aI8287
aI8300
aI8301
aI8303
aI8325
aI8326
aI8329
aI8330
aI8348
aI8355
aI8383
aI8400
aI8402
aI8405
aI8406
aI8409
aI8410
aI8415
aI8416
aI8418
aI8422
aI8430
aI8457
aI8474
aI8484
aI8498
aI8501
aI8519
aI8521
aI8528
aI8529
aI8530
aI8552
aI8557
aI8567
aI8568
aI8570
aI8571
aI8590
aI8612
aI8613
aI8628
aI8629
asI85
(lp19
I82
asI8278
(lp20
I82
asI7260
(lp21
I82
aI14642
asI8287
(lp22
I82
asI6752
(lp23
I82
asI7265
(lp24
I82
asI2153
(lp25
I82
aI2157
aI2158
aI2161
asI6764
(lp26
I82
asI621
(lp27
I82
asI2158
(lp28
I2153
asI8303
(lp29
I82
asI19304
(lp30
I667
asI7614
(lp31
I82
aI814
asI1142
(lp32
I5182
aI7949
aI19429
aI19431
aI19433
aI19436
aI19438
aI19439
asI5243
(lp33
sI7300
(lp34
I82
asI8325
(lp35
I82
asI8326
(lp36
I82
asI6793
(lp37
I82
asI138
(lp38
I82
asI2699
(lp39
I2492
asI8301
(lp40
I82
asI1177
(lp41
I82
asI667
(lp42
I82
aI5525
aI5543
aI19178
aI19304
asI8348
(lp43
I82
asI7837
(lp44
I82
asI2720
(lp45
sI2928
(lp46
I82
asI7842
(lp47
I82
asI8355
(lp48
I82
aI16547
aI16550
asI16550
(lp49
I7415
aI8355
aI16642
asI2161
(lp50
I2153
asI2222
(lp51
I82
asI1214
(lp52
I82
asI8383
(lp53
I82
asI193
(lp54
I3548
asI1219
(lp55
I310
asI4806
(lp56
I82
asI1227
(lp57
I82
aI1228
asI1228
(lp58
I1227
asI6861
(lp59
I82
asI2767
(lp60
I570
aI24129
aI26220
asI8400
(lp61
I82
asI1233
(lp62
I1231
asI8402
(lp63
I82
asI7892
(lp64
I82
aI24461
asI8405
(lp65
I82
asI1238
(lp66
I82
aI1231
asI1241
(lp67
I1231
asI8410
(lp68
I82
asI1231
(lp69
I1233
aI1236
aI1237
aI1238
aI1241
aI1242
asI8570
(lp70
I82
asI8415
(lp71
I82
asI2784
(lp72
sI8418
(lp73
I82
asI8422
(lp74
I82
asI7912
(lp75
I82
asI6890
(lp76
I82
asI7916
(lp77
I82
asI8430
(lp78
I82
asI5877
(lp79
I82
asI7415
(lp80
I82
aI16547
aI16550
aI16642
asI20216
(lp81
I2492
asI1236
(lp82
I82
aI1231
asI1278
(lp83
I82
aI13786
asI1237
(lp84
I1231
asI19712
(lp85
I1593
asI5822
(lp86
sI16642
(lp87
I7415
aI16547
aI16550
aI19040
aI19041
asI8406
(lp88
I82
aI1593
asI8457
(lp89
I82
asI6924
(lp90
I82
asI7949
(lp91
I82
aI1142
asI813
(lp92
I814
asI273
(lp93
I82
asI7955
(lp94
I82
aI570
asI2324
(lp95
I2430
asI8409
(lp96
I82
asI7961
(lp97
I82
asI8474
(lp98
I82
asI26395
(lp99
sI1242
(lp100
I1231
asI13599
(lp101
I1593
asI5923
(lp102
I82
asI8484
(lp103
I82
asI7975
(lp104
I82
asI794
(lp105
sI8071
(lp106
I82
asI14642
(lp107
I7260
asI814
(lp108
I813
aI7614
aI12330
asI7471
(lp109
I82
asI8498
(lp110
I82
asI8501
(lp111
I82
asI310
(lp112
I309
aI1219
asI8329
(lp113
I82
asI2873
(lp114
I82
asI7818
(lp115
I82
asI309
(lp116
I82
aI310
asI8416
(lp117
I82
asI7990
(lp118
I82
asI8519
(lp119
I82
asI8521
(lp120
I82
asI6987
(lp121
I82
asI2157
(lp122
I2153
asI8528
(lp123
I82
asI8529
(lp124
I82
asI8530
(lp125
I82
asI2387
(lp126
I2430
asI7509
(lp127
I82
asI9046
(lp128
I8095
aI9571
aI14847
aI14852
asI14681
(lp129
I570
asI18779
(lp130
sI7517
(lp131
I82
asI7521
(lp132
I82
asI9571
(lp133
I9046
asI8552
(lp134
I82
asI19431
(lp135
I1142
asI6508
(lp136
I2430
asI8557
(lp137
I82
asI880
(lp138
I82
asI8050
(lp139
I82
asI8052
(lp140
I82
asI8567
(lp141
I82
asI8568
(lp142
I82
asI21370
(lp143
I3548
asI8571
(lp144
I82
asI19178
(lp145
I667
asI2430
(lp146
I82
aI2324
aI2387
aI6508
asI2437
(lp147
I82
asI903
(lp148
I82
asI24461
(lp149
I7892
asI8590
(lp150
I82
asI26422
(lp151
I7216
asI5525
(lp152
I667
asI2966
(lp153
I82
asI7577
(lp154
I82
asI8095
(lp155
I82
aI9046
asI7584
(lp156
I82
asI8612
(lp157
I82
asI8613
(lp158
I82
asI5543
(lp159
I667
asI25516
(lp160
I464
asI8300
(lp161
I82
asI8628
(lp162
I82
asI8629
(lp163
I82
asI439
(lp164
I82
asI8120
(lp165
I82
asI2492
(lp166
I82
aI2699
aI20216
asI446
(lp167
I82
asI1474
(lp168
I82
asI2891
(lp169
sI8135
(lp170
I82
asI3017
(lp171
I82
asI464
(lp172
I82
aI25516
asI16547
(lp173
I7415
aI8355
aI16642
asI13786
(lp174
I1278
asI3548
(lp175
I82
aI193
aI21370
asI2527
(lp176
I82
asI26220
(lp177
I2767
asI19429
(lp178
I1142
asI7143
(lp179
I82
asI19433
(lp180
I1142
asI19436
(lp181
I1142
asI1874
(lp182
I82
asI19438
(lp183
I1142
asI19439
(lp184
I1142
asI14847
(lp185
I9046
asI8277
(lp186
I82
as.