(dp0
I24193
(lp1
I105
asI23504
(lp2
I105
asI105
(lp3
I1085
aI10228
aI21173
aI21200
aI23504
aI23515
aI24193
asI21200
(lp4
I105
asI10228
(lp5
I105
asI21173
(lp6
I105
asI5336
(lp7
I1085
asI23515
(lp8
I105
asI1085
(lp9
I105
aI5336
as.