(lp0
I82
aI1233
aI2784
aI5923
aI6924
aI8405
aI12330
aI7892
aI2430
aI2891
aI6890
aI2699
aI439
aI1278
aI6764
aI6987
aI7216
aI7234
aI7837
aI8457
aI8498
aI8521
aI8613
aI8629
aI310
aI8301
aI9046
aI9571
aI21370
aI273
aI1142
aI1177
aI2222
aI2492
aI2767
aI2873
aI2928
aI3548
aI8400
aI8409
aI8501
aI8612
aI85
aI814
aI880
aI1241
aI1593
aI5877
aI6657
aI7265
aI7584
aI7842
aI7912
aI8052
aI8135
aI8287
aI8402
aI8415
aI8418
aI8529
aI8530
aI8552
aI8557
aI8590
aI19429
aI570
aI2624
aI2720
aI2966
aI3017
aI1219
aI8628
aI138
aI193
aI7143
aI621
aI1874
aI5206
aI8050
aI8474
aI2527
aI7517
aI8303
aI8410
aI8422
aI8567
aI667
aI1474
aI5525
aI5543
aI8325
aI446
aI464
aI1214
aI1237
aI6861
aI7300
aI7471
aI8071
aI8300
aI8430
aI13599
aI903
aI1227
aI5243
aI6793
aI8277
aI14847
aI19433
aI8048
aI5822
aI2153
aI19178
aI7818
aI1231
aI14642
aI2324
aI2387
aI6752
aI8519
aI7415
aI8355
aI3425
aI5182
aI7509
aI2161
aI4806
aI794
aI26395
aI16642
aI18779
aI813
aI7521
aI8348
aI7961
aI2437
aI1242
aI6508
aI24461
aI4107
aI7260
aI7955
aI14681
aI2158
aI8528
aI8571
aI7577
aI8383
aI8095
aI7990
aI8278
aI7949
aI16547
aI16550
a.