(lp0
I1488
aI6410
aI4204
aI5938
aI5948
aI5958
aI602
aI1063
aI2047
aI2251
aI2298
aI2510
aI3307
aI3346
aI9335
aI9366
aI12841
aI2507
aI10964
aI22398
aI1944
aI9480
aI23213
aI2512
aI3374
aI15699
aI16039
aI16048
aI18516
aI4888
aI3274
aI3278
aI20714
aI9338
aI9368
aI4624
aI20575
aI866
aI15440
aI16084
aI15121
aI16176
aI22240
aI22218
aI20398
aI735
aI25161
aI25906
aI10051
aI4762
aI16070
aI22227
aI11157
aI4450
aI16049
aI25399
aI13048
aI15486
aI22313
aI25336
aI22507
aI13520
aI10923
aI16508
aI10117
aI25406
aI25613
aI9234
a.