(lp0
I18
aI2243
aI2308
aI2362
aI2610
aI3275
aI3348
aI5953
aI2182
aI3324
aI3333
aI4499
aI6431
aI8697
aI10589
aI14201
aI18348
aI18588
aI9952
aI18044
aI2252
aI2508
aI2688
aI3455
aI5158
aI9950
aI10319
aI10509
aI2870
aI9322
aI9326
aI9346
aI9357
aI9363
aI22038
aI4376
aI18811
aI10922
aI4973
aI6009
aI17092
aI24707
aI22223
aI664
aI14672
aI867
aI25005
aI4497
aI15473
aI15961
aI5444
aI11616
aI15404
aI19820
aI13940
aI22714
aI12584
aI18150
aI18169
aI5377
aI5411
aI19389
aI16984
aI12577
aI14512
aI25827
aI20753
aI15159
aI11392
aI18347
aI19008
a.