(lp0
I95
aI706
aI3593
aI11525
aI13523
aI16197
aI22815
aI9379
aI1475
aI943
aI18524
aI25238
aI24144
aI395
aI20893
aI5116
aI16229
aI11167
aI16143
aI15565
aI5365
aI10916
aI15727
aI15735
aI15749
aI16489
aI18957
aI24513
aI19706
aI20553
aI16264
aI25262
aI16079
aI24886
aI24940
a.