(lp0
I712
aI277
aI337
aI2900
aI5964
aI10863
aI11409
aI17036
aI12579
aI15995
aI21038
aI6428
aI15321
aI14766
aI21252
aI21438
aI10874
aI897
aI2618
aI20243
aI19906
aI6638
aI25856
aI14807
aI17772
aI6370
aI10917
aI4641
aI13012
aI4447
aI16022
aI19792
a.