(lp0
I12
aI1554
aI9967
aI4556
aI8587
aI9795
aI1888
aI3359
aI5024
aI5187
aI11688
aI13494
aI13772
aI14060
aI16152
aI16160
aI20250
aI21237
aI21366
aI10235
aI2717
aI3076
aI3252
aI9381
aI3782
aI17915
aI25925
aI9764
aI14565
aI1729
aI1777
aI1802
aI1830
aI1850
aI10077
aI19754
aI26285
aI9797
aI24013
aI981
aI1204
aI3995
aI5028
aI8805
aI14140
aI15597
aI20823
aI20977
aI22015
aI24443
aI24546
aI25030
aI25298
aI25764
aI25961
aI26067
aI26141
aI26161
aI26178
aI26347
aI26415
aI4611
aI21129
aI2248
aI884
aI23954
aI23964
a.