(lp0
I3084
aI4155
aI16339
aI811
aI5095
aI8706
aI21011
aI22101
aI947
aI4001
aI1576
aI2479
aI2827
aI4476
aI892
aI893
aI4858
aI4925
aI5194
aI5196
aI5732
aI5733
aI9930
aI10615
aI10944
aI25535
aI1494
aI1553
aI4541
aI5195
aI21019
aI902
aI3826
aI6216
aI7911
aI9223
aI12616
aI16338
aI17035
aI18899
aI19001
aI21033
aI2460
aI1194
aI7112
aI10171
aI10350
aI10429
aI10451
aI10550
aI10600
aI2439
aI2951
aI6889
aI2599
aI2660
aI3290
aI1009
aI4403
aI13976
aI14285
aI2216
aI9221
aI1550
aI1034
aI1614
aI3698
aI21039
aI10083
aI18266
aI18800
aI9163
aI19333
aI4414
aI11916
aI1136
aI23270
aI24962
aI24963
aI24965
aI756
aI1000
aI18532
aI5143
aI12566
aI21722
aI2378
aI2382
aI18114
aI4808
aI4739
aI15360
aI23214
aI1245
aI1125
aI14212
aI18303
aI26286
aI26378
aI26410
aI26428
aI3771
aI15955
aI21027
aI14767
aI14797
aI11454
aI14723
aI21049
aI4475
aI9983
aI4855
aI4897
aI4928
aI11140
aI10920
aI5366
aI21022
aI1705
aI3850
aI14523
aI1048
aI11171
aI11177
aI4491
aI4500
aI9215
aI9658
aI11619
aI14084
aI4102
aI12714
aI21053
aI1578
aI1701
aI1702
aI1703
aI22336
aI4136
aI13431
aI4251
aI9661
aI20766
aI14697
aI20860
aI3851
aI4098
aI25043
aI25757
aI26424
aI5193
aI4023
aI8701
aI21706
aI8829
aI20736
aI5868
aI13920
aI25311
aI15871
aI8813
aI12612
aI13903
aI18446
aI14833
aI16873
aI18110
a.