(lp0
I473
aI8014
aI2105
aI5959
aI4616
aI22487
aI17018
aI17871
aI23971
aI6562
aI10918
aI14871
aI10805
aI268
aI1941
aI6602
aI22828
aI9861
aI16972
aI18346
aI23874
aI9829
aI24951
aI5886
aI13780
aI22832
a.