(lp0
I1502
aI14515
aI14690
aI233
aI452
aI456
aI572
aI1282
aI1622
aI2611
aI2649
aI4920
aI7862
aI10808
aI12028
aI12031
aI12069
aI12108
aI12200
aI4071
aI10076
aI15298
aI19066
aI23185
aI17
aI398
aI1027
aI2420
aI4865
aI5950
aI5970
aI779
aI961
aI2328
aI2990
aI3347
aI4940
aI4949
aI11010
aI7918
aI21816
aI24904
aI442
aI451
aI907
aI1355
aI1406
aI2053
aI2160
aI3056
aI3440
aI3495
aI5973
aI7121
aI10404
aI10771
aI11719
aI14057
aI15686
aI18940
aI20859
aI21402
aI3835
aI946
aI320
aI815
aI1626
aI2893
aI4283
aI8581
aI9504
aI10369
aI10462
aI10681
aI10708
aI10747
aI10911
aI15235
aI15236
aI15241
aI321
aI850
aI1461
aI1619
aI2681
aI2795
aI7102
aI8123
aI8272
aI8447
aI13313
aI13916
aI18927
aI21104
aI21105
aI22934
aI24388
aI322
aI901
aI1332
aI1411
aI1414
aI1441
aI2395
aI4685
aI4745
aI6697
aI6888
aI7591
aI7666
aI7753
aI8024
aI8157
aI8233
aI8338
aI8609
aI8621
aI2582
aI2584
aI2643
aI2726
aI2786
aI2881
aI2887
aI3033
aI3046
aI3068
aI3094
aI3135
aI3217
aI3317
aI4367
aI13450
aI15908
aI1627
aI16893
aI26216
aI19131
aI345
aI637
aI669
aI1330
aI1348
aI1361
aI1388
aI1412
aI1415
aI1434
aI1436
aI1443
aI2174
aI2318
aI2327
aI2329
aI2350
aI2354
aI2377
aI2402
aI2409
aI2411
aI2412
aI2417
aI4127
aI6531
aI8735
aI20075
aI20144
aI25606
aI18643
aI2565
aI13365
aI16884
aI18949
aI22841
aI24924
aI14444
aI18805
aI16256
aI18432
aI24918
aI8996
aI9080
aI9129
aI1451
aI2427
aI9649
aI11732
aI13567
aI16246
aI16915
aI17377
aI21069
aI23534
aI23585
aI23654
aI23735
aI231
aI1334
aI4703
aI14973
aI11921
aI14914
aI18990
aI17076
aI443
aI471
aI2155
aI4460
aI21964
aI14607
aI917
aI21047
aI1707
aI460
aI851
aI1322
aI1409
aI2541
aI14560
aI15143
aI17335
aI17558
aI17601
aI1744
aI1757
aI10128
aI11747
aI13270
aI13444
aI13580
aI15098
aI15105
aI15755
aI17726
aI18395
aI18880
aI19256
aI22452
aI23787
aI23917
aI25643
aI18722
aI344
aI449
aI492
aI4738
aI15454
aI17730
aI5106
aI19171
aI413
aI25707
aI465
aI488
aI490
aI4696
aI4845
aI5349
aI9872
aI15225
aI2563
aI8658
aI22543
aI538
aI24429
aI15754
aI4731
aI1700
aI19165
aI939
aI11643
aI17985
aI17993
aI17995
aI1195
aI1196
aI14259
aI1395
aI3592
aI15520
aI25416
aI2150
aI1374
aI2347
aI2376
aI1305
aI1306
aI1384
aI2212
aI16971
aI647
aI675
aI4813
aI20420
aI2544
aI18826
aI8784
aI1302
aI1403
aI1420
aI4779
aI4833
aI4849
aI4937
aI18760
aI14915
aI11948
aI13269
aI1367
aI4074
aI5326
aI781
aI8783
aI25806
aI808
aI20634
aI8797
aI13402
aI1358
aI11863
aI22342
aI1338
aI3453
aI9542
aI13961
aI2368
aI11889
aI21683
aI25164
aI12784
aI14521
aI20239
aI11260
aI1383
aI1449
aI1455
aI1431
aI5068
aI21111
aI929
aI930
aI5034
aI20683
aI945
aI1043
aI1045
aI1050
aI949
aI1454
aI14660
aI22855
aI2110
aI11305
aI16282
aI1168
aI2312
aI5309
aI13635
aI19804
aI20826
aI13764
aI15998
aI24908
aI24914
aI2294
aI14077
aI1193
aI13438
aI1216
aI3839
aI12933
aI14693
aI2125
aI14418
aI1313
aI3585
aI1435
aI1325
aI1335
aI3543
aI1366
aI2232
aI5130
aI6514
aI6518
aI1386
aI1416
aI1397
aI1405
aI9487
aI17072
aI17074
aI1442
aI1446
aI16502
aI16858
aI16861
aI1467
aI1478
aI3588
aI11710
aI11711
aI11712
aI2198
aI22309
aI18107
aI2093
aI2103
aI1579
aI4999
aI11156
aI20843
aI20770
aI9204
aI11509
aI21681
aI1621
aI14957
aI3796
aI3494
aI4453
aI4462
aI4467
aI18040
aI24902
aI1961
aI1969
aI1977
aI12593
aI22887
aI24441
aI24476
aI20189
aI25600
aI2095
aI2102
aI18136
aI2165
aI4278
aI25543
aI2332
aI15914
aI17112
aI18869
aI2346
aI2348
aI2363
aI3615
aI16748
aI16506
aI15888
aI2405
aI16283
aI18457
aI20895
aI21684
aI9761
aI15343
aI8812
aI22876
aI14897
aI4253
aI4255
aI10113
aI2556
aI16993
aI14731
aI24720
aI19132
aI3848
aI25743
aI15172
aI3594
aI19198
aI23295
aI24844
aI5152
aI3503
aI3504
aI4729
aI12500
aI15104
aI15106
aI19360
aI24540
aI19520
aI20862
aI24596
aI18968
aI22202
aI3578
aI3582
aI10114
aI4632
aI19111
aI19022
aI8764
aI5863
aI12912
aI4455
aI4458
aI4465
aI11426
aI14577
aI18909
aI15021
aI4737
aI19114
aI14635
aI25038
aI16619
aI18037
aI15345
aI9226
aI11173
aI20726
aI14828
aI9243
aI20646
aI17898
aI14184
aI23302
aI11431
aI24122
aI14858
aI15899
aI22645
aI17882
aI9875
aI13034
aI16665
aI25753
aI15837
aI14745
aI15142
aI14477
aI14841
aI14942
aI21648
aI26219
aI25715
aI26332
a.