(lp0
I11012
aI15687
aI19102
aI21035
aI10
aI355
aI532
aI2926
aI2974
aI3019
aI4372
aI9089
aI10563
aI10822
aI10905
aI11030
aI11560
aI11952
aI11987
aI12043
aI12047
aI12107
aI12124
aI12126
aI12195
aI12220
aI12269
aI12437
aI12441
aI12446
aI2090
aI3562
aI4214
aI5186
aI14243
aI19122
aI19921
aI20399
aI21610
aI22139
aI24668
aI24684
aI25
aI45
aI985
aI2172
aI2897
aI3067
aI4891
aI4906
aI2511
aI2880
aI3172
aI4802
aI4842
aI4927
aI7414
aI13785
aI15272
aI19900
aI221
aI524
aI606
aI749
aI4535
aI4787
aI5184
aI5268
aI10042
aI10637
aI10797
aI14226
aI14911
aI22699
aI3147
aI4992
aI7023
aI7075
aI7646
aI7825
aI10101
aI14284
aI19720
aI21957
aI379
aI590
aI600
aI908
aI1090
aI1933
aI2621
aI3085
aI3104
aI3120
aI3436
aI3960
aI3992
aI4509
aI4715
aI4874
aI6039
aI6397
aI8102
aI8203
aI9019
aI10188
aI11047
aI11622
aI13393
aI15032
aI15296
aI15376
aI16813
aI18573
aI21064
aI21158
aI21214
aI21303
aI21316
aI21435
aI21439
aI21453
aI21522
aI410
aI564
aI633
aI1615
aI2006
aI2515
aI2564
aI2777
aI2816
aI2840
aI3035
aI3060
aI3096
aI3253
aI3332
aI3345
aI3625
aI3788
aI4045
aI4377
aI4854
aI4931
aI4936
aI5089
aI5092
aI6340
aI7103
aI7453
aI7492
aI7954
aI8000
aI8394
aI10058
aI10295
aI10339
aI10374
aI10389
aI10397
aI10449
aI10472
aI10487
aI10513
aI10546
aI10549
aI10577
aI10582
aI10598
aI10603
aI10621
aI10623
aI10629
aI10640
aI10651
aI10655
aI10658
aI10689
aI10726
aI10728
aI10746
aI10785
aI10788
aI10800
aI10820
aI10825
aI10855
aI10876
aI10899
aI73
aI285
aI1390
aI1625
aI1875
aI2658
aI2683
aI2986
aI3066
aI3435
aI4062
aI7458
aI7899
aI8032
aI8173
aI8990
aI9095
aI13103
aI13445
aI14286
aI14853
aI15295
aI16566
aI19151
aI19196
aI19719
aI19750
aI22564
aI1620
aI1624
aI1932
aI3099
aI3442
aI3784
aI3956
aI3985
aI4076
aI4373
aI4695
aI4951
aI5176
aI5988
aI6803
aI7117
aI7352
aI7446
aI7499
aI7679
aI7705
aI7710
aI7942
aI7983
aI7993
aI8133
aI8354
aI8367
aI8460
aI8630
aI2641
aI2694
aI2756
aI2758
aI2765
aI2787
aI2815
aI2836
aI2896
aI3011
aI3034
aI3098
aI3358
aI14891
aI22502
aI21798
aI25290
aI11528
aI13404
aI13610
aI14947
aI19200
aI9360
aI14983
aI14179
aI1095
aI118
aI12618
aI6324
aI11134
aI11702
aI244
aI668
aI674
aI875
aI1336
aI1379
aI1438
aI1482
aI2351
aI9562
aI15009
aI22246
aI5067
aI17625
aI26087
aI6319
aI17019
aI17025
aI13364
aI2525
aI5021
aI10043
aI11087
aI11326
aI15035
aI18943
aI25919
aI4758
aI8928
aI8988
aI8992
aI9017
aI9144
aI1088
aI1618
aI8649
aI10936
aI11355
aI11494
aI11757
aI14553
aI14561
aI15770
aI15854
aI20249
aI20675
aI23553
aI23564
aI23748
aI1373
aI1376
aI1418
aI1464
aI4705
aI4838
aI5636
aI5667
aI14436
aI15695
aI16002
aI5473
aI5532
aI5533
aI5534
aI5578
aI5661
aI5702
aI14111
aI18343
aI2314
aI3617
aI11906
aI11910
aI11911
aI11919
aI11920
aI11927
aI11939
aI11940
aI11943
aI11516
aI15395
aI19154
aI20018
aI21050
aI24791
aI284
aI19007
aI21563
aI497
aI15416
aI3606
aI24159
aI4419
aI12792
aI5210
aI10984
aI13698
aI14854
aI14856
aI16797
aI17341
aI17415
aI17417
aI17556
aI17607
aI10958
aI4531
aI14545
aI4540
aI4551
aI323
aI25851
aI1752
aI1772
aI4137
aI5047
aI9913
aI11354
aI13904
aI18870
aI26032
aI14943
aI2406
aI4449
aI14174
aI14954
aI15326
aI620
aI5794
aI566
aI414
aI4257
aI4959
aI9793
aI462
aI476
aI13378
aI16424
aI1033
aI2323
aI14069
aI8715
aI14934
aI15577
aI17803
aI13371
aI13891
aI18552
aI22089
aI24807
aI14683
aI3642
aI4851
aI9550
aI9745
aI11708
aI13279
aI13049
aI14866
aI19153
aI19159
aI19160
aI4433
aI13134
aI16618
aI624
aI23881
aI24737
aI24739
aI11742
aI14728
aI19133
aI10105
aI11949
aI13435
aI627
aI13604
aI14217
aI16587
aI19071
aI656
aI15622
aI9449
aI23089
aI4921
aI687
aI4945
aI14086
aI25630
aI14590
aI16603
aI23209
aI11820
aI11469
aI13536
aI11695
aI14699
aI3672
aI13427
aI13731
aI13734
aI13736
aI18793
aI728
aI13436
aI21577
aI4720
aI13448
aI14145
aI14908
aI14909
aI15348
aI15403
aI25787
aI25823
aI9927
aI9941
aI9995
aI4818
aI4943
aI4981
aI18976
aI23875
aI5046
aI12872
aI15877
aI18445
aI23824
aI4196
aI4264
aI11670
aI13928
aI3953
aI4484
aI11422
aI8877
aI14751
aI11540
aI25776
aI16512
aI1051
aI16590
aI21016
aI22957
aI13401
aI13420
aI9593
aI20305
aI5091
aI12654
aI12662
aI12671
aI18382
aI11835
aI5173
aI906
aI25673
aI4442
aI13358
aI17786
aI3407
aI20924
aI16807
aI16808
aI16809
aI20662
aI20663
aI1040
aI962
aI8777
aI13505
aI6559
aI11862
aI14520
aI14522
aI14524
aI11302
aI11336
aI14882
aI16352
aI19551
aI16361
aI16364
aI16367
aI16368
aI1062
aI5138
aI2514
aI4503
aI5344
aI13272
aI22024
aI1161
aI2134
aI11371
aI11792
aI14075
aI14076
aI14082
aI14087
aI14088
aI14090
aI11235
aI4640
aI25879
aI1215
aI3663
aI3667
aI21883
aI5051
aI22430
aI1908
aI11467
aI12672
aI2576
aI13348
aI13349
aI13350
aI13353
aI13356
aI6509
aI19390
aI20123
aI1910
aI13889
aI6082
aI17785
aI17789
aI16860
aI2462
aI11090
aI23409
aI23410
aI23412
aI23413
aI22852
aI6194
aI21554
aI22295
aI3847
aI13085
aI19401
aI23273
aI13594
aI4655
aI22618
aI24826
aI5234
aI20784
aI9645
aI19725
aI20771
aI1611
aI11497
aI10997
aI3750
aI18005
aI15929
aI3797
aI12624
aI21978
aI26020
aI6342
aI13428
aI15514
aI18936
aI12893
aI21066
aI4732
aI4740
aI2167
aI4314
aI15885
aI15402
aI16529
aI23009
aI24469
aI2296
aI2297
aI21114
aI15364
aI9586
aI16031
aI4428
aI23193
aI22253
aI15252
aI22248
aI13868
aI9766
aI2476
aI3441
aI11221
aI11423
aI23257
aI25379
aI23269
aI4133
aI4298
aI24833
aI4245
aI4246
aI4265
aI15895
aI2557
aI14746
aI22416
aI5381
aI5392
aI5394
aI5399
aI15643
aI12895
aI5179
aI11620
aI21907
aI12525
aI17009
aI23760
aI10137
aI10143
aI14025
aI22040
aI23941
aI14724
aI23796
aI20540
aI21061
aI4386
aI21162
aI9633
aI25462
aI25463
aI21887
aI25644
aI26243
aI13590
aI15392
aI11726
aI21939
aI16606
aI18306
aI13491
aI22308
aI11239
aI23261
aI19714
aI19716
aI13118
aI15265
aI11466
aI3581
aI13315
aI11499
aI14534
aI15267
aI3795
aI3804
aI3806
aI12869
aI22319
aI3841
aI19760
aI12575
aI15337
aI3867
aI3892
aI12921
aI12944
aI12948
aI4341
aI4012
aI4050
aI14165
aI11225
aI15301
aI11151
aI20412
aI18377
aI22303
aI4301
aI18720
aI26377
aI4368
aI4398
aI4416
aI18827
aI17002
aI20923
aI20926
aI20929
aI4473
aI16345
aI18551
aI4730
aI14476
aI20601
aI11611
aI4994
aI20181
aI5168
aI5082
aI11170
aI5205
aI18391
aI16266
aI18080
aI16268
aI19012
aI18305
aI5898
aI5902
aI11846
aI9832
aI17783
aI14118
aI24453
aI13929
aI6182
aI17106
aI25874
aI6423
aI15409
aI16630
aI22586
aI24614
aI20837
aI14337
aI25214
aI8766
aI11435
aI10122
aI17866
aI11656
aI14906
aI20561
aI18270
aI19643
aI9696
aI21113
aI21961
aI9865
aI13713
aI16563
aI14136
aI10971
aI11800
aI18893
aI15460
aI18260
aI18310
aI18598
aI13389
aI11495
aI14428
aI19014
aI16416
aI20729
aI20730
aI20731
aI12527
aI12596
aI22511
aI22516
aI16106
aI19134
aI22466
aI17827
aI13811
aI20197
aI22688
aI22690
aI16625
aI14353
aI21933
aI21918
aI21647
aI22462
aI23015
aI23018
aI23019
aI23020
aI14893
aI15004
aI15005
aI15567
aI15571
aI15573
aI16963
aI19726
aI16737
aI17810
aI19914
aI18489
aI20733
aI21873
aI20936
a.