(lp0
I8890
aI9321
aI12501
aI24234
aI792
aI3726
aI19298
aI24467
aI25235
aI25246
aI9389
aI20274
aI19909
aI22369
aI9424
aI9433
aI8863
aI24494
aI22195
aI12876
aI24510
aI3633
aI12539
aI22858
aI15553
aI20920
aI8853
aI24493
a.