(dp0
I11801
(dp1
I11801
(I0
I1
tp2
sI10172
(I1
I1
tp3
ssI2
(dp4
I2
g2
sI1188
(I1
I1
tp5
sI292
(I1
I1
tp6
sI16231
(I1
I1
tp7
sI16232
(I1
I1
tp8
sI14633
(I1
I1
tp9
sI23463
(I1
I1
tp10
sI642
(I1
I1
tp11
sI19085
(I1
I1
tp12
sI15923
(I1
I1
tp13
sI8740
(I1
I1
tp14
sI14588
(I1
I1
tp15
sI16233
(I1
I1
tp16
sI964
(I1
I1
tp17
sI762
(I1
I1
tp18
sI10172
(I1
I1
tp19
sI20574
(I1
I1
tp20
sI23455
(I1
I1
tp21
ssI26283
(dp22
I558
(I1
I1
tp23
ssI26136
(dp24
I26136
g2
ssI13319
(dp25
I292
(I1
I1
tp26
sI13319
g2
ssI8
(dp27
I32
(I1
I1
tp28
sI35
(I1
I1
tp29
sI36
(I1
I1
tp30
sI38
(I1
I1
tp31
sI8
g2
sI9
(I1
I1
tp32
sI21
(I1
I1
tp33
sI24
(I1
I1
tp34
sI26
(I1
I1
tp35
ssI9
(dp36
I8
(I1
I1
tp37
sI9
g2
ssI16316
(dp38
I16316
g2
sI631
(I1
I1
tp39
ssI23052
(dp40
I23052
g2
ssI26125
(dp41
I642
(I1
I1
tp42
ssI14
(dp43
I8
(I1
I1
tp44
ssI4623
(dp45
I4623
g2
ssI16
(dp46
I8
(I1
I1
tp47
ssI3089
(dp48
I3089
g2
ssI13793
(dp49
I13792
(I1
I1
tp50
sI13793
g2
ssI4628
(dp51
I4628
g2
ssI21
(dp52
I8
(I1
I1
tp53
sI21
g2
sI431
(I1
I1
tp54
ssI22
(dp55
I8
(I1
I1
tp56
ssI12889
(dp57
I12889
g2
ssI24
(dp58
I8
(I1
I1
tp59
sI24
g2
ssI9241
(dp60
I9241
g2
ssI26
(dp61
I8
(I1
I1
tp62
sI26
g2
ssI18351
(dp63
I18351
g2
ssI29
(dp64
I8
(I1
I1
tp65
ssI11806
(dp66
I964
(I1
I1
tp67
sI10172
(I1
I1
tp68
sI11806
g2
ssI543
(dp69
I13792
(I2
I1
tp70
sI16001
(I1
I1
tp71
sI964
(I1
I1
tp72
sI746
(I1
I1
tp73
sI20957
(I1
I1
tp74
sI16242
(I1
I1
tp75
sI16234
(I1
I1
tp76
sI543
g2
ssI32
(dp77
I8
(I1
I1
tp78
sI32
g2
ssI33
(dp79
I8
(I1
I1
tp80
ssI34
(dp81
I8
(I1
I1
tp82
ssI35
(dp83
I8
(I1
I1
tp84
sI35
g2
ssI36
(dp85
I8
(I1
I1
tp86
sI36
g2
ssI15397
(dp87
I15397
g2
ssI38
(dp88
I8
(I1
I1
tp89
sI38
g2
ssI14375
(dp90
I14375
g2
ssI3624
(dp91
I3624
g2
ssI14889
(dp92
I14889
g2
ssI16426
(dp93
I16426
g2
ssI16231
(dp94
I2
(I1
I1
tp95
sI16231
g2
ssI558
(dp96
I558
g2
ssI3119
(dp97
I18400
(I1
I1
tp98
sI14546
(I1
I1
tp99
sI3119
g2
ssI1072
(dp100
I1072
g2
sI642
(I1
I1
tp101
ssI16232
(dp102
I16232
g2
sI2
(I1
I1
tp103
ssI13235
(dp104
I642
(I1
I1
tp105
sI13235
g2
ssI1588
(dp106
I1588
g2
ssI24158
(dp107
I292
(I1
I1
tp108
sI24158
g2
ssI9273
(dp109
I9273
g2
ssI25146
(dp110
I25146
g2
ssI11103
(dp111
I4713
(I1
I1
tp112
sI11103
g2
ssI3644
(dp113
I3644
g2
ssI23464
(dp114
I2
(I1
I1
tp115
ssI24161
(dp116
I24161
g2
sI292
(I1
I1
tp117
ssI15721
(dp118
I15721
g2
ssI9281
(dp119
I9281
g2
ssI12866
(dp120
I12866
g2
ssI24171
(dp121
I292
(I1
I1
tp122
ssI18529
(dp123
I923
(I1
I1
tp124
ssI20585
(dp125
I20585
g2
ssI14921
(dp126
I14921
g2
sI964
(I1
I1
tp127
ssI24162
(dp128
I24162
g2
sI292
(I1
I1
tp129
ssI16233
(dp130
I16233
g2
sI2
(I1
I1
tp131
ssI23120
(dp132
I23120
g2
ssI25681
(dp133
I13218
(I1
I1
tp134
ssI12882
(dp135
I12882
g2
ssI20579
(dp136
I20579
g2
ssI10937
(dp137
I10937
g2
ssI2137
(dp138
I631
(I1
I1
tp139
ssI10767
(dp140
I10767
g2
ssI20574
(dp141
I2
(I1
I1
tp142
sI20574
g2
ssI14437
(dp143
I631
(I1
I1
tp144
ssI23463
(dp145
I2
(I1
I1
tp146
sI23463
g2
ssI1633
(dp147
I1664
(I1
I1
tp148
sI1633
g2
sI1636
(I1
I1
tp149
sI1638
(I1
I1
tp150
sI1665
(I1
I1
tp151
sI1640
(I1
I1
tp152
sI1646
(I1
I1
tp153
sI1649
(I1
I1
tp154
sI1656
(I1
I1
tp155
sI1659
(I1
I1
tp156
sI1661
(I1
I1
tp157
ssI8802
(dp158
I8802
g2
sI3179
(I1
I1
tp159
ssI5731
(dp160
I5731
g2
ssI1636
(dp161
I1633
(I1
I1
tp162
sI1636
g2
sI25230
(I1
I1
tp163
sI20905
(I1
I1
tp164
ssI613
(dp165
I11233
(I1
I1
tp166
sI613
g2
sI14894
(I1
I1
tp167
sI4947
(I1
I1
tp168
sI22964
(I1
I1
tp169
sI247
(I1
I1
tp170
sI766
(I1
I1
tp171
ssI1638
(dp172
I1633
(I1
I1
tp173
sI1638
g2
ssI19047
(dp174
I19047
g2
ssI1640
(dp175
I1640
g2
sI1633
(I1
I1
tp176
ssI4713
(dp177
I11096
(I1
I1
tp178
sI4713
g2
sI11103
(I1
I1
tp179
ssI1643
(dp180
I1633
(I1
I1
tp181
ssI17004
(dp182
I17004
g2
ssI1646
(dp183
I1633
(I1
I1
tp184
sI1646
g2
ssI1647
(dp185
I1633
(I1
I1
tp186
ssI1648
(dp187
I1633
(I1
I1
tp188
ssI1649
(dp189
I1633
(I1
I1
tp190
sI1649
g2
ssI1650
(dp191
I1633
(I1
I1
tp192
ssI24083
(dp193
I16234
(I1
I1
tp194
sI24083
g2
ssI8820
(dp195
I8820
g2
ssI6261
(dp196
I292
(I1
I1
tp197
ssI630
(dp198
I630
g2
sI631
(I1
I1
tp199
ssI3703
(dp200
I16234
(I1
I1
tp201
sI3703
g2
ssI1656
(dp202
I1656
g2
sI1633
(I1
I1
tp203
ssI12922
(dp204
I12922
g2
ssI1659
(dp205
I1633
(I1
I1
tp206
sI1659
g2
ssI1661
(dp207
I1633
(I1
I1
tp208
sI1661
g2
ssI638
(dp209
I1377
(I1
I1
tp210
sI1381
(I1
I1
tp211
sI638
g2
ssI1557
(dp212
I1557
g2
ssI1664
(dp213
I1664
g2
sI1633
(I1
I1
tp214
ssI641
(dp215
I641
g2
sI642
(I1
I1
tp216
ssI642
(dp217
I641
(I1
I1
tp218
sI2
(I1
I1
tp219
sI547
(I1
I1
tp220
sI545
(I1
I1
tp221
sI642
g2
sI13005
(I1
I1
tp222
sI1072
(I1
I1
tp223
sI13187
(I1
I1
tp224
sI18327
(I1
I1
tp225
sI22971
(I1
I1
tp226
sI17821
(I1
I1
tp227
sI13235
(I1
I1
tp228
sI13218
(I1
I1
tp229
ssI1667
(dp230
I1633
(I1
I1
tp231
ssI15894
(dp232
I15894
g2
ssI12934
(dp233
I12934
g2
ssI18864
(dp234
I18864
g2
ssI10379
(dp235
I14977
(I1
I1
tp236
sI10379
g2
ssI19085
(dp237
I2
(I1
I1
tp238
sI19085
g2
ssI25230
(dp239
I1636
(I1
I1
tp240
sI25230
g2
ssI24719
(dp241
I24719
g2
ssI15505
(dp242
I15505
g2
ssI20327
(dp243
I20327
g2
ssI3732
(dp244
I3732
g2
ssI15509
(dp245
I15509
g2
sI247
(I1
I1
tp246
ssI10903
(dp247
I10903
g2
ssI19608
(dp248
I19608
g2
ssI24730
(dp249
I3362
(I1
I1
tp250
ssI20583
(dp251
I20583
g2
ssI12956
(dp252
I12956
g2
ssI17055
(dp253
I17055
g2
ssI13168
(dp254
I13168
g2
ssI1188
(dp255
I2
(I1
I1
tp256
sI1188
g2
ssI24433
(dp257
I24433
g2
ssI18400
(dp258
I18400
g2
sI3119
(I1
I1
tp259
ssI16242
(dp260
I16242
g2
sI543
(I1
I1
tp261
ssI19631
(dp262
I19631
g2
ssI19632
(dp263
I19632
g2
ssI24164
(dp264
I292
(I1
I1
tp265
ssI19637
(dp266
I19637
g2
ssI24454
(dp267
I24165
(I1
I1
tp268
ssI26055
(dp269
I3362
(I1
I1
tp270
sI26055
g2
ssI10356
(dp271
I10356
g2
sI16669
(I1
I1
tp272
ssI11807
(dp273
I14588
(I1
I1
tp274
sI10172
(I1
I1
tp275
ssI2069
(dp276
I2069
g2
ssI22971
(dp277
I642
(I1
I1
tp278
sI22971
g2
ssI18557
(dp279
I18557
g2
ssI8897
(dp280
I8897
g2
ssI9411
(dp281
I9411
g2
ssI3780
(dp282
I3780
g2
ssI9334
(dp283
I9334
g2
ssI545
(dp284
I545
g2
sI642
(I1
I1
tp285
ssI631
(dp286
I10480
(I1
I1
tp287
sI25555
(I1
I1
tp288
sI16316
(I1
I1
tp289
sI630
(I1
I1
tp290
sI631
g2
ssI3874
(dp291
I3874
g2
ssI18126
(dp292
I18126
g2
ssI13005
(dp293
I642
(I1
I1
tp294
sI13005
g2
ssI19320
(dp295
I19320
g2
ssI14546
(dp296
I14546
g2
sI3119
(I1
I1
tp297
ssI547
(dp298
I642
(I1
I1
tp299
sI547
g2
ssI4309
(dp300
I292
(I1
I1
tp301
sI4309
g2
sI4311
(I1
I1
tp302
ssI4311
(dp303
I4309
(I1
I1
tp304
sI4311
g2
ssI548
(dp305
I548
g2
ssI20700
(dp306
I543
(I1
I1
tp307
ssI21797
(dp308
I21797
g2
sI9854
(I1
I1
tp309
ssI19920
(dp310
I19920
g2
ssI3707
(dp311
I3707
g2
ssI12516
(dp312
I12516
g2
ssI10982
(dp313
I10982
g2
ssI25832
(dp314
I25832
g2
ssI746
(dp315
I746
g2
sI543
(I1
I1
tp316
ssI19103
(dp317
I19103
g2
ssI17135
(dp318
I17135
g2
ssI10480
(dp319
I10480
g2
sI631
(I1
I1
tp320
ssI1266
(dp321
I1266
g2
ssI3179
(dp322
I8802
(I1
I1
tp323
sI3179
g2
ssI20944
(dp324
I292
(I1
I1
tp325
ssI8737
(dp326
I8737
g2
ssI10998
(dp327
I10998
g2
ssI247
(dp328
I15509
(I1
I1
tp329
sI613
(I1
I1
tp330
sI247
g2
ssI14977
(dp331
I14977
g2
sI10379
(I1
I1
tp332
ssI762
(dp333
I2
(I1
I1
tp334
sI762
g2
ssI639
(dp335
I7024
(I1
I1
tp336
sI24906
(I1
I1
tp337
sI639
g2
ssI3836
(dp338
I1588
(I1
I1
tp339
ssI20842
(dp340
I543
(I1
I1
tp341
ssI766
(dp342
I613
(I1
I1
tp343
sI766
g2
ssI1279
(dp344
I1279
g2
ssI1665
(dp345
I1633
(I1
I1
tp346
sI1665
g2
ssI13065
(dp347
I13065
g2
ssI22147
(dp348
I22147
g2
sI964
(I1
I1
tp349
ssI14894
(dp350
I613
(I1
I1
tp351
sI14894
g2
ssI19222
(dp352
I1659
(I1
I1
tp353
ssI20953
(dp354
I543
(I1
I1
tp355
ssI16001
(dp356
I16001
g2
sI543
(I1
I1
tp357
ssI12571
(dp358
I12571
g2
ssI23963
(dp359
I23963
g2
ssI16669
(dp360
I10356
(I1
I1
tp361
sI16669
g2
ssI3870
(dp362
I3870
g2
sI9854
(I1
I1
tp363
ssI22149
(dp364
I964
(I1
I1
tp365
sI292
(I1
I1
tp366
sI22149
g2
ssI18208
(dp367
I18208
g2
ssI25648
(dp368
I14588
(I1
I1
tp369
ssI3362
(dp370
I3362
g2
sI26055
(I1
I1
tp371
sI964
(I1
I1
tp372
sI26054
(I1
I1
tp373
sI19399
(I1
I1
tp374
ssI292
(dp375
I4481
(I1
I1
tp376
sI2
(I1
I1
tp377
sI292
g2
sI24165
(I1
I1
tp378
sI13319
(I1
I1
tp379
sI24162
(I1
I1
tp380
sI4309
(I1
I1
tp381
sI24161
(I1
I1
tp382
sI13468
(I1
I1
tp383
sI24158
(I1
I1
tp384
sI22149
(I1
I1
tp385
ssI12581
(dp386
I12581
g2
ssI25649
(dp387
I10356
(I1
I1
tp388
ssI14633
(dp389
I14633
g2
sI2
(I1
I1
tp390
sI964
(I1
I1
tp391
ssI4401
(dp392
I4401
g2
ssI15923
(dp393
I2
(I1
I1
tp394
sI15923
g2
ssI24165
(dp395
I292
(I1
I1
tp396
sI24165
g2
ssI16309
(dp397
I16212
(I1
I1
tp398
sI16309
g2
ssI24987
(dp399
I955
(I1
I1
tp400
ssI16224
(dp401
I16224
g2
ssI19266
(dp402
I431
(I1
I1
tp403
ssI20619
(dp404
I14588
(I1
I1
tp405
sI9102
(I1
I1
tp406
ssI5957
(dp407
I5957
g2
ssI13208
(dp408
I13208
g2
ssI24906
(dp409
I24906
g2
sI639
(I1
I1
tp410
ssI10871
(dp411
I10871
g2
ssI18402
(dp412
I3119
(I1
I1
tp413
ssI8740
(dp414
I8740
g2
sI2
(I1
I1
tp415
sI964
(I1
I1
tp416
ssI19793
(dp417
I19793
g2
ssI4947
(dp418
I15802
(I1
I1
tp419
sI4947
g2
sI613
(I1
I1
tp420
ssI16212
(dp421
I16308
(I1
I1
tp422
sI16212
g2
sI16309
(I1
I1
tp423
ssI11094
(dp424
I4713
(I1
I1
tp425
ssI11096
(dp426
I11096
g2
sI4713
(I1
I1
tp427
ssI14052
(dp428
I14052
g2
ssI3930
(dp429
I3930
g2
ssI5981
(dp430
I5981
g2
ssI9252
(dp431
I9252
g2
ssI2400
(dp432
I2400
g2
sI19963
(I1
I1
tp433
ssI1377
(dp434
I1377
g2
sI638
(I1
I1
tp435
ssI18274
(dp436
I18274
g2
ssI1381
(dp437
I19963
(I1
I1
tp438
sI1381
g2
sI638
(I1
I1
tp439
ssI15718
(dp440
I15718
g2
ssI8551
(dp441
I8551
g2
ssI1896
(dp442
I1896
g2
ssI14396
(dp443
I14396
g2
ssI16234
(dp444
I24083
(I1
I1
tp445
sI16234
g2
sI3703
(I1
I1
tp446
sI543
(I1
I1
tp447
ssI15725
(dp448
I15725
g2
ssI20334
(dp449
I20334
g2
ssI19963
(dp450
I2400
(I1
I1
tp451
sI19963
g2
sI1381
(I1
I1
tp452
ssI7024
(dp453
I7024
g2
sI639
(I1
I1
tp454
ssI13169
(dp455
I13169
g2
ssI2930
(dp456
I2930
g2
ssI24949
(dp457
I24083
(I1
I1
tp458
ssI13174
(dp459
I13174
g2
ssI20969
(dp460
I543
(I1
I1
tp461
ssI10104
(dp462
I10104
g2
ssI13177
(dp463
I13177
g2
ssI24442
(dp464
I642
(I1
I1
tp465
ssI19324
(dp466
I19324
g2
ssI21738
(dp467
I21738
g2
ssI13182
(dp468
I13182
g2
ssI23445
(dp469
I2
(I1
I1
tp470
ssI4481
(dp471
I4481
g2
sI292
(I1
I1
tp472
ssI13186
(dp473
I13186
g2
ssI13187
(dp474
I642
(I1
I1
tp475
sI13187
g2
ssI23455
(dp476
I2
(I1
I1
tp477
sI23455
g2
ssI13189
(dp478
I13189
g2
ssI19334
(dp479
I19334
g2
ssI18327
(dp480
I642
(I1
I1
tp481
sI18327
g2
ssI9102
(dp482
I14588
(I2
I1
tp483
sI9102
g2
ssI3984
(dp484
I3984
g2
ssI11160
(dp485
I4021
(I1
I1
tp486
ssI13205
(dp487
I13205
g2
ssI13207
(dp488
I13207
g2
ssI920
(dp489
I920
g2
ssI13209
(dp490
I13209
g2
ssI18330
(dp491
I18330
g2
ssI923
(dp492
I923
g2
ssI17820
(dp493
I17821
(I1
I1
tp494
ssI17821
(dp495
I642
(I1
I1
tp496
sI17821
g2
ssI15494
(dp497
I10480
(I1
I1
tp498
ssI20293
(dp499
I20293
g2
ssI20385
(dp500
I20385
g2
ssI13218
(dp501
I642
(I1
I1
tp502
sI13218
g2
ssI23459
(dp503
I2
(I1
I1
tp504
ssI24485
(dp505
I613
(I1
I1
tp506
ssI18417
(dp507
I18417
g2
ssI13054
(dp508
I13054
g2
ssI13468
(dp509
I13468
g2
sI292
(I1
I1
tp510
ssI21240
(dp511
I21240
g2
ssI431
(dp512
I21
(I1
I1
tp513
sI431
g2
ssI13232
(dp514
I13232
g2
ssI26184
(dp515
I26184
g2
ssI23474
(dp516
I2
(I1
I1
tp517
ssI13159
(dp518
I13159
g2
ssI16308
(dp519
I16308
g2
sI16212
(I1
I1
tp520
ssI4021
(dp521
I4021
g2
ssI19399
(dp522
I3362
(I1
I1
tp523
sI19399
g2
ssI15945
(dp524
I13468
(I1
I1
tp525
ssI952
(dp526
I952
g2
sI955
(I1
I1
tp527
sI964
(I1
I1
tp528
ssI15802
(dp529
I15802
g2
sI4947
(I1
I1
tp530
ssI955
(dp531
I952
(I1
I1
tp532
sI955
g2
ssI10172
(dp533
I2
(I1
I1
tp534
sI964
(I1
I1
tp535
sI14588
(I2
I1
tp536
sI11801
(I1
I1
tp537
sI10172
g2
sI11806
(I1
I1
tp538
ssI4085
(dp539
I4085
g2
ssI11608
(dp540
I11608
g2
ssI21954
(dp541
I21954
g2
ssI964
(dp542
I2
(I1
I1
tp543
sI22147
(I1
I1
tp544
sI964
g2
sI22149
(I1
I1
tp545
sI14633
(I1
I1
tp546
sI3362
(I1
I1
tp547
sI14921
(I1
I1
tp548
sI952
(I1
I1
tp549
sI8740
(I1
I1
tp550
sI10172
(I1
I1
tp551
sI11806
(I1
I1
tp552
sI543
(I1
I1
tp553
ssI20968
(dp554
I543
(I1
I1
tp555
ssI26054
(dp556
I3362
(I1
I1
tp557
sI26054
g2
ssI17863
(dp558
I17863
g2
ssI19913
(dp559
I17821
(I1
I1
tp560
ssI10186
(dp561
I10186
g2
ssI12747
(dp562
I12747
g2
ssI18384
(dp563
I3089
(I1
I1
tp564
ssI13160
(dp565
I13160
g2
ssI19411
(dp566
I19411
g2
ssI18393
(dp567
I18393
g2
ssI20957
(dp568
I13792
(I2
I1
tp569
sI20957
g2
sI543
(I1
I1
tp570
ssI25555
(dp571
I25555
g2
sI631
(I1
I1
tp572
ssI19935
(dp573
I19935
g2
ssI13792
(dp574
I13792
g2
sI13793
(I1
I1
tp575
sI20957
(I2
I1
tp576
sI543
(I2
I1
tp577
ssI11233
(dp578
I11233
g2
sI613
(I1
I1
tp579
ssI13794
(dp580
I13792
(I1
I1
tp581
sI20957
(I1
I1
tp582
sI543
(I1
I1
tp583
ssI13051
(dp584
I13051
g2
ssI12776
(dp585
I12776
g2
ssI14588
(dp586
I14588
g2
sI2
(I1
I1
tp587
sI10172
(I2
I1
tp588
sI9102
(I2
I1
tp589
ssI22964
(dp590
I22964
g2
sI613
(I1
I1
tp591
ssI21191
(dp592
I21191
g2
ssI13224
(dp593
I13224
g2
ssI26211
(dp594
I26211
g2
ssI1525
(dp595
I1525
g2
ssI20905
(dp596
I20905
g2
sI1636
(I1
I1
tp597
ssI2554
(dp598
I2554
g2
ssI19451
(dp599
I19451
g2
ssI19452
(dp600
I19452
g2
ssI9854
(dp601
I3870
(I1
I1
tp602
sI21797
(I1
I1
tp603
sI9854
g2
ssI20987
(dp604
I20987
g2
ss.