(dp0
I4096
(dp1
I1578
(I1
I1
tp2
ssI15360
(dp3
I15360
(I0
I1
tp4
ssI4098
(dp5
I1578
(I1
I1
tp6
sI10171
(I1
I1
tp7
sI4098
g4
ssI15875
(dp8
I1194
(I1
I1
tp9
ssI9221
(dp10
I2460
(I1
I1
tp11
sI9221
g4
ssI4102
(dp12
I1578
(I1
I1
tp13
sI4102
g4
ssI4103
(dp14
I1578
(I1
I1
tp15
ssI4104
(dp16
I1578
(I1
I1
tp17
ssI1034
(dp18
I1034
g4
sI1614
(I1
I1
tp19
ssI3084
(dp20
I13976
(I1
I1
tp21
sI11140
(I1
I1
tp22
sI811
(I1
I1
tp23
sI3084
g4
sI5366
(I1
I1
tp24
ssI4109
(dp25
I1578
(I1
I1
tp26
ssI1550
(dp27
I18114
(I1
I1
tp28
sI18110
(I1
I1
tp29
sI1550
g4
ssI4111
(dp30
I1578
(I1
I1
tp31
ssI1041
(dp32
I947
(I1
I1
tp33
ssI21011
(dp34
I21011
g4
sI811
(I1
I1
tp35
ssI23214
(dp36
I21722
(I1
I1
tp37
sI23214
g4
ssI5143
(dp38
I5143
g4
ssI1048
(dp39
I1048
g4
sI947
(I1
I1
tp40
ssI1049
(dp41
I947
(I1
I1
tp42
ssI14767
(dp43
I10350
(I1
I1
tp44
sI14767
g4
ssI21022
(dp45
I811
(I1
I1
tp46
sI21022
g4
ssI21025
(dp47
I811
(I1
I1
tp48
ssI21027
(dp49
I21027
g4
sI811
(I1
I1
tp50
ssI2599
(dp51
I2599
g4
sI811
(I1
I1
tp52
sI2479
(I2
I1
tp53
ssI1576
(dp54
I1576
g4
sI1578
(I1
I1
tp55
ssI21033
(dp56
I21033
g4
sI811
(I1
I1
tp57
ssI1578
(dp58
I1576
(I1
I1
tp59
sI1578
g4
sI4098
(I1
I1
tp60
sI4102
(I1
I1
tp61
ssI9223
(dp62
I9223
g4
ssI1580
(dp63
I1576
(I1
I1
tp64
ssI21039
(dp65
I811
(I1
I1
tp66
sI21039
g4
ssI2951
(dp67
I2951
g4
ssI19001
(dp68
I19001
g4
ssI4155
(dp69
I811
(I1
I1
tp70
sI4155
g4
ssI21053
(dp71
I811
(I1
I1
tp72
sI21053
g4
ssI3851
(dp73
I4897
(I2
I1
tp74
sI1194
(I1
I1
tp75
sI3851
g4
sI3850
(I1
I1
tp76
ssI6216
(dp77
I6216
g4
sI8706
(I1
I1
tp78
sI4251
(I1
I1
tp79
ssI5193
(dp80
I5193
g4
sI5194
(I1
I1
tp81
ssI5194
(dp82
I5193
(I1
I1
tp83
sI5194
g4
sI811
(I1
I1
tp84
sI16873
(I1
I1
tp85
ssI5195
(dp86
I5195
g4
sI5196
(I1
I1
tp87
ssI5196
(dp88
I11177
(I1
I1
tp89
sI5195
(I1
I1
tp90
sI5196
g4
sI11171
(I1
I1
tp91
ssI1614
(dp92
I1034
(I1
I1
tp93
sI1614
g4
ssI13903
(dp94
I13903
g4
ssI11619
(dp95
I1194
(I1
I1
tp96
sI11619
g4
ssI18446
(dp97
I811
(I1
I1
tp98
sI18446
g4
ssI21706
(dp99
I21706
g4
ssI2660
(dp100
I811
(I1
I1
tp101
sI2660
g4
ssI1125
(dp102
I893
(I1
I1
tp103
sI1125
g4
ssI13920
(dp104
I13920
g4
sI1194
(I1
I1
tp105
ssI26210
(dp106
I7911
(I1
I1
tp107
ssI14523
(dp108
I14523
g4
sI12566
(I1
I1
tp109
ssI5732
(dp110
I5732
g4
sI5733
(I1
I1
tp111
ssI5733
(dp112
I811
(I1
I1
tp113
sI5732
(I1
I1
tp114
sI5733
g4
ssI1553
(dp115
I1553
g4
ssI26378
(dp116
I26378
g4
ssI8813
(dp117
I8813
g4
sI2439
(I1
I1
tp118
ssI10350
(dp119
I14797
(I1
I1
tp120
sI10429
(I1
I1
tp121
sI10350
g4
sI14767
(I1
I1
tp122
ssI9661
(dp123
I1194
(I1
I1
tp124
sI14723
(I1
I1
tp125
sI9661
g4
sI11454
(I1
I1
tp126
ssI1136
(dp127
I1136
g4
ssI3698
(dp128
I3698
g4
sI811
(I1
I1
tp129
sI9215
(I1
I1
tp130
ssI18110
(dp131
I18114
(I1
I1
tp132
sI18110
g4
sI1550
(I1
I1
tp133
ssI13431
(dp134
I811
(I1
I1
tp135
sI13431
g4
ssI18532
(dp136
I18532
g4
ssI8829
(dp137
I8829
g4
ssI4739
(dp138
I4739
g4
ssI892
(dp139
I892
g4
sI893
(I1
I1
tp140
ssI17035
(dp141
I811
(I1
I1
tp142
sI17035
g4
ssI11916
(dp143
I11916
g4
ssI25710
(dp144
I25535
(I1
I1
tp145
sI2479
(I1
I1
tp146
ssI13976
(dp147
I13976
g4
sI3084
(I1
I1
tp148
ssI4251
(dp149
I6216
(I1
I1
tp150
sI4251
g4
ssI25757
(dp151
I25757
g4
ssI21019
(dp152
I21019
g4
sI811
(I1
I1
tp153
ssI1701
(dp154
I1705
(I1
I1
tp155
sI1701
g4
sI1702
(I1
I1
tp156
sI1703
(I1
I1
tp157
ssI1702
(dp158
I1701
(I1
I1
tp159
sI1702
g4
ssI1703
(dp160
I1701
(I1
I1
tp161
sI12566
(I1
I1
tp162
sI1703
g4
ssI2216
(dp163
I2216
g4
ssI1705
(dp164
I1705
g4
sI1701
(I1
I1
tp165
sI12566
(I1
I1
tp166
ssI1194
(dp167
I13920
(I1
I1
tp168
sI4897
(I1
I1
tp169
sI11619
(I1
I1
tp170
sI3851
(I1
I1
tp171
sI1194
g4
sI811
(I1
I1
tp172
sI14833
(I1
I1
tp173
sI9661
(I1
I1
tp174
sI15871
(I1
I1
tp175
ssI13998
(dp176
I811
(I1
I1
tp177
ssI3771
(dp178
I3771
g4
ssI15036
(dp179
I1703
(I1
I1
tp180
ssI10429
(dp181
I14723
(I1
I1
tp182
sI10429
g4
sI10350
(I1
I1
tp183
ssI11454
(dp184
I9658
(I1
I1
tp185
sI9661
(I1
I1
tp186
sI11454
g4
sI9215
(I1
I1
tp187
ssI10944
(dp188
I10944
g4
sI811
(I1
I1
tp189
ssI18114
(dp190
I18114
g4
sI18110
(I1
I1
tp191
sI1550
(I1
I1
tp192
ssI4808
(dp193
I4808
g4
sI4476
(I1
I1
tp194
ssI9930
(dp195
I9930
g4
sI811
(I1
I1
tp196
ssI14797
(dp197
I14797
g4
sI10350
(I1
I1
tp198
ssI10451
(dp199
I811
(I1
I1
tp200
sI10451
g4
ssI3290
(dp201
I3290
g4
sI811
(I1
I1
tp202
ssI1245
(dp203
I1245
g4
ssI25311
(dp204
I21049
(I1
I1
tp205
sI25311
g4
ssI23270
(dp206
I23270
g4
ssI7911
(dp207
I811
(I1
I1
tp208
sI7911
g4
ssI6889
(dp209
I6889
g4
sI4476
(I1
I1
tp210
ssI5867
(dp211
I5868
(I1
I1
tp212
ssI5868
(dp213
I811
(I1
I1
tp214
sI5868
g4
ssI25042
(dp215
I25043
(I1
I1
tp216
ssI4136
(dp217
I4136
g4
sI893
(I1
I1
tp218
ssI3826
(dp219
I3826
g4
sI811
(I1
I1
tp220
ssI18899
(dp221
I18899
g4
sI4476
(I1
I1
tp222
ssI756
(dp223
I756
g4
ssI5366
(dp224
I16338
(I1
I1
tp225
sI16339
(I1
I1
tp226
sI3084
(I1
I1
tp227
sI5366
g4
ssI4855
(dp228
I811
(I1
I1
tp229
sI4855
g4
ssI4858
(dp230
I4858
g4
sI811
(I1
I1
tp231
ssI18303
(dp232
I18303
g4
ssI9983
(dp233
I811
(I1
I1
tp234
sI9983
g4
ssI20736
(dp235
I20736
g4
sI1494
(I1
I1
tp236
ssI22513
(dp237
I10615
(I1
I1
tp238
ssI14084
(dp239
I14723
(I1
I1
tp240
sI14084
g4
ssI3850
(dp241
I3850
g4
sI3851
(I1
I1
tp242
ssI2827
(dp243
I2827
g4
sI811
(I1
I1
tp244
sI2460
(I1
I1
tp245
ssI24963
(dp246
I24963
g4
ssI12566
(dp247
I1705
(I1
I1
tp248
sI14523
(I1
I1
tp249
sI12566
g4
sI1703
(I1
I1
tp250
ssI26392
(dp251
I11140
(I1
I1
tp252
ssI14212
(dp253
I14212
g4
ssI21722
(dp254
I21722
g4
sI23214
(I1
I1
tp255
ssI20766
(dp256
I20766
g4
sI2479
(I1
I1
tp257
ssI24965
(dp258
I24965
g4
ssI4897
(dp259
I4897
g4
sI1194
(I1
I1
tp260
sI3851
(I2
I1
tp261
ssI26410
(dp262
I26410
g4
ssI811
(dp263
I11140
(I1
I1
tp264
sI19333
(I1
I1
tp265
sI902
(I1
I1
tp266
sI4403
(I1
I1
tp267
sI2827
(I1
I1
tp268
sI3084
(I1
I1
tp269
sI18446
(I1
I1
tp270
sI21011
(I1
I1
tp271
sI13431
(I1
I1
tp272
sI21019
(I1
I1
tp273
sI2460
(I1
I1
tp274
sI18266
(I1
I1
tp275
sI21022
(I1
I1
tp276
sI4001
(I1
I1
tp277
sI21027
(I1
I1
tp278
sI2599
(I1
I1
tp279
sI21033
(I1
I1
tp280
sI1194
(I1
I1
tp281
sI811
g4
sI3698
(I1
I1
tp282
sI21039
(I1
I1
tp283
sI947
(I1
I1
tp284
sI10550
(I1
I1
tp285
sI21049
(I1
I1
tp286
sI4155
(I1
I1
tp287
sI4925
(I1
I1
tp288
sI10944
(I1
I1
tp289
sI17035
(I1
I1
tp290
sI9930
(I1
I1
tp291
sI4855
(I1
I1
tp292
sI14285
(I1
I1
tp293
sI16338
(I1
I1
tp294
sI10451
(I1
I1
tp295
sI5194
(I1
I1
tp296
sI3290
(I1
I1
tp297
sI10083
(I1
I1
tp298
sI2660
(I1
I1
tp299
sI5733
(I1
I1
tp300
sI7911
(I1
I1
tp301
sI14697
(I1
I1
tp302
sI5868
(I1
I1
tp303
sI21053
(I1
I1
tp304
sI18800
(I1
I1
tp305
sI3826
(I1
I1
tp306
sI10615
(I1
I1
tp307
sI4858
(I1
I1
tp308
sI893
(I1
I1
tp309
sI9983
(I1
I1
tp310
ssI16605
(dp311
I10429
(I1
I1
tp312
ssI19248
(dp313
I4897
(I1
I1
tp314
sI3851
(I1
I1
tp315
ssI4403
(dp316
I4403
g4
sI811
(I1
I1
tp317
sI8701
(I1
I1
tp318
ssI10550
(dp319
I811
(I1
I1
tp320
sI10550
g4
ssI26424
(dp321
I26424
g4
ssI26428
(dp322
I26428
g4
ssI4925
(dp323
I811
(I1
I1
tp324
sI4925
g4
ssI4414
(dp325
I15955
(I1
I1
tp326
sI20860
(I1
I1
tp327
sI4414
g4
sI5095
(I1
I1
tp328
ssI4928
(dp329
I4928
g4
ssI10920
(dp330
I10920
g4
ssI12612
(dp331
I12612
g4
ssI12616
(dp332
I12616
g4
sI4476
(I1
I1
tp333
ssI2378
(dp334
I2378
g4
ssI2382
(dp335
I2382
g4
ssI8706
(dp336
I6216
(I1
I1
tp337
sI8706
g4
ssI21049
(dp338
I21049
g4
sI811
(I1
I1
tp339
sI25311
(I1
I1
tp340
ssI18266
(dp341
I18266
g4
sI811
(I1
I1
tp342
ssI10083
(dp343
I10083
g4
sI811
(I1
I1
tp344
ssI10600
(dp345
I10600
g4
sI4476
(I1
I1
tp346
ssI14697
(dp347
I14697
g4
sI811
(I1
I1
tp348
ssI14698
(dp349
I2599
(I1
I1
tp350
sI2479
(I1
I1
tp351
ssI22101
(dp352
I22101
g4
ssI18800
(dp353
I18800
g4
sI811
(I1
I1
tp354
ssI10615
(dp355
I811
(I1
I1
tp356
sI10615
g4
ssI4475
(dp357
I4475
g4
sI4476
(I1
I1
tp358
ssI4476
(dp359
I10600
(I1
I1
tp360
sI12616
(I1
I1
tp361
sI6889
(I1
I1
tp362
sI4808
(I1
I1
tp363
sI7112
(I1
I1
tp364
sI18899
(I1
I1
tp365
sI4475
(I1
I1
tp366
sI4476
g4
ssI893
(dp367
I4136
(I1
I1
tp368
sI811
(I1
I1
tp369
sI892
(I1
I1
tp370
sI893
g4
sI1125
(I1
I1
tp371
ssI12714
(dp372
I12714
g4
ssI22336
(dp373
I22336
g4
sI2479
(I1
I1
tp374
ssI24962
(dp375
I24962
g4
ssI14723
(dp376
I14723
g4
sI14084
(I1
I1
tp377
sI10429
(I1
I1
tp378
sI9661
(I1
I1
tp379
ssI11140
(dp380
I11140
g4
sI811
(I1
I1
tp381
sI3084
(I1
I1
tp382
ssI19333
(dp383
I811
(I1
I1
tp384
sI19333
g4
ssI902
(dp385
I811
(I1
I1
tp386
sI902
g4
ssI2439
(dp387
I8813
(I1
I1
tp388
sI2439
g4
ssI22922
(dp389
I9983
(I1
I1
tp390
ssI4491
(dp391
I4491
g4
ssI11150
(dp392
I5366
(I1
I1
tp393
ssI20860
(dp394
I20860
g4
sI4414
(I1
I1
tp395
ssI4500
(dp396
I4500
g4
sI2479
(I1
I1
tp397
ssI2460
(dp398
I2827
(I1
I1
tp399
sI15955
(I1
I1
tp400
sI811
(I1
I1
tp401
sI2460
g4
sI9221
(I1
I1
tp402
ssI26286
(dp403
I26286
g4
ssI4001
(dp404
I4001
g4
sI811
(I1
I1
tp405
ssI11171
(dp406
I11171
g4
sI5196
(I1
I1
tp407
ssI14833
(dp408
I14833
g4
sI1194
(I1
I1
tp409
ssI11177
(dp410
I11177
g4
sI5196
(I1
I1
tp411
ssI11178
(dp412
I5196
(I1
I1
tp413
ssI2479
(dp414
I22336
(I1
I1
tp415
sI2599
(I2
I1
tp416
sI2479
g4
sI4500
(I1
I1
tp417
sI20766
(I1
I1
tp418
sI25535
(I2
I1
tp419
ssI22960
(dp420
I4491
(I1
I1
tp421
ssI947
(dp422
I1048
(I1
I1
tp423
sI811
(I1
I1
tp424
sI947
g4
ssI4023
(dp425
I4023
g4
ssI9658
(dp426
I9658
g4
sI11454
(I1
I1
tp427
ssI10171
(dp428
I4098
(I1
I1
tp429
sI10171
g4
ssI4541
(dp430
I4541
g4
ssI25535
(dp431
I25535
g4
sI2479
(I2
I1
tp432
ssI7112
(dp433
I7112
g4
sI4476
(I1
I1
tp434
ssI9163
(dp435
I9163
g4
ssI14285
(dp436
I811
(I1
I1
tp437
sI14285
g4
ssI25043
(dp438
I25043
g4
ssI16338
(dp439
I16338
g4
sI811
(I1
I1
tp440
sI5366
(I1
I1
tp441
ssI16339
(dp442
I16339
g4
sI5366
(I1
I1
tp443
ssI1494
(dp444
I20736
(I1
I1
tp445
sI1494
g4
ssI5095
(dp446
I4414
(I1
I1
tp447
sI5095
g4
ssI1000
(dp448
I1000
g4
ssI16873
(dp449
I16873
g4
sI5194
(I1
I1
tp450
ssI14829
(dp451
I5868
(I1
I1
tp452
ssI1009
(dp453
I1009
g4
ssI15955
(dp454
I15955
g4
sI2460
(I1
I1
tp455
sI4414
(I1
I1
tp456
ssI15866
(dp457
I1194
(I1
I1
tp458
ssI15871
(dp459
I1194
(I1
I1
tp460
sI15871
g4
ssI26108
(dp461
I16338
(I1
I1
tp462
ssI8701
(dp463
I4403
(I1
I1
tp464
sI8701
g4
ssI15870
(dp465
I1194
(I1
I1
tp466
ssI9215
(dp467
I3698
(I1
I1
tp468
sI11454
(I1
I1
tp469
sI9215
g4
ss.