(dp0
I25030
(dp1
I25030
(I0
I1
tp2
ssI4611
(dp3
I4611
g2
sI4556
(I1
I1
tp4
ssI3076
(dp5
I3076
g2
ssI21129
(dp6
I21129
g2
sI4556
(I1
I1
tp7
ssI1802
(dp8
I1802
g2
ssI8587
(dp9
I8587
g2
sI884
(I1
I1
tp10
ssI12
(dp11
I12
g2
ssI23954
(dp12
I23954
g2
ssI1554
(dp13
I5024
(I1
I1
tp14
sI1554
g2
ssI9795
(dp15
I5187
(I1
I1
tp16
sI9795
g2
ssI16152
(dp17
I16152
g2
ssI20250
(dp18
I20250
g2
ssI3995
(dp19
I3995
g2
ssI23964
(dp20
I23964
g2
ssI2717
(dp21
I2717
g2
ssI3359
(dp22
I3359
g2
ssI5024
(dp23
I5024
g2
sI1554
(I1
I1
tp24
ssI5028
(dp25
I5028
g2
ssI9381
(dp26
I9381
g2
ssI1830
(dp27
I1830
g2
ssI20977
(dp28
I20977
g2
ssI11688
(dp29
I11688
g2
ssI19754
(dp30
I19754
g2
ssI26285
(dp31
I26285
g2
ssI25764
(dp32
I25764
g2
ssI26141
(dp33
I26141
g2
ssI26161
(dp34
I26161
g2
ssI1203
(dp35
I1204
(I1
I1
tp36
ssI3252
(dp37
I3252
g2
ssI13494
(dp38
I13494
g2
ssI25298
(dp39
I25298
g2
ssI1204
(dp40
I1204
g2
ssI1850
(dp41
I1850
g2
ssI14140
(dp42
I14140
g2
ssI16160
(dp43
I16160
g2
ssI1729
(dp44
I1729
g2
ssI26178
(dp45
I26178
g2
ssI5187
(dp46
I5187
g2
sI9795
(I1
I1
tp47
sI9797
(I1
I1
tp48
ssI9797
(dp49
I5187
(I1
I1
tp50
sI9797
g2
ssI3782
(dp51
I3782
g2
ssI26347
(dp52
I26347
g2
ssI2248
(dp53
I2248
g2
ssI13772
(dp54
I13772
g2
ssI4556
(dp55
I21129
(I1
I1
tp56
sI4611
(I1
I1
tp57
sI4556
g2
ssI24013
(dp58
I24013
g2
ssI12498
(dp59
I2717
(I1
I1
tp60
ssI26067
(dp61
I26067
g2
ssI981
(dp62
I981
g2
ssI20823
(dp63
I20823
g2
ssI18776
(dp64
I2717
(I1
I1
tp65
ssI9764
(dp66
I9764
g2
ssI26415
(dp67
I26415
g2
ssI10077
(dp68
I10077
g2
ssI14565
(dp69
I14565
g2
ssI1888
(dp70
I1888
g2
ssI24546
(dp71
I24546
g2
ssI17915
(dp72
I17915
g2
ssI8805
(dp73
I8805
g2
ssI25961
(dp74
I25961
g2
ssI24443
(dp75
I24443
g2
ssI14060
(dp76
I14060
g2
ssI15597
(dp77
I15597
g2
ssI9967
(dp78
I9967
g2
ssI1777
(dp79
I1777
g2
ssI883
(dp80
I884
(I1
I1
tp81
ssI884
(dp82
I8587
(I1
I1
tp83
sI884
g2
ssI21237
(dp84
I21237
g2
ssI21366
(dp85
I21366
g2
ssI25925
(dp86
I25925
g2
ssI17914
(dp87
I17915
(I1
I1
tp88
ssI10235
(dp89
I10235
g2
ssI22015
(dp90
I22015
g2
ss.