(dp0
I9861
(dp1
I23874
(I1
I1
tp2
sI9861
(I0
I1
tp3
ssI4616
(dp4
I4616
g3
ssI268
(dp5
I268
g3
ssI26003
(dp6
I2105
(I1
I1
tp7
ssI1941
(dp8
I13780
(I1
I1
tp9
sI22828
(I1
I1
tp10
sI1941
g3
sI5886
(I1
I1
tp11
ssI14871
(dp12
I14871
g3
ssI6562
(dp13
I6562
g3
ssI23971
(dp14
I23971
g3
ssI10918
(dp15
I2105
(I1
I1
tp16
sI10918
g3
ssI18346
(dp17
I18346
g3
ssI22828
(dp18
I22828
g3
sI1941
(I1
I1
tp19
ssI22832
(dp20
I22832
g3
ssI10805
(dp21
I10805
g3
ssI9398
(dp22
I268
(I1
I1
tp23
ssI2105
(dp24
I2105
g3
sI10918
(I1
I1
tp25
sI22487
(I1
I1
tp26
ssI23874
(dp27
I23874
g3
sI9861
(I1
I1
tp28
ssI5959
(dp29
I473
(I1
I1
tp30
sI5959
g3
ssI6602
(dp31
I6602
g3
ssI16972
(dp32
I16972
g3
ssI8014
(dp33
I8014
g3
ssI17871
(dp34
I17871
g3
ssI13780
(dp35
I13780
g3
sI1941
(I1
I1
tp36
ssI22487
(dp37
I2105
(I1
I1
tp38
sI22487
g3
ssI473
(dp39
I473
g3
sI17018
(I1
I1
tp40
sI5959
(I1
I1
tp41
ssI9829
(dp42
I9829
g3
ssI24951
(dp43
I24951
g3
ssI17018
(dp44
I473
(I1
I1
tp45
sI17018
g3
ssI5886
(dp46
I1941
(I1
I1
tp47
sI5886
g3
ss.