(dp0
I3726
(dp1
I3726
(I0
I1
tp2
ssI24493
(dp3
I24493
g2
sI24494
(I1
I1
tp4
ssI792
(dp5
I792
g2
sI3633
(I1
I1
tp6
sI8890
(I1
I1
tp7
sI8853
(I1
I1
tp8
sI8863
(I1
I1
tp9
ssI24467
(dp10
I24467
g2
ssI8853
(dp11
I792
(I1
I1
tp12
sI8853
g2
ssI8856
(dp13
I792
(I1
I1
tp14
ssI8858
(dp15
I792
(I1
I1
tp16
ssI25246
(dp17
I25246
g2
ssI8863
(dp18
I792
(I1
I1
tp19
sI8863
g2
ssI8864
(dp20
I792
(I1
I1
tp21
ssI8872
(dp22
I792
(I1
I1
tp23
ssI8874
(dp24
I792
(I1
I1
tp25
ssI9389
(dp26
I9389
g2
ssI24494
(dp27
I24493
(I1
I1
tp28
sI24494
g2
ssI3633
(dp29
I792
(I1
I1
tp30
sI3633
g2
ssI20274
(dp31
I20274
g2
ssI8883
(dp32
I792
(I1
I1
tp33
ssI8884
(dp34
I792
(I1
I1
tp35
ssI22195
(dp36
I22195
g2
ssI8886
(dp37
I792
(I1
I1
tp38
ssI8888
(dp39
I792
(I1
I1
tp40
ssI8890
(dp41
I792
(I1
I1
tp42
sI8890
g2
ssI8894
(dp43
I792
(I1
I1
tp44
ssI15553
(dp45
I15553
g2
ssI19909
(dp46
I19909
g2
ssI22858
(dp47
I22858
g2
ssI12876
(dp48
I12876
g2
ssI9424
(dp49
I9424
g2
ssI20920
(dp50
I20920
g2
ssI12501
(dp51
I12501
g2
ssI9433
(dp52
I9433
g2
ssI22369
(dp53
I22369
g2
ssI19298
(dp54
I19298
g2
ssI9321
(dp55
I9321
g2
ssI25235
(dp56
I25235
g2
ssI24510
(dp57
I24510
g2
ssI12539
(dp58
I12539
g2
ssI24234
(dp59
I24234
g2
ss.