(dp0
I1283
(dp1
I1283
(I0
I1
tp2
ssI1796
(dp3
I331
(I1
I1
tp4
ssI2309
(dp5
I3009
(I1
I1
tp6
sI2309
g2
ssI1670
(dp7
I1670
g2
ssI1799
(dp8
I331
(I1
I1
tp9
ssI1801
(dp10
I331
(I1
I1
tp11
sI13307
(I1
I1
tp12
ssI1808
(dp13
I331
(I1
I1
tp14
ssI1859
(dp15
I331
(I1
I1
tp16
ssI1825
(dp17
I331
(I1
I1
tp18
ssI26417
(dp19
I26417
g2
ssI26408
(dp20
I4960
(I1
I1
tp21
ssI1834
(dp22
I331
(I1
I1
tp23
ssI1197
(dp24
I1197
g2
ssI5937
(dp25
I5937
g2
ssI11698
(dp26
I11698
g2
ssI5299
(dp27
I4129
(I1
I1
tp28
ssI1718
(dp29
I331
(I1
I1
tp30
ssI19081
(dp31
I19081
g2
ssI1720
(dp32
I331
(I1
I1
tp33
ssI1721
(dp34
I4129
(I1
I1
tp35
sI331
(I1
I1
tp36
ssI1723
(dp37
I331
(I1
I1
tp38
ssI3009
(dp39
I3009
g2
sI2309
(I1
I1
tp40
ssI331
(dp41
I4129
(I2
I1
tp42
sI1732
(I1
I1
tp43
sI1770
(I1
I1
tp44
sI331
g2
sI1776
(I1
I1
tp45
sI1750
(I1
I1
tp46
sI13307
(I2
I1
tp47
ssI1732
(dp48
I331
(I1
I1
tp49
sI1732
g2
ssI1734
(dp50
I331
(I1
I1
tp51
ssI1735
(dp52
I331
(I1
I1
tp53
ssI1736
(dp54
I331
(I1
I1
tp55
ssI1865
(dp56
I331
(I1
I1
tp57
ssI330
(dp58
I331
(I1
I1
tp59
ssI1739
(dp60
I331
(I1
I1
tp61
ssI15052
(dp62
I15052
g2
ssI1745
(dp63
I331
(I1
I1
tp64
ssI1747
(dp65
I331
(I1
I1
tp66
ssI1748
(dp67
I331
(I1
I1
tp68
ssI1750
(dp69
I331
(I1
I1
tp70
sI1750
g2
ssI24570
(dp71
I1283
(I1
I1
tp72
ssI4960
(dp73
I4960
g2
ssI26171
(dp74
I4960
(I1
I1
tp75
ssI4129
(dp76
I4129
g2
sI331
(I2
I1
tp77
sI10945
(I1
I1
tp78
ssI1767
(dp79
I331
(I1
I1
tp80
ssI1770
(dp81
I1770
g2
sI331
(I1
I1
tp82
ssI1776
(dp83
I1776
g2
sI331
(I1
I1
tp84
ssI1781
(dp85
I331
(I1
I1
tp86
ssI10945
(dp87
I4129
(I1
I1
tp88
sI10945
g2
ssI13307
(dp89
I331
(I2
I1
tp90
sI13307
g2
ss.