(dp0
I2560
(dp1
I2560
(I0
I1
tp2
ssI12289
(dp3
I12289
g2
ssI19973
(dp4
I19973
g2
ssI2566
(dp5
I2566
g2
ssI12297
(dp6
I12297
g2
ssI2570
(dp7
I2570
g2
ssI12301
(dp8
I12301
g2
ssI2579
(dp9
I2579
g2
ssI5140
(dp10
I5140
g2
ssI23869
(dp11
I2268
(I1
I1
tp12
sI23869
g2
ssI12312
(dp13
I12312
g2
ssI25626
(dp14
I25626
g2
ssI2078
(dp15
I2078
g2
ssI12037
(dp16
I12037
g2
ssI19376
(dp17
I19376
g2
ssI2595
(dp18
I2595
g2
ssI2596
(dp19
I2596
g2
ssI8745
(dp20
I8745
g2
ssI3115
(dp21
I3115
g2
ssI14267
(dp22
I14267
g2
ssI1583
(dp23
I1583
g2
ssI20844
(dp24
I20844
g2
ssI2615
(dp25
I2615
g2
ssI3129
(dp26
I3129
g2
ssI25695
(dp27
I25695
g2
ssI1598
(dp28
I1598
g2
ssI14261
(dp29
I14261
g2
ssI1600
(dp30
I1600
g2
ssI6209
(dp31
I6209
g2
ssI5188
(dp32
I5188
g2
sI5189
(I1
I1
tp33
ssI5189
(dp34
I5188
(I1
I1
tp35
sI5189
g2
ssI13897
(dp36
I13897
g2
ssI12359
(dp37
I6332
(I1
I1
tp38
sI12359
g2
ssI2633
(dp39
I2633
g2
ssI15947
(dp40
I15947
g2
ssI13388
(dp41
I13388
g2
ssI2638
(dp42
I2638
g2
ssI4175
(dp43
I4175
g2
ssI8803
(dp44
I8803
g2
ssI6230
(dp45
I6230
g2
ssI25687
(dp46
I25687
g2
ssI2648
(dp47
I2648
g2
ssI5211
(dp48
I5218
(I1
I1
tp49
sI5221
(I1
I1
tp50
sI5225
(I1
I1
tp51
sI5211
g2
sI5212
(I1
I1
tp52
sI5213
(I1
I1
tp53
ssI5212
(dp54
I5211
(I1
I1
tp55
sI5212
g2
ssI5213
(dp56
I5211
(I1
I1
tp57
sI5213
g2
ssI2142
(dp58
I2142
g2
ssI5221
(dp59
I5211
(I1
I1
tp60
sI5221
g2
ssI5218
(dp61
I5218
g2
sI5211
(I1
I1
tp62
ssI5219
(dp63
I5211
(I1
I1
tp64
ssI5220
(dp65
I5211
(I1
I1
tp66
sI5213
(I1
I1
tp67
ssI4197
(dp68
I4197
g2
ssI23142
(dp69
I23142
g2
ssI2748
(dp70
I2748
g2
ssI4716
(dp71
I4716
g2
ssI5742
(dp72
I5742
g2
ssI2671
(dp73
I2671
g2
ssI1138
(dp74
I1138
g2
ssI2676
(dp75
I2676
g2
ssI5225
(dp76
I5225
g2
sI5211
(I1
I1
tp77
ssI11896
(dp78
I11896
g2
ssI3197
(dp79
I3197
g2
ssI16371
(dp80
I16371
g2
ssI12420
(dp81
I12420
g2
ssI17542
(dp82
I17542
g2
ssI1671
(dp83
I1671
g2
ssI18284
(dp84
I18284
g2
ssI2702
(dp85
I2702
g2
ssI5263
(dp86
I5263
g2
ssI5231
(dp87
I5231
g2
ssI16036
(dp88
I16036
g2
ssI16969
(dp89
I16969
g2
ssI3239
(dp90
I3239
g2
ssI12971
(dp91
I12971
g2
sI12972
(I1
I1
tp92
ssI12972
(dp93
I12971
(I1
I1
tp94
sI12972
g2
ssI12463
(dp95
I12463
g2
ssI6322
(dp96
I6322
g2
ssI3251
(dp97
I14611
(I1
I1
tp98
sI3251
g2
ssI11958
(dp99
I11958
g2
ssI2233
(dp100
I2233
g2
ssI700
(dp101
I700
g2
ssI19658
(dp102
I19659
(I1
I1
tp103
ssI1727
(dp104
I1727
g2
ssI8899
(dp105
I8899
g2
ssI13508
(dp106
I3563
(I1
I1
tp107
sI13508
g2
ssI2246
(dp108
I2246
g2
ssI25800
(dp109
I25800
g2
ssI20681
(dp110
I20681
g2
ssI8906
(dp111
I8906
g2
ssI19659
(dp112
I19659
g2
ssI20684
(dp113
I20684
g2
ssI1230
(dp114
I1230
g2
ssI8912
(dp115
I8912
g2
ssI6332
(dp116
I6332
g2
sI12359
(I1
I1
tp117
ssI8918
(dp118
I8918
g2
ssI1239
(dp119
I1239
g2
ssI5850
(dp120
I5850
g2
ssI2267
(dp121
I2267
g2
sI2268
(I1
I1
tp122
ssI2268
(dp123
I13892
(I1
I1
tp124
sI2267
(I1
I1
tp125
sI2268
g2
sI23869
(I1
I1
tp126
ssI10461
(dp127
I265
(I1
I1
tp128
sI10461
g2
ssI5854
(dp129
I5854
g2
ssI12470
(dp130
I12470
g2
ssI2273
(dp131
I2273
g2
sI2274
(I1
I1
tp132
ssI2274
(dp133
I2273
(I1
I1
tp134
sI2274
g2
ssI12003
(dp135
I12003
g2
ssI3306
(dp136
I3306
g2
ssI10988
(dp137
I10988
g2
ssI2797
(dp138
I2797
g2
ssI5870
(dp139
I5870
g2
ssI8943
(dp140
I8943
g2
ssI8659
(dp141
I8659
g2
sI484
(I1
I1
tp142
ssI17140
(dp143
I17140
g2
ssI14206
(dp144
I14206
g2
ssI25803
(dp145
I25803
g2
ssI10488
(dp146
I10488
g2
ssI2299
(dp147
I2305
(I1
I1
tp148
sI2299
g2
sI2285
(I1
I1
tp149
ssI2300
(dp150
I2305
(I1
I1
tp151
sI2285
(I1
I1
tp152
ssI1277
(dp153
I1277
g2
ssI9317
(dp154
I9317
g2
ssI18012
(dp155
I18012
g2
ssI2305
(dp156
I2305
g2
sI2299
(I1
I1
tp157
sI2285
(I1
I1
tp158
ssI2821
(dp159
I2821
g2
ssI6406
(dp160
I6406
g2
ssI10504
(dp161
I10504
g2
ssI265
(dp162
I265
g2
sI10461
(I1
I1
tp163
ssI21259
(dp164
I21259
g2
ssI19728
(dp165
I19728
g2
ssI14611
(dp166
I14611
g2
sI3251
(I1
I1
tp167
ssI25804
(dp168
I25804
g2
ssI10012
(dp169
I10012
g2
ssI8922
(dp170
I8922
g2
ssI5408
(dp171
I5408
g2
ssI16673
(dp172
I16673
g2
ssI20772
(dp173
I20772
g2
ssI5415
(dp174
I5415
g2
ssI15147
(dp175
I15147
g2
ssI12588
(dp176
I12588
g2
ssI4909
(dp177
I4909
g2
ssI12079
(dp178
I12079
g2
ssI2353
(dp179
I2353
g2
ssI2866
(dp180
I2866
g2
ssI14643
(dp181
I14643
g2
ssI10548
(dp182
I10548
g2
ssI8926
(dp183
I8926
g2
ssI14649
(dp184
I14649
g2
ssI829
(dp185
I829
g2
ssI22847
(dp186
I22847
g2
ssI25923
(dp187
I25923
g2
sI14253
(I1
I1
tp188
ssI4933
(dp189
I4933
g2
ssI5345
(dp190
I5345
g2
ssI6478
(dp191
I6478
g2
ssI338
(dp192
I338
g2
sI340
(I1
I1
tp193
ssI340
(dp194
I338
(I1
I1
tp195
sI340
g2
ssI8022
(dp196
I8022
g2
ssI13881
(dp197
I13881
g2
ssI23386
(dp198
I23386
g2
ssI12175
(dp199
I12175
g2
ssI12131
(dp200
I12131
g2
ssI20324
(dp201
I20324
g2
ssI2407
(dp202
I2407
g2
ssI17768
(dp203
I13892
(I1
I1
tp204
ssI24427
(dp205
I265
(I1
I1
tp206
ssI2924
(dp207
I2924
g2
ssI2413
(dp208
I2413
g2
ssI317
(dp209
I317
g2
ssI4976
(dp210
I4976
g2
sI3563
(I1
I1
tp211
ssI14231
(dp212
I14231
g2
ssI20857
(dp213
I20857
g2
ssI3451
(dp214
I3451
g2
ssI14204
(dp215
I14204
g2
ssI14205
(dp216
I14205
g2
ssI894
(dp217
I894
g2
ssI2431
(dp218
I2431
g2
ssI9093
(dp219
I9093
g2
ssI2441
(dp220
I2441
g2
ssI14219
(dp221
I14219
g2
ssI14220
(dp222
I14220
g2
ssI2959
(dp223
I2959
g2
ssI12510
(dp224
I12510
g2
ssI14232
(dp225
I14232
g2
ssI14238
(dp226
I14238
g2
ssI8084
(dp227
I8084
g2
ssI12782
(dp228
I12782
g2
ssI26006
(dp229
I26006
g2
ssI12183
(dp230
I12183
g2
ssI2285
(dp231
I2305
(I1
I1
tp232
sI2299
(I1
I1
tp233
sI2285
g2
ssI13892
(dp234
I13892
g2
sI2268
(I1
I1
tp235
ssI14234
(dp236
I14234
g2
ssI14237
(dp237
I14237
g2
ssI9118
(dp238
I9118
g2
ssI2629
(dp239
I2629
g2
ssI9120
(dp240
I9120
g2
ssI13730
(dp241
I13730
g2
ssI14245
(dp242
I14245
g2
ssI937
(dp243
I937
g2
ssI14253
(dp244
I25923
(I1
I1
tp245
sI14253
g2
ssI14233
(dp246
I14233
g2
ssI19378
(dp247
I19376
(I1
I1
tp248
ssI9715
(dp249
I9715
g2
ssI13726
(dp250
I13726
g2
ssI2487
(dp251
I2487
g2
ssI14264
(dp252
I14264
g2
ssI14239
(dp253
I14239
g2
ssI444
(dp254
I444
g2
ssI20925
(dp255
I20925
g2
ssI9153
(dp256
I9153
g2
ssI14276
(dp257
I14276
g2
ssI9160
(dp258
I9160
g2
ssI14282
(dp259
I14282
g2
ssI16290
(dp260
I16290
g2
ssI26064
(dp261
I13508
(I1
I1
tp262
ssI5075
(dp263
I5075
g2
ssI8660
(dp264
I8660
g2
sI8667
(I1
I1
tp265
sI484
(I1
I1
tp266
ssI20949
(dp267
I20949
g2
ssI8667
(dp268
I8660
(I1
I1
tp269
sI8667
g2
sI484
(I1
I1
tp270
ssI8670
(dp271
I484
(I1
I1
tp272
sI8670
g2
ssI12256
(dp273
I12256
g2
ssI11745
(dp274
I11745
g2
ssI2530
(dp275
I2530
g2
ssI484
(dp276
I8660
(I1
I1
tp277
sI8667
(I1
I1
tp278
sI484
g2
sI8670
(I1
I1
tp279
sI8659
(I1
I1
tp280
ssI5093
(dp281
I5093
g2
ssI5094
(dp282
I5094
g2
ssI6633
(dp283
I6633
g2
ssI2026
(dp284
I2026
g2
ssI3563
(dp285
I4976
(I1
I1
tp286
sI3563
g2
sI13508
(I1
I1
tp287
ssI2386
(dp288
I2386
g2
ssI12270
(dp289
I12270
g2
ssI5104
(dp290
I5104
g2
sI5107
(I1
I1
tp291
ssI5107
(dp292
I5104
(I1
I1
tp293
sI5107
g2
ssI7669
(dp294
I7669
g2
ssI16297
(dp295
I16297
g2
ssI22271
(dp296
I22271
g2
ssI12287
(dp297
I12287
g2
ss.