(dp0
I18432
(dp1
I18432
(I0
I1
tp2
ssI22530
(dp3
I456
(I1
I1
tp4
sI1338
(I1
I1
tp5
ssI2053
(dp6
I572
(I1
I1
tp7
sI2053
g2
ssI22543
(dp8
I442
(I1
I1
tp9
sI22543
g2
ssI2064
(dp10
I572
(I1
I1
tp11
sI452
(I1
I1
tp12
ssI17
(dp13
I17
g2
ssI24596
(dp14
I24596
g2
sI4999
(I1
I1
tp15
ssI18457
(dp16
I345
(I1
I1
tp17
sI18457
g2
ssI4127
(dp18
I345
(I1
I1
tp19
sI4127
g2
ssI8233
(dp20
I8233
g2
ssI2093
(dp21
I1305
(I1
I1
tp22
sI2093
g2
ssI2095
(dp23
I1305
(I1
I1
tp24
sI572
(I1
I1
tp25
sI2095
g2
ssI2096
(dp26
I1305
(I1
I1
tp27
sI9542
(I1
I1
tp28
ssI2102
(dp29
I1305
(I1
I1
tp30
sI2102
g2
ssI2103
(dp31
I1305
(I1
I1
tp32
sI2103
g2
ssI5130
(dp33
I5130
g2
sI572
(I1
I1
tp34
ssI2110
(dp35
I572
(I1
I1
tp36
sI2110
g2
ssI2125
(dp37
I2125
g2
ssI8272
(dp38
I8272
g2
ssI14418
(dp39
I14418
g2
sI2350
(I1
I1
tp40
ssI2405
(dp41
I452
(I1
I1
tp42
sI2405
g2
ssI20189
(dp43
I14515
(I1
I1
tp44
sI20189
g2
ssI2150
(dp45
I2150
g2
ssI22631
(dp46
I12500
(I1
I1
tp47
ssI2155
(dp48
I2155
g2
ssI14444
(dp49
I14444
g2
ssI2160
(dp50
I2160
g2
sI4737
(I1
I1
tp51
sI4738
(I1
I1
tp52
sI1707
(I1
I1
tp53
ssI2165
(dp54
I2165
g2
ssI16502
(dp55
I16502
g2
ssI16506
(dp56
I16506
g2
sI5349
(I1
I1
tp57
ssI2174
(dp58
I233
(I2
I1
tp59
sI452
(I1
I1
tp60
sI2174
g2
sI572
(I1
I1
tp61
ssI10369
(dp62
I10369
g2
ssI20843
(dp63
I20843
g2
ssI24711
(dp64
I1436
(I1
I1
tp65
ssI4460
(dp66
I4460
g2
ssI14477
(dp67
I14477
g2
ssI14690
(dp68
I14690
g2
ssI8338
(dp69
I8338
g2
ssI2198
(dp70
I2198
g2
ssI20634
(dp71
I20634
g2
ssI4253
(dp72
I4253
g2
ssI4255
(dp73
I4255
g2
ssI1392
(dp74
I233
(I1
I1
tp75
ssI10404
(dp76
I10404
g2
sI23302
(I1
I1
tp77
ssI20646
(dp78
I20646
g2
ssI4465
(dp79
I4465
g2
sI1707
(I1
I1
tp80
ssI24744
(dp81
I572
(I1
I1
tp82
ssI14515
(dp83
I14515
g2
sI20189
(I1
I1
tp84
ssI4278
(dp85
I4278
g2
ssI2232
(dp86
I2232
g2
ssI14521
(dp87
I14521
g2
sI1027
(I1
I1
tp88
ssI4283
(dp89
I4283
g2
ssI18760
(dp90
I18760
g2
ssI20683
(dp91
I20683
g2
ssI18643
(dp92
I18643
g2
sI572
(I1
I1
tp93
ssI12500
(dp94
I12500
g2
ssI24792
(dp95
I572
(I1
I1
tp96
ssI10462
(dp97
I10462
g2
ssI14560
(dp98
I14560
g2
ssI11643
(dp99
I11643
g2
ssI231
(dp100
I233
(I1
I1
tp101
sI231
g2
ssI233
(dp102
I1409
(I1
I1
tp103
sI1411
(I1
I1
tp104
sI1412
(I1
I1
tp105
sI1397
(I1
I1
tp106
sI1414
(I1
I1
tp107
sI1415
(I1
I1
tp108
sI1416
(I1
I1
tp109
sI1431
(I1
I1
tp110
sI1420
(I1
I1
tp111
sI1168
(I1
I1
tp112
sI1454
(I1
I1
tp113
sI1302
(I1
I1
tp114
sI1305
(I1
I1
tp115
sI1348
(I1
I1
tp116
sI1434
(I1
I1
tp117
sI1435
(I1
I1
tp118
sI1436
(I1
I1
tp119
sI669
(I1
I1
tp120
sI1441
(I1
I1
tp121
sI1442
(I1
I1
tp122
sI1443
(I1
I1
tp123
sI1446
(I1
I1
tp124
sI1449
(I1
I1
tp125
sI1322
(I1
I1
tp126
sI1451
(I1
I1
tp127
sI1325
(I1
I1
tp128
sI2350
(I2
I1
tp129
sI1455
(I1
I1
tp130
sI1330
(I1
I1
tp131
sI1332
(I1
I1
tp132
sI1461
(I1
I1
tp133
sI1334
(I1
I1
tp134
sI1335
(I1
I1
tp135
sI1306
(I1
I1
tp136
sI1467
(I1
I1
tp137
sI949
(I1
I1
tp138
sI452
(I1
I1
tp139
sI1478
(I1
I1
tp140
sI1313
(I1
I1
tp141
sI456
(I1
I1
tp142
sI1355
(I1
I1
tp143
sI1358
(I1
I1
tp144
sI1361
(I1
I1
tp145
sI850
(I1
I1
tp146
sI1366
(I1
I1
tp147
sI1367
(I1
I1
tp148
sI344
(I1
I1
tp149
sI1338
(I1
I1
tp150
sI1374
(I1
I1
tp151
sI231
(I1
I1
tp152
sI1384
(I1
I1
tp153
sI233
g2
sI1386
(I1
I1
tp154
sI1383
(I1
I1
tp155
sI1388
(I1
I1
tp156
sI1395
(I1
I1
tp157
sI1406
(I1
I1
tp158
sI1403
(I1
I1
tp159
sI1405
(I1
I1
tp160
sI2174
(I2
I1
tp161
ssI16619
(dp162
I16619
g2
ssI1405
(dp163
I233
(I1
I1
tp164
sI1405
g2
ssI14577
(dp165
I14577
g2
ssI2294
(dp166
I2294
g2
ssI8447
(dp167
I4455
(I1
I1
tp168
sI15142
(I1
I1
tp169
sI8447
g2
ssI2312
(dp170
I2312
g2
sI452
(I1
I1
tp171
ssI24844
(dp172
I24844
g2
ssI14605
(dp173
I12933
(I1
I1
tp174
ssI2318
(dp175
I572
(I1
I1
tp176
sI452
(I1
I1
tp177
sI2318
g2
ssI4367
(dp178
I4367
g2
ssI21891
(dp179
I12784
(I1
I1
tp180
sI12028
(I1
I1
tp181
sI572
(I1
I1
tp182
ssI2325
(dp183
I452
(I1
I1
tp184
ssI2327
(dp185
I345
(I1
I1
tp186
sI452
(I1
I1
tp187
sI2327
g2
ssI2328
(dp188
I2328
g2
sI452
(I1
I1
tp189
ssI2329
(dp190
I2329
g2
sI452
(I1
I1
tp191
ssI2332
(dp192
I572
(I1
I1
tp193
sI452
(I1
I1
tp194
sI2332
g2
ssI2333
(dp195
I452
(I1
I1
tp196
ssI18722
(dp197
I18722
g2
ssI18968
(dp198
I18968
g2
ssI2346
(dp199
I345
(I1
I1
tp200
sI2346
g2
sI452
(I1
I1
tp201
ssI2347
(dp202
I345
(I1
I1
tp203
sI2347
g2
sI452
(I1
I1
tp204
ssI2348
(dp205
I2348
g2
sI452
(I1
I1
tp206
ssI2350
(dp207
I11712
(I1
I1
tp208
sI452
(I1
I1
tp209
sI233
(I2
I1
tp210
sI2350
g2
sI14418
(I1
I1
tp211
sI949
(I1
I1
tp212
sI6518
(I1
I1
tp213
sI19804
(I1
I1
tp214
sI20826
(I1
I1
tp215
sI1436
(I1
I1
tp216
sI572
(I1
I1
tp217
ssI19165
(dp218
I19165
g2
ssI12593
(dp219
I12593
g2
ssI2354
(dp220
I2354
g2
sI452
(I1
I1
tp221
ssI22841
(dp222
I22841
g2
sI572
(I1
I1
tp223
ssI2363
(dp224
I345
(I1
I1
tp225
sI2363
g2
sI452
(I1
I1
tp226
ssI320
(dp227
I320
g2
sI321
(I1
I1
tp228
sI322
(I1
I1
tp229
ssI321
(dp230
I320
(I1
I1
tp231
sI321
g2
sI9243
(I1
I1
tp232
ssI322
(dp233
I320
(I1
I1
tp234
sI322
g2
ssI14660
(dp235
I14660
g2
ssI24902
(dp236
I572
(I1
I1
tp237
sI24902
g2
ssI22855
(dp238
I22855
g2
ssI2376
(dp239
I2376
g2
sI452
(I1
I1
tp240
ssI2377
(dp241
I2377
g2
sI452
(I1
I1
tp242
ssI24908
(dp243
I24908
g2
sI572
(I1
I1
tp244
ssI24910
(dp245
I572
(I1
I1
tp246
ssI24911
(dp247
I572
(I1
I1
tp248
ssI24913
(dp249
I572
(I1
I1
tp250
ssI24914
(dp251
I24914
g2
sI572
(I1
I1
tp252
ssI24917
(dp253
I572
(I1
I1
tp254
ssI24918
(dp255
I572
(I1
I1
tp256
sI24918
g2
ssI343
(dp257
I344
(I1
I1
tp258
sI345
(I1
I1
tp259
ssI344
(dp260
I344
g2
sI233
(I1
I1
tp261
sI1436
(I1
I1
tp262
sI572
(I1
I1
tp263
sI345
(I2
I1
tp264
ssI345
(dp265
I2402
(I1
I1
tp266
sI675
(I1
I1
tp267
sI452
(I1
I1
tp268
sI21684
(I1
I1
tp269
sI2409
(I1
I1
tp270
sI2346
(I1
I1
tp271
sI2347
(I1
I1
tp272
sI3615
(I1
I1
tp273
sI5309
(I1
I1
tp274
sI21681
(I1
I1
tp275
sI21683
(I1
I1
tp276
sI18457
(I1
I1
tp277
sI2327
(I1
I1
tp278
sI344
(I2
I1
tp279
sI345
g2
sI538
(I1
I1
tp280
sI2363
(I1
I1
tp281
sI572
(I1
I1
tp282
sI669
(I2
I1
tp283
sI20895
(I1
I1
tp284
sI4127
(I1
I1
tp285
ssI20826
(dp286
I20826
g2
sI2350
(I1
I1
tp287
ssI2395
(dp288
I572
(I1
I1
tp289
sI2395
g2
sI452
(I1
I1
tp290
ssI22876
(dp291
I22876
g2
ssI24928
(dp292
I572
(I1
I1
tp293
sI2350
(I1
I1
tp294
ssI2402
(dp295
I345
(I1
I1
tp296
sI2402
g2
sI452
(I1
I1
tp297
ssI4453
(dp298
I4453
g2
ssI4455
(dp299
I4455
g2
sI8447
(I1
I1
tp300
ssI2408
(dp301
I345
(I1
I1
tp302
sI452
(I1
I1
tp303
ssI2409
(dp304
I345
(I1
I1
tp305
sI452
(I1
I1
tp306
sI2409
g2
ssI4458
(dp307
I4458
g2
ssI2411
(dp308
I6531
(I1
I1
tp309
sI2411
g2
sI452
(I1
I1
tp310
ssI2412
(dp311
I2412
g2
sI452
(I1
I1
tp312
ssI4462
(dp313
I4462
g2
ssI2417
(dp314
I572
(I1
I1
tp315
sI452
(I1
I1
tp316
sI2417
g2
ssI6514
(dp317
I6514
g2
sI11711
(I1
I1
tp318
ssI4467
(dp319
I4467
g2
ssI2420
(dp320
I456
(I1
I1
tp321
sI572
(I1
I1
tp322
sI452
(I1
I1
tp323
sI2420
g2
ssI18805
(dp324
I572
(I1
I1
tp325
sI18805
g2
ssI6518
(dp326
I6518
g2
sI2350
(I1
I1
tp327
ssI2427
(dp328
I2427
g2
sI452
(I1
I1
tp329
ssI20862
(dp330
I20862
g2
ssI24904
(dp331
I24904
g2
sI572
(I1
I1
tp332
ssI6531
(dp333
I2411
(I1
I1
tp334
sI6531
g2
ssI8581
(dp335
I8581
g2
ssI18826
(dp336
I18826
g2
ssI14731
(dp337
I14731
g2
sI10076
(I1
I1
tp338
ssI398
(dp339
I398
g2
ssI14607
(dp340
I14607
g2
ssI22934
(dp341
I1626
(I1
I1
tp342
sI22934
g2
ssI14745
(dp343
I14745
g2
ssI413
(dp344
I413
g2
ssI20895
(dp345
I345
(I1
I1
tp346
sI20895
g2
ssI8609
(dp347
I8609
g2
sI572
(I1
I1
tp348
ssI16810
(dp349
I930
(I1
I1
tp350
ssI8621
(dp351
I8621
g2
ssI18869
(dp352
I456
(I1
I1
tp353
sI18869
g2
ssI10681
(dp354
I10681
g2
ssI442
(dp355
I442
g2
sI22543
(I1
I1
tp356
ssI443
(dp357
I443
g2
sI21964
(I1
I1
tp358
ssI18880
(dp359
I18880
g2
ssI449
(dp360
I449
g2
sI492
(I1
I1
tp361
ssI451
(dp362
I451
g2
ssI452
(dp363
I2327
(I1
I1
tp364
sI1282
(I1
I1
tp365
sI1414
(I1
I1
tp366
sI1415
(I1
I1
tp367
sI2312
(I1
I1
tp368
sI779
(I1
I1
tp369
sI2318
(I1
I1
tp370
sI2329
(I1
I1
tp371
sI2328
(I1
I1
tp372
sI1348
(I1
I1
tp373
sI2332
(I1
I1
tp374
sI669
(I1
I1
tp375
sI2346
(I1
I1
tp376
sI2347
(I1
I1
tp377
sI2348
(I1
I1
tp378
sI2354
(I1
I1
tp379
sI2350
(I1
I1
tp380
sI2376
(I1
I1
tp381
sI1330
(I1
I1
tp382
sI2363
(I1
I1
tp383
sI572
(I1
I1
tp384
sI2368
(I1
I1
tp385
sI961
(I1
I1
tp386
sI452
g2
sI456
(I1
I1
tp387
sI2377
(I1
I1
tp388
sI1361
(I1
I1
tp389
sI345
(I1
I1
tp390
sI2395
(I1
I1
tp391
sI1374
(I1
I1
tp392
sI2402
(I1
I1
tp393
sI2405
(I1
I1
tp394
sI233
(I1
I1
tp395
sI2411
(I1
I1
tp396
sI2412
(I1
I1
tp397
sI2417
(I1
I1
tp398
sI2420
(I1
I1
tp399
sI2409
(I1
I1
tp400
sI2427
(I1
I1
tp401
sI637
(I1
I1
tp402
sI2174
(I1
I1
tp403
ssI456
(dp404
I452
(I1
I1
tp405
sI456
g2
sI233
(I1
I1
tp406
sI23534
(I1
I1
tp407
sI2420
(I1
I1
tp408
sI18869
(I1
I1
tp409
sI11863
(I1
I1
tp410
sI1338
(I2
I1
tp411
sI5950
(I1
I1
tp412
ssI460
(dp413
I460
g2
ssI25038
(dp414
I25038
g2
ssI465
(dp415
I465
g2
ssI8658
(dp416
I8658
g2
ssI10708
(dp417
I10708
g2
sI572
(I1
I1
tp418
ssI471
(dp419
I1707
(I2
I1
tp420
sI471
g2
ssI16858
(dp421
I16858
g2
sI9875
(I1
I1
tp422
ssI16861
(dp423
I16861
g2
ssI3494
(dp424
I3494
g2
sI3495
(I1
I1
tp425
ssI488
(dp426
I488
g2
ssI490
(dp427
I490
g2
ssI7591
(dp428
I7591
g2
ssI492
(dp429
I449
(I1
I1
tp430
sI492
g2
ssI2541
(dp431
I572
(I1
I1
tp432
sI2541
g2
ssI18927
(dp433
I18927
g2
ssI2544
(dp434
I2544
g2
ssI16884
(dp435
I16884
g2
ssI14841
(dp436
I14841
g2
ssI10747
(dp437
I10747
g2
sI572
(I1
I1
tp438
ssI2556
(dp439
I2556
g2
ssI16893
(dp440
I16893
g2
ssI15104
(dp441
I15104
g2
ssI2563
(dp442
I2563
g2
sI2565
(I1
I1
tp443
ssI2565
(dp444
I2563
(I1
I1
tp445
sI2565
g2
ssI15105
(dp446
I15105
g2
ssI14858
(dp447
I14858
g2
ssI15106
(dp448
I15106
g2
ssI10771
(dp449
I10771
g2
ssI2582
(dp450
I2582
g2
ssI2584
(dp451
I2584
g2
ssI538
(dp452
I345
(I1
I1
tp453
sI538
g2
ssI1455
(dp454
I233
(I1
I1
tp455
sI1455
g2
ssI8735
(dp456
I8735
g2
ssI23080
(dp457
I1431
(I1
I1
tp458
ssI6697
(dp459
I6697
g2
ssI18990
(dp460
I18990
g2
ssI14897
(dp461
I14897
g2
ssI2611
(dp462
I2611
g2
ssI21047
(dp463
I21047
g2
ssI10808
(dp464
I10808
g2
ssI18909
(dp465
I18909
g2
ssI572
(dp466
I4865
(I1
I1
tp467
sI1282
(I1
I1
tp468
sI14635
(I1
I1
tp469
sI1412
(I1
I1
tp470
sI2053
(I1
I1
tp471
sI1414
(I1
I1
tp472
sI1415
(I1
I1
tp473
sI4745
(I1
I1
tp474
sI13450
(I1
I1
tp475
sI779
(I1
I1
tp476
sI2318
(I1
I1
tp477
sI24429
(I1
I1
tp478
sI2350
(I1
I1
tp479
sI12784
(I2
I1
tp480
sI1305
(I1
I1
tp481
sI24388
(I1
I1
tp482
sI21402
(I1
I1
tp483
sI1436
(I1
I1
tp484
sI669
(I1
I1
tp485
sI12933
(I1
I1
tp486
sI8609
(I1
I1
tp487
sI675
(I1
I1
tp488
sI2212
(I1
I1
tp489
sI24902
(I1
I1
tp490
sI24924
(I1
I1
tp491
sI1322
(I1
I1
tp492
sI939
(I1
I1
tp493
sI2990
(I1
I1
tp494
sI2095
(I1
I1
tp495
sI17072
(I1
I1
tp496
sI1330
(I1
I1
tp497
sI1461
(I1
I1
tp498
sI18805
(I1
I1
tp499
sI949
(I1
I1
tp500
sI1434
(I1
I1
tp501
sI22841
(I1
I1
tp502
sI2110
(I1
I1
tp503
sI572
g2
sI5130
(I1
I1
tp504
sI7102
(I1
I1
tp505
sI13365
(I1
I1
tp506
sI2368
(I1
I1
tp507
sI13635
(I1
I1
tp508
sI452
(I1
I1
tp509
sI9542
(I1
I1
tp510
sI23585
(I1
I1
tp511
sI24904
(I1
I1
tp512
sI24908
(I1
I1
tp513
sI2893
(I1
I1
tp514
sI5326
(I1
I1
tp515
sI1409
(I1
I1
tp516
sI1361
(I1
I1
tp517
sI24914
(I1
I1
tp518
sI18643
(I1
I1
tp519
sI10708
(I1
I1
tp520
sI4949
(I1
I1
tp521
sI24918
(I1
I1
tp522
sI344
(I1
I1
tp523
sI345
(I1
I1
tp524
sI1626
(I1
I1
tp525
sI2395
(I1
I1
tp526
sI10076
(I1
I1
tp527
sI4833
(I1
I1
tp528
sI11747
(I1
I1
tp529
sI4071
(I1
I1
tp530
sI2541
(I1
I1
tp531
sI3056
(I1
I1
tp532
sI2417
(I1
I1
tp533
sI2332
(I1
I1
tp534
sI2420
(I1
I1
tp535
sI3317
(I1
I1
tp536
sI19066
(I1
I1
tp537
sI10747
(I1
I1
tp538
sI12028
(I2
I1
tp539
sI637
(I1
I1
tp540
sI2174
(I1
I1
tp541
sI12031
(I1
I1
tp542
ssI14914
(dp543
I14914
g2
ssI14915
(dp544
I14915
g2
sI939
(I1
I1
tp545
ssI16971
(dp546
I16971
g2
ssI25164
(dp547
I25164
g2
ssI4685
(dp548
I19131
(I1
I1
tp549
sI4685
g2
ssI19022
(dp550
I19022
g2
sI15343
(I1
I1
tp551
ssI8783
(dp552
I8784
(I1
I1
tp553
sI8783
g2
ssI8784
(dp554
I8784
g2
sI8783
(I1
I1
tp555
ssI2643
(dp556
I2643
g2
ssI4696
(dp557
I4696
g2
sI815
(I2
I1
tp558
ssI2649
(dp559
I2649
g2
ssI8797
(dp560
I8797
g2
ssI14942
(dp561
I14942
g2
ssI4703
(dp562
I4703
g2
ssI16993
(dp563
I16993
g2
ssI8812
(dp564
I8812
g2
ssI14957
(dp565
I2893
(I1
I1
tp566
sI14957
g2
ssI12912
(dp567
I12912
g2
ssI21105
(dp568
I21105
g2
sI5034
(I1
I1
tp569
ssI11710
(dp570
I11710
g2
ssI21111
(dp571
I17377
(I1
I1
tp572
sI5034
(I1
I1
tp573
sI21111
g2
ssI2681
(dp574
I2681
g2
ssI19066
(dp575
I19066
g2
sI572
(I1
I1
tp576
ssI4731
(dp577
I4729
(I1
I1
tp578
sI4731
g2
ssI637
(dp579
I572
(I1
I1
tp580
sI452
(I1
I1
tp581
sI637
g2
ssI4737
(dp582
I2160
(I1
I1
tp583
sI4737
g2
ssI4738
(dp584
I2160
(I1
I1
tp585
sI4738
g2
ssI4741
(dp586
I2160
(I1
I1
tp587
ssI647
(dp588
I3585
(I1
I1
tp589
sI647
g2
ssI4745
(dp590
I4745
g2
sI572
(I1
I1
tp591
ssI23185
(dp592
I23185
g2
ssI12784
(dp593
I12784
g2
sI12028
(I2
I1
tp594
sI572
(I2
I1
tp595
ssI669
(dp596
I233
(I1
I1
tp597
sI452
(I1
I1
tp598
sI669
g2
sI345
(I2
I1
tp599
sI572
(I1
I1
tp600
ssI10911
(dp601
I10911
g2
ssI675
(dp602
I345
(I1
I1
tp603
sI675
g2
sI572
(I1
I1
tp604
ssI2726
(dp605
I1282
(I1
I1
tp606
sI2726
g2
ssI19111
(dp607
I19111
g2
ssI19114
(dp608
I19114
g2
ssI4779
(dp609
I4779
g2
ssI15021
(dp610
I15021
g2
ssI17072
(dp611
I17072
g2
sI572
(I1
I1
tp612
ssI17074
(dp613
I17074
g2
ssI25715
(dp614
I25715
g2
ssI17076
(dp615
I17076
g2
ssI19131
(dp616
I19131
g2
sI4685
(I1
I1
tp617
ssI19132
(dp618
I19132
g2
ssI22645
(dp619
I22645
g2
ssI4813
(dp620
I4813
g2
ssI17112
(dp621
I17112
g2
ssI18554
(dp622
I3582
(I1
I1
tp623
ssI22309
(dp624
I3848
(I1
I1
tp625
sI22309
g2
ssI4833
(dp626
I4833
g2
sI572
(I1
I1
tp627
ssI2786
(dp628
I2786
g2
ssI19171
(dp629
I19171
g2
ssI6888
(dp630
I6888
g2
ssI13034
(dp631
I13034
g2
ssI2795
(dp632
I2795
g2
ssI4845
(dp633
I4845
g2
ssI4849
(dp634
I4849
g2
ssI15098
(dp635
I15098
g2
ssI20859
(dp636
I20859
g2
ssI19198
(dp637
I19198
g2
ssI23295
(dp638
I1358
(I1
I1
tp639
sI23295
g2
ssI13056
(dp640
I456
(I1
I1
tp641
ssI4865
(dp642
I4865
g2
sI572
(I1
I1
tp643
ssI11010
(dp644
I11010
g2
ssI23302
(dp645
I10404
(I1
I1
tp646
sI23302
g2
ssI779
(dp647
I572
(I1
I1
tp648
sI779
g2
sI452
(I1
I1
tp649
sI21069
(I1
I1
tp650
ssI781
(dp651
I781
g2
ssI8996
(dp652
I8996
g2
sI2893
(I1
I1
tp653
ssI15142
(dp654
I15142
g2
sI8447
(I1
I1
tp655
ssI15143
(dp656
I15143
g2
ssI808
(dp657
I808
g2
ssI815
(dp658
I4696
(I2
I1
tp659
sI815
g2
ssI4920
(dp660
I4920
g2
ssI15235
(dp661
I15235
g2
ssI2881
(dp662
I2881
g2
ssI15172
(dp663
I9243
(I1
I1
tp664
sI15172
g2
ssI2887
(dp665
I2887
g2
ssI25416
(dp666
I25416
g2
sI24720
(I1
I1
tp667
ssI4937
(dp668
I4937
g2
ssI4940
(dp669
I4940
g2
ssI2893
(dp670
I8996
(I1
I1
tp671
sI572
(I1
I1
tp672
sI2893
g2
sI14957
(I1
I1
tp673
ssI19256
(dp674
I19256
g2
ssI850
(dp675
I233
(I1
I1
tp676
sI850
g2
sI851
(I1
I1
tp677
ssI851
(dp678
I850
(I1
I1
tp679
sI851
g2
ssI4949
(dp680
I572
(I1
I1
tp681
sI4949
g2
ssI12031
(dp682
I572
(I1
I1
tp683
sI12031
g2
ssI24920
(dp684
I572
(I1
I1
tp685
ssI21648
(dp686
I21648
g2
ssI23415
(dp687
I2350
(I1
I1
tp688
ssI9080
(dp689
I9080
g2
ssI15225
(dp690
I15225
g2
sI1707
(I1
I1
tp691
ssI2212
(dp692
I2212
g2
sI572
(I1
I1
tp693
ssI15236
(dp694
I3835
(I1
I1
tp695
sI15236
g2
ssI901
(dp696
I901
g2
ssI4998
(dp697
I4999
(I1
I1
tp698
ssI4999
(dp699
I24596
(I1
I1
tp700
sI4999
g2
ssI14828
(dp701
I14828
g2
ssI907
(dp702
I907
g2
sI13764
(I1
I1
tp703
ssI15245
(dp704
I4696
(I1
I1
tp705
sI815
(I1
I1
tp706
ssI11156
(dp707
I11156
g2
ssI917
(dp708
I917
g2
ssI21402
(dp709
I21402
g2
sI572
(I1
I1
tp710
ssI19360
(dp711
I19360
g2
ssI929
(dp712
I929
g2
sI930
(I1
I1
tp713
ssI930
(dp714
I929
(I1
I1
tp715
sI930
g2
sI3796
(I1
I1
tp716
ssI11173
(dp717
I11173
g2
ssI14693
(dp718
I1282
(I1
I1
tp719
sI14693
g2
ssI9129
(dp720
I9129
g2
ssI5034
(dp721
I21104
(I1
I1
tp722
sI21105
(I1
I1
tp723
sI5034
g2
sI21111
(I1
I1
tp724
ssI939
(dp725
I17985
(I1
I1
tp726
sI14915
(I1
I1
tp727
sI939
g2
sI572
(I1
I1
tp728
ssI2990
(dp729
I572
(I1
I1
tp730
sI2990
g2
ssI945
(dp731
I945
g2
sI946
(I1
I1
tp732
ssI946
(dp733
I945
(I1
I1
tp734
sI946
g2
ssI949
(dp735
I233
(I1
I1
tp736
sI572
(I1
I1
tp737
sI949
g2
sI2350
(I1
I1
tp738
ssI17335
(dp739
I17335
g2
ssI7102
(dp740
I572
(I1
I1
tp741
sI7102
g2
ssI15241
(dp742
I15241
g2
sI1282
(I1
I1
tp743
ssI961
(dp744
I961
g2
sI452
(I1
I1
tp745
ssI15298
(dp746
I15298
g2
ssI25543
(dp747
I1348
(I1
I1
tp748
sI25543
g2
ssI5068
(dp749
I5068
g2
ssI7121
(dp750
I7121
g2
ssI13269
(dp751
I13269
g2
ssI13270
(dp752
I13270
g2
ssI24924
(dp753
I24924
g2
sI572
(I1
I1
tp754
ssI3033
(dp755
I3033
g2
ssI17377
(dp756
I17377
g2
sI21111
(I1
I1
tp757
ssI3046
(dp758
I3046
g2
ssI18940
(dp759
I18940
g2
ssI24720
(dp760
I25416
(I1
I1
tp761
sI24720
g2
ssI23534
(dp762
I456
(I1
I1
tp763
sI23534
g2
ssI15343
(dp764
I19022
(I1
I1
tp765
sI15343
g2
ssI3056
(dp766
I3056
g2
sI12108
(I1
I1
tp767
sI572
(I1
I1
tp768
ssI15345
(dp769
I15345
g2
ssI5106
(dp770
I5106
g2
ssI9204
(dp771
I9204
g2
ssI11260
(dp772
I11260
g2
ssI25600
(dp773
I25600
g2
ssI13313
(dp774
I13313
g2
ssI1027
(dp775
I14521
(I1
I1
tp776
sI1027
g2
ssI25606
(dp777
I25606
g2
ssI9226
(dp778
I9226
g2
ssI1043
(dp779
I1043
g2
ssI1045
(dp780
I1045
g2
ssI3094
(dp781
I3094
g2
ssI1050
(dp782
I1050
g2
ssI9243
(dp783
I321
(I1
I1
tp784
sI9243
g2
sI15172
(I1
I1
tp785
ssI18949
(dp786
I18949
g2
ssI5152
(dp787
I5152
g2
ssI23585
(dp788
I23585
g2
sI572
(I1
I1
tp789
ssI5154
(dp790
I345
(I1
I1
tp791
sI572
(I1
I1
tp792
ssI11305
(dp793
I11305
g2
ssI25643
(dp794
I25643
g2
ssI13365
(dp795
I572
(I1
I1
tp796
sI13365
g2
ssI3135
(dp797
I3135
g2
ssI19520
(dp798
I19520
g2
ssI13402
(dp799
I3217
(I1
I1
tp800
sI13402
g2
ssI15454
(dp801
I15454
g2
ssI23654
(dp802
I23654
g2
ssI25707
(dp803
I25707
g2
ssI16915
(dp804
I16915
g2
ssI13438
(dp805
I13438
g2
ssI13444
(dp806
I13444
g2
ssI13450
(dp807
I13450
g2
sI572
(I1
I1
tp808
ssI25743
(dp809
I25743
g2
ssI1168
(dp810
I1168
g2
sI233
(I1
I1
tp811
ssI3217
(dp812
I3217
g2
sI13402
(I1
I1
tp813
ssI11412
(dp814
I1282
(I1
I1
tp815
ssI17558
(dp816
I17558
g2
ssI25753
(dp817
I25753
g2
sI3495
(I1
I1
tp818
ssI15520
(dp819
I15520
g2
ssI11426
(dp820
I11426
g2
ssI11431
(dp821
I11431
g2
ssI1193
(dp822
I1193
g2
ssI1195
(dp823
I1195
g2
sI1196
(I1
I1
tp824
ssI1196
(dp825
I1195
(I1
I1
tp826
sI1196
g2
ssI21679
(dp827
I345
(I1
I1
tp828
sI669
(I1
I1
tp829
ssI21681
(dp830
I345
(I1
I1
tp831
sI21681
g2
ssI21683
(dp832
I345
(I1
I1
tp833
sI21683
g2
ssI21684
(dp834
I345
(I1
I1
tp835
sI21684
g2
ssI23735
(dp836
I23735
g2
ssI16748
(dp837
I16748
g2
ssI5309
(dp838
I345
(I1
I1
tp839
sI5309
g2
ssI1216
(dp840
I1216
g2
ssI17601
(dp841
I17601
g2
ssI5326
(dp842
I572
(I1
I1
tp843
sI5326
g2
ssI25806
(dp844
I25806
g2
ssI23767
(dp845
I1282
(I1
I1
tp846
ssI25821
(dp847
I3588
(I1
I1
tp848
ssI25826
(dp849
I939
(I1
I1
tp850
ssI22887
(dp851
I22887
g2
ssI5349
(dp852
I16506
(I1
I1
tp853
sI5349
g2
ssI23787
(dp854
I23787
g2
ssI3317
(dp855
I572
(I1
I1
tp856
sI3317
g2
ssI18644
(dp857
I18643
(I1
I1
tp858
ssI13567
(dp859
I13567
g2
ssI1282
(dp860
I9761
(I1
I1
tp861
sI1282
g2
sI452
(I1
I1
tp862
sI14693
(I1
I1
tp863
sI2726
(I1
I1
tp864
sI15241
(I1
I1
tp865
sI572
(I1
I1
tp866
ssI26155
(dp867
I1335
(I1
I1
tp868
ssI13580
(dp869
I13580
g2
ssI9487
(dp870
I9487
g2
ssI3347
(dp871
I3347
g2
ssI21781
(dp872
I443
(I1
I1
tp873
ssI1302
(dp874
I233
(I1
I1
tp875
sI1302
g2
ssI1305
(dp876
I9542
(I2
I1
tp877
sI233
(I1
I1
tp878
sI2093
(I1
I1
tp879
sI2095
(I1
I1
tp880
sI2102
(I1
I1
tp881
sI2103
(I1
I1
tp882
sI1305
g2
sI572
(I1
I1
tp883
ssI1306
(dp884
I233
(I1
I1
tp885
sI1306
g2
sI1436
(I1
I1
tp886
ssI9504
(dp887
I9504
g2
ssI1313
(dp888
I233
(I1
I1
tp889
sI1313
g2
ssI9507
(dp890
I9504
(I1
I1
tp891
ssI19751
(dp892
I8764
(I1
I1
tp893
ssI1322
(dp894
I233
(I1
I1
tp895
sI1322
g2
sI572
(I1
I1
tp896
ssI1325
(dp897
I233
(I1
I1
tp898
sI1325
g2
ssI1329
(dp899
I233
(I1
I1
tp900
sI2174
(I1
I1
tp901
ssI1330
(dp902
I233
(I1
I1
tp903
sI1330
g2
sI452
(I1
I1
tp904
sI572
(I1
I1
tp905
ssI1332
(dp906
I233
(I1
I1
tp907
sI1332
g2
ssI20702
(dp908
I572
(I1
I1
tp909
ssI1334
(dp910
I233
(I1
I1
tp911
sI1334
g2
ssI1335
(dp912
I233
(I1
I1
tp913
sI1335
g2
ssI21816
(dp914
I21816
g2
ssI1338
(dp915
I456
(I2
I1
tp916
sI233
(I1
I1
tp917
sI1338
g2
ssI1340
(dp918
I233
(I1
I1
tp919
ssI17726
(dp920
I17726
g2
ssI17730
(dp921
I17730
g2
ssI13635
(dp922
I13635
g2
sI572
(I1
I1
tp923
ssI1348
(dp924
I1348
g2
sI25543
(I1
I1
tp925
sI233
(I1
I1
tp926
sI452
(I1
I1
tp927
sI20144
(I1
I1
tp928
sI1412
(I1
I1
tp929
ssI9542
(dp930
I1305
(I2
I1
tp931
sI572
(I1
I1
tp932
sI9542
g2
ssI1355
(dp933
I233
(I1
I1
tp934
sI1355
g2
ssI1358
(dp935
I233
(I1
I1
tp936
sI23295
(I1
I1
tp937
sI1358
g2
sI20239
(I1
I1
tp938
ssI1361
(dp939
I452
(I1
I1
tp940
sI1361
g2
sI233
(I1
I1
tp941
sI20075
(I1
I1
tp942
sI11889
(I1
I1
tp943
sI9875
(I1
I1
tp944
sI572
(I1
I1
tp945
ssI1362
(dp946
I233
(I1
I1
tp947
ssI1366
(dp948
I233
(I1
I1
tp949
sI1366
g2
ssI1367
(dp950
I233
(I1
I1
tp951
sI1367
g2
ssI18731
(dp952
I572
(I1
I1
tp953
ssI19804
(dp954
I19804
g2
sI2350
(I1
I1
tp955
ssI1374
(dp956
I233
(I1
I1
tp957
sI452
(I1
I1
tp958
sI1374
g2
ssI1375
(dp959
I233
(I1
I1
tp960
ssI1382
(dp961
I233
(I1
I1
tp962
ssI1383
(dp963
I233
(I1
I1
tp964
sI1383
g2
ssI1384
(dp965
I1384
g2
sI233
(I1
I1
tp966
ssI8764
(dp967
I8764
g2
ssI1386
(dp968
I233
(I1
I1
tp969
sI1386
g2
ssI1388
(dp970
I233
(I1
I1
tp971
sI1388
g2
ssI23917
(dp972
I23917
g2
ssI3440
(dp973
I3440
g2
ssI1393
(dp974
I233
(I1
I1
tp975
ssI1395
(dp976
I233
(I1
I1
tp977
sI1395
g2
ssI1397
(dp978
I233
(I1
I1
tp979
sI1397
g2
ssI916
(dp980
I917
(I1
I1
tp981
ssI1403
(dp982
I233
(I1
I1
tp983
sI1403
g2
ssI1404
(dp984
I233
(I1
I1
tp985
ssI3453
(dp986
I3453
g2
ssI1406
(dp987
I233
(I1
I1
tp988
sI1406
g2
ssI1409
(dp989
I233
(I1
I1
tp990
sI572
(I1
I1
tp991
sI1409
g2
ssI1411
(dp992
I233
(I1
I1
tp993
sI1411
g2
ssI1412
(dp994
I1348
(I1
I1
tp995
sI233
(I1
I1
tp996
sI1412
g2
sI572
(I1
I1
tp997
ssI1414
(dp998
I233
(I1
I1
tp999
sI452
(I1
I1
tp1000
sI1414
g2
sI572
(I1
I1
tp1001
ssI1415
(dp1002
I233
(I1
I1
tp1003
sI1415
g2
sI452
(I1
I1
tp1004
sI572
(I1
I1
tp1005
ssI1416
(dp1006
I1416
g2
sI233
(I1
I1
tp1007
ssI15754
(dp1008
I15754
g2
sI15755
(I1
I1
tp1009
ssI15755
(dp1010
I15754
(I1
I1
tp1011
sI15755
g2
ssI1420
(dp1012
I233
(I1
I1
tp1013
sI1420
g2
ssI1421
(dp1014
I233
(I1
I1
tp1015
ssI1424
(dp1016
I233
(I1
I1
tp1017
sI1322
(I1
I1
tp1018
ssI1426
(dp1019
I233
(I1
I1
tp1020
ssI1431
(dp1021
I233
(I1
I1
tp1022
sI1431
g2
ssI1434
(dp1023
I233
(I1
I1
tp1024
sI1434
g2
sI572
(I1
I1
tp1025
ssI1435
(dp1026
I233
(I1
I1
tp1027
sI1435
g2
ssI1436
(dp1028
I233
(I1
I1
tp1029
sI2350
(I1
I1
tp1030
sI344
(I1
I1
tp1031
sI1306
(I1
I1
tp1032
sI1436
g2
sI572
(I1
I1
tp1033
ssI1441
(dp1034
I233
(I1
I1
tp1035
sI1441
g2
ssI1442
(dp1036
I233
(I1
I1
tp1037
sI1442
g2
ssI1443
(dp1038
I233
(I1
I1
tp1039
sI1443
g2
ssI1446
(dp1040
I233
(I1
I1
tp1041
sI1446
g2
ssI3495
(dp1042
I25753
(I1
I1
tp1043
sI3494
(I1
I1
tp1044
sI3495
g2
ssI1449
(dp1045
I233
(I1
I1
tp1046
sI1449
g2
ssI1451
(dp1047
I233
(I1
I1
tp1048
sI1451
g2
ssI1454
(dp1049
I233
(I1
I1
tp1050
sI1454
g2
ssI3503
(dp1051
I3503
g2
ssI3504
(dp1052
I3504
g2
ssI9649
(dp1053
I9649
g2
ssI17843
(dp1054
I10114
(I1
I1
tp1055
sI12933
(I1
I1
tp1056
ssI1461
(dp1057
I233
(I1
I1
tp1058
sI18107
(I1
I1
tp1059
sI572
(I1
I1
tp1060
sI1461
g2
ssI17993
(dp1061
I17993
g2
ssI1465
(dp1062
I233
(I1
I1
tp1063
sI2350
(I1
I1
tp1064
ssI1467
(dp1065
I233
(I1
I1
tp1066
sI1467
g2
ssI1470
(dp1067
I233
(I1
I1
tp1068
ssI11509
(dp1069
I11509
g2
ssI11712
(dp1070
I11712
g2
sI2350
(I1
I1
tp1071
ssI21067
(dp1072
I1335
(I1
I1
tp1073
ssI13764
(dp1074
I907
(I1
I1
tp1075
sI13764
g2
ssI20726
(dp1076
I20726
g2
sI3582
(I1
I1
tp1077
ssI1478
(dp1078
I233
(I1
I1
tp1079
sI1478
g2
ssI11719
(dp1080
I11719
g2
ssI21964
(dp1081
I443
(I1
I1
tp1082
sI21964
g2
ssI21069
(dp1083
I779
(I1
I1
tp1084
sI21069
g2
ssI2368
(dp1085
I2368
g2
sI572
(I1
I1
tp1086
sI452
(I1
I1
tp1087
ssI11732
(dp1088
I11732
g2
ssI11711
(dp1089
I6514
(I1
I1
tp1090
sI11711
g2
ssI3543
(dp1091
I3543
g2
ssI17882
(dp1092
I17882
g2
ssI1500
(dp1093
I572
(I1
I1
tp1094
ssI15837
(dp1095
I15837
g2
ssI1502
(dp1096
I1502
g2
ssI21072
(dp1097
I779
(I1
I1
tp1098
ssI11747
(dp1099
I11747
g2
sI572
(I1
I1
tp1100
ssI17898
(dp1101
I17898
g2
ssI7666
(dp1102
I7666
g2
ssI3578
(dp1103
I3578
g2
sI3582
(I1
I1
tp1104
ssI3580
(dp1105
I3578
(I1
I1
tp1106
ssI3582
(dp1107
I3578
(I1
I1
tp1108
sI20726
(I1
I1
tp1109
sI3582
g2
ssI3585
(dp1110
I3585
g2
sI3588
(I1
I1
tp1111
sI647
(I1
I1
tp1112
ssI3588
(dp1113
I3585
(I1
I1
tp1114
sI3588
g2
ssI3592
(dp1115
I3592
g2
ssI3594
(dp1116
I3594
g2
ssI15888
(dp1117
I15888
g2
ssI15899
(dp1118
I15899
g2
ssI3615
(dp1119
I345
(I1
I1
tp1120
sI3615
g2
ssI9761
(dp1121
I9761
g2
sI1282
(I1
I1
tp1122
ssI15908
(dp1123
I15908
g2
ssI15914
(dp1124
I15914
g2
ssI1579
(dp1125
I1579
g2
ssI15926
(dp1126
I1707
(I1
I1
tp1127
sI471
(I1
I1
tp1128
ssI24122
(dp1129
I24122
g2
ssI17985
(dp1130
I17985
g2
sI939
(I1
I1
tp1131
ssI7753
(dp1132
I7753
g2
ssI17995
(dp1133
I17995
g2
ssI1619
(dp1134
I1619
g2
ssI1621
(dp1135
I1621
g2
ssI1622
(dp1136
I1622
g2
ssI11863
(dp1137
I456
(I1
I1
tp1138
sI11863
g2
ssI1626
(dp1139
I1626
g2
sI572
(I1
I1
tp1140
sI22934
(I1
I1
tp1141
ssI1627
(dp1142
I1627
g2
ssI13916
(dp1143
I13916
g2
ssI26206
(dp1144
I443
(I1
I1
tp1145
ssI26207
(dp1146
I443
(I1
I1
tp1147
ssI26216
(dp1148
I26216
g2
ssI20075
(dp1149
I1361
(I1
I1
tp1150
sI20075
g2
ssI11889
(dp1151
I1361
(I1
I1
tp1152
sI11889
g2
ssI18037
(dp1153
I18037
g2
ssI18040
(dp1154
I18040
g2
ssI15998
(dp1155
I15998
g2
ssI26219
(dp1156
I26219
g2
ssI13961
(dp1157
I13961
g2
ssI9872
(dp1158
I9872
g2
ssI11921
(dp1159
I11921
g2
ssI9875
(dp1160
I1361
(I1
I1
tp1161
sI16858
(I1
I1
tp1162
sI9875
g2
ssI16665
(dp1163
I16665
g2
ssI21104
(dp1164
I21104
g2
sI5034
(I1
I1
tp1165
ssI1700
(dp1166
I1700
g2
ssI1706
(dp1167
I1707
(I1
I1
tp1168
ssI1707
(dp1169
I2160
(I1
I1
tp1170
sI15225
(I1
I1
tp1171
sI1707
g2
sI4465
(I1
I1
tp1172
sI471
(I2
I1
tp1173
ssI11948
(dp1174
I11948
g2
ssI20144
(dp1175
I20144
g2
sI1348
(I1
I1
tp1176
ssI7862
(dp1177
I7862
g2
ssI22202
(dp1178
I22202
g2
ssI18107
(dp1179
I18107
g2
sI1461
(I1
I1
tp1180
ssI20770
(dp1181
I20770
g2
ssI1744
(dp1182
I1744
g2
ssI3796
(dp1183
I930
(I1
I1
tp1184
sI3796
g2
ssI4729
(dp1185
I4729
g2
sI4731
(I1
I1
tp1186
ssI18136
(dp1187
I18136
g2
ssI26332
(dp1188
I26332
g2
ssI1757
(dp1189
I1757
g2
ssI5863
(dp1190
I5863
g2
ssI14057
(dp1191
I14057
g2
ssI7918
(dp1192
I7918
g2
ssI14973
(dp1193
I14973
g2
ssI3835
(dp1194
I3835
g2
sI15236
(I1
I1
tp1195
ssI12028
(dp1196
I12784
(I2
I1
tp1197
sI12028
g2
sI572
(I2
I1
tp1198
ssI14077
(dp1199
I14077
g2
ssI3839
(dp1200
I3839
g2
ssI14635
(dp1201
I14635
g2
sI572
(I1
I1
tp1202
ssI3848
(dp1203
I3848
g2
sI22309
(I1
I1
tp1204
ssI20239
(dp1205
I1358
(I1
I1
tp1206
sI20239
g2
ssI5906
(dp1207
I2350
(I1
I1
tp1208
ssI12933
(dp1209
I10114
(I2
I1
tp1210
sI572
(I1
I1
tp1211
sI12933
g2
ssI12069
(dp1212
I12069
g2
ssI12594
(dp1213
I12593
(I1
I1
tp1214
ssI5950
(dp1215
I456
(I1
I1
tp1216
sI5950
g2
ssI24388
(dp1217
I24388
g2
sI572
(I1
I1
tp1218
ssI22342
(dp1219
I22342
g2
ssI12108
(dp1220
I3056
(I1
I1
tp1221
sI12108
g2
ssI18254
(dp1222
I3056
(I1
I1
tp1223
ssI5970
(dp1224
I5970
g2
ssI5973
(dp1225
I5973
g2
ssI8024
(dp1226
I8024
g2
ssI10076
(dp1227
I10076
g2
sI14731
(I1
I1
tp1228
sI572
(I1
I1
tp1229
ssI1885
(dp1230
I572
(I1
I1
tp1231
ssI4632
(dp1232
I4632
g2
ssI14184
(dp1233
I14184
g2
ssI24429
(dp1234
I572
(I1
I1
tp1235
sI24429
g2
ssI16246
(dp1236
I16246
g2
ssI24441
(dp1237
I24441
g2
ssI16256
(dp1238
I16256
g2
ssI10113
(dp1239
I10113
g2
sI10114
(I1
I1
tp1240
ssI10114
(dp1241
I10113
(I1
I1
tp1242
sI10114
g2
sI12933
(I2
I1
tp1243
ssI10128
(dp1244
I10128
g2
ssI16282
(dp1245
I16282
g2
sI16283
(I1
I1
tp1246
ssI16283
(dp1247
I16282
(I1
I1
tp1248
sI16283
g2
ssI24476
(dp1249
I24476
g2
ssI10145
(dp1250
I3582
(I1
I1
tp1251
ssI24483
(dp1252
I10404
(I1
I1
tp1253
ssI15686
(dp1254
I15686
g2
ssI12200
(dp1255
I12200
g2
ssI1961
(dp1256
I1961
g2
ssI1969
(dp1257
I1969
g2
ssI14259
(dp1258
I14259
g2
ssI22452
(dp1259
I22452
g2
ssI1977
(dp1260
I1977
g2
ssI8123
(dp1261
I8123
g2
ssI20420
(dp1262
I20420
g2
ssI18395
(dp1263
I18395
g2
ssI24540
(dp1264
I24540
g2
ssI8157
(dp1265
I8157
g2
ssI4071
(dp1266
I572
(I1
I1
tp1267
sI4071
g2
ssI3068
(dp1268
I3068
g2
ssI4074
(dp1269
I4074
g2
ss.