(dp0
I4099
(dp1
I4099
(I0
I1
tp2
ssI22533
(dp3
I1617
(I1
I1
tp4
sI22533
g2
ssI4106
(dp5
I4106
g2
ssI4118
(dp6
I4118
g2
ssI24602
(dp7
I10561
(I1
I1
tp8
ssI16389
(dp9
I1612
(I1
I1
tp10
sI16389
g2
ssI2086
(dp11
I2086
g2
ssI2087
(dp12
I2087
g2
ssI9564
(dp13
I9564
g2
ssI10285
(dp14
I11132
(I1
I1
tp15
sI10285
g2
ssI2097
(dp16
I2097
g2
ssI4148
(dp17
I4148
g2
ssI2101
(dp18
I1452
(I1
I1
tp19
sI2101
g2
sI11382
(I1
I1
tp20
ssI20537
(dp21
I20537
g2
ssI20541
(dp22
I10025
(I1
I1
tp23
ssI4160
(dp24
I4160
g2
sI4162
(I1
I1
tp25
ssI4162
(dp26
I1408
(I1
I1
tp27
sI4160
(I1
I1
tp28
sI4162
g2
sI4008
(I1
I1
tp29
sI3858
(I1
I1
tp30
sI3857
(I2
I5
tp31
sI14066
(I3
I1
tp32
sI11700
(I1
I1
tp33
sI21077
(I1
I1
tp34
sI125
(I2
I1
tp35
ssI24929
(dp36
I24929
g2
ssI4170
(dp37
I4170
g2
ssI10333
(dp38
I10333
g2
ssI2162
(dp39
I2162
g2
ssI16501
(dp40
I16501
g2
ssI16504
(dp41
I16504
g2
ssI125
(dp42
I4162
(I2
I1
tp43
sI25798
(I1
I1
tp44
sI3857
(I2
I1
tp45
sI14066
(I2
I1
tp46
sI125
g2
sI19295
(I1
I1
tp47
ssI2201
(dp48
I2201
g2
ssI2211
(dp49
I2211
g2
ssI2230
(dp50
I2230
g2
ssI22712
(dp51
I22712
g2
ssI4291
(dp52
I4291
g2
ssI14538
(dp53
I14538
g2
ssI14551
(dp54
I14551
g2
ssI20713
(dp55
I20713
g2
ssI2284
(dp56
I2284
g2
ssI2286
(dp57
I2286
g2
sI719
(I1
I1
tp58
ssI12528
(dp59
I12528
g2
ssI243
(dp60
I243
g2
sI245
(I1
I1
tp61
ssI245
(dp62
I11907
(I1
I1
tp63
sI11942
(I1
I1
tp64
sI11944
(I1
I1
tp65
sI2316
(I1
I1
tp66
sI2352
(I1
I1
tp67
sI11923
(I1
I1
tp68
sI243
(I1
I1
tp69
sI11924
(I1
I1
tp70
sI245
g2
sI11932
(I1
I1
tp71
sI11933
(I1
I1
tp72
ssI2295
(dp73
I2295
g2
ssI24837
(dp74
I24837
g2
ssI2316
(dp75
I2316
g2
sI245
(I1
I1
tp76
ssI2321
(dp77
I2321
g2
sI20071
(I1
I1
tp78
ssI16664
(dp79
I16664
g2
ssI2330
(dp80
I2330
g2
ssI1987
(dp81
I1987
g2
sI2468
(I1
I1
tp82
sI1959
(I1
I1
tp83
ssI18719
(dp84
I18719
g2
ssI2339
(dp85
I2339
g2
ssI9606
(dp86
I9606
g2
ssI2344
(dp87
I2344
g2
sI2468
(I1
I1
tp88
ssI2349
(dp89
I2349
g2
ssI2352
(dp90
I2352
g2
sI245
(I1
I1
tp91
ssI12595
(dp92
I12595
g2
ssI22836
(dp93
I2650
(I1
I1
tp94
ssI12597
(dp95
I12597
g2
ssI2358
(dp96
I2358
g2
sI2399
(I1
I1
tp97
ssI316
(dp98
I316
g2
ssI10561
(dp99
I10561
g2
sI5726
(I1
I1
tp100
ssI24903
(dp101
I24903
g2
ssI24905
(dp102
I24905
g2
ssI24909
(dp103
I24909
g2
ssI20816
(dp104
I20816
g2
ssI24915
(dp105
I24915
g2
ssI24916
(dp106
I24916
g2
ssI2389
(dp107
I2389
g2
ssI24919
(dp108
I24919
g2
ssI24921
(dp109
I24921
g2
ssI2399
(dp110
I20265
(I1
I1
tp111
sI19291
(I1
I1
tp112
sI20263
(I1
I1
tp113
sI2358
(I1
I1
tp114
sI2399
g2
ssI2401
(dp115
I2401
g2
sI676
(I1
I1
tp116
ssI12658
(dp117
I9521
(I1
I1
tp118
sI12658
g2
ssI2419
(dp119
I2419
g2
ssI2421
(dp120
I2421
g2
ssI2426
(dp121
I2426
g2
ssI12668
(dp122
I9521
(I1
I1
tp123
sI12668
g2
ssI2429
(dp124
I2429
g2
ssI2436
(dp125
I2436
g2
ssI14725
(dp126
I14725
g2
ssI20870
(dp127
I1457
(I1
I1
tp128
sI20870
g2
ssI13887
(dp129
I13887
g2
ssI14741
(dp130
I13488
(I1
I1
tp131
sI14741
g2
ssI2468
(dp132
I1987
(I1
I1
tp133
sI2468
g2
sI2469
(I2
I2
tp134
sI1959
(I2
I2
tp135
sI2344
(I1
I1
tp136
sI18349
(I1
I1
tp137
sI4593
(I1
I1
tp138
sI4575
(I1
I1
tp139
ssI2469
(dp140
I2468
(I2
I2
tp141
sI2469
g2
sI1959
(I2
I3
tp142
sI1065
(I2
I1
tp143
sI4595
(I1
I1
tp144
sI4569
(I1
I1
tp145
ssI2481
(dp146
I2481
g2
sI2482
(I1
I1
tp147
sI2485
(I1
I1
tp148
ssI2482
(dp149
I2481
(I1
I1
tp150
sI2482
g2
ssI2485
(dp151
I2481
(I1
I1
tp152
sI2485
g2
ssI22973
(dp153
I22973
g2
ssI18886
(dp154
I18886
g2
ssI10695
(dp155
I10695
g2
ssI459
(dp156
I459
g2
ssI18902
(dp157
I18902
g2
ssI4569
(dp158
I4569
g2
sI2469
(I1
I1
tp159
ssI4575
(dp160
I2468
(I1
I1
tp161
sI4575
g2
ssI18919
(dp162
I18919
g2
ssI16881
(dp163
I16881
g2
ssI4595
(dp164
I1065
(I1
I1
tp165
sI4595
g2
sI2469
(I1
I1
tp166
ssI8692
(dp167
I8692
g2
ssI2567
(dp168
I2567
g2
ssI1452
(dp169
I1452
g2
sI2101
(I1
I1
tp170
sI1558
(I1
I1
tp171
ssI16913
(dp172
I16913
g2
ssI14879
(dp173
I14879
g2
ssI551
(dp174
I551
g2
ssI18993
(dp175
I18993
g2
ssI18998
(dp176
I18998
g2
ssI571
(dp177
I571
g2
ssI8765
(dp178
I8765
g2
ssI8773
(dp179
I8773
g2
ssI14923
(dp180
I14923
g2
ssI21071
(dp181
I21071
g2
ssI21073
(dp182
I21073
g2
ssI21077
(dp183
I4162
(I1
I1
tp184
sI21077
g2
ssI14935
(dp185
I14935
g2
ssI2650
(dp186
I22521
(I1
I1
tp187
sI2650
g2
sI3522
(I1
I1
tp188
sI7526
(I1
I1
tp189
sI24045
(I1
I1
tp190
ssI23140
(dp191
I23140
g2
ssI14952
(dp192
I14952
g2
ssI26045
(dp193
I26045
g2
ssI23155
(dp194
I3857
(I1
I1
tp195
sI4162
(I1
I1
tp196
ssI12916
(dp197
I12916
g2
ssI23157
(dp198
I3857
(I1
I1
tp199
sI4162
(I1
I1
tp200
ssI23162
(dp201
I23162
g2
ssI23163
(dp202
I23162
(I1
I1
tp203
ssI21116
(dp204
I459
(I1
I1
tp205
ssI12932
(dp206
I12932
g2
ssI17029
(dp207
I17029
g2
ssI23186
(dp208
I23186
g2
ssI21144
(dp209
I21144
g2
ssI15003
(dp210
I15003
g2
ssI2719
(dp211
I2719
g2
ssI672
(dp212
I672
g2
ssI21154
(dp213
I3857
(I1
I1
tp214
sI4162
(I1
I1
tp215
ssI676
(dp216
I2401
(I1
I1
tp217
sI676
g2
ssI12966
(dp218
I12966
g2
ssI23211
(dp219
I23211
g2
ssI689
(dp220
I689
g2
sI691
(I1
I1
tp221
ssI691
(dp222
I689
(I1
I1
tp223
sI691
g2
ssI20597
(dp224
I20597
g2
ssI18027
(dp225
I5932
(I1
I1
tp226
ssI8905
(dp227
I8905
g2
ssI719
(dp228
I2286
(I1
I1
tp229
sI719
g2
ssI4593
(dp230
I4593
g2
sI2468
(I1
I1
tp231
ssI20263
(dp232
I20263
g2
sI2399
(I1
I1
tp233
ssI10025
(dp234
I10025
g2
ssI2518
(dp235
I2518
g2
ssI15112
(dp236
I15112
g2
ssI15113
(dp237
I15113
g2
ssI23315
(dp238
I23315
g2
ssI25395
(dp239
I25395
g2
ssI822
(dp240
I822
g2
ssI4919
(dp241
I4919
g2
ssI21314
(dp242
I21314
g2
ssI843
(dp243
I843
g2
sI844
(I1
I1
tp244
sI845
(I1
I1
tp245
ssI844
(dp246
I843
(I1
I1
tp247
sI844
g2
ssI845
(dp248
I843
(I1
I1
tp249
sI845
g2
ssI4942
(dp250
I4942
g2
ssI4954
(dp251
I4954
g2
ssI19291
(dp252
I19291
g2
sI2399
(I1
I1
tp253
ssI19295
(dp254
I14066
(I1
I1
tp255
sI125
(I1
I1
tp256
sI19295
g2
ssI9062
(dp257
I9062
g2
ssI17257
(dp258
I17257
g2
ssI4978
(dp259
I4978
g2
ssI11132
(dp260
I11132
g2
sI10285
(I1
I1
tp261
ssI15250
(dp262
I15250
g2
ssI26095
(dp263
I1616
(I1
I1
tp264
ssI1970
(dp265
I2469
(I1
I1
tp266
sI1959
(I1
I1
tp267
ssI9713
(dp268
I9711
(I1
I1
tp269
ssI5032
(dp270
I5032
g2
ssI5080
(dp271
I5080
g2
ssI994
(dp272
I9521
(I1
I1
tp273
sI994
g2
ssI15331
(dp274
I15331
g2
ssI3053
(dp275
I9521
(I1
I1
tp276
sI3053
g2
ssI9206
(dp277
I9206
g2
ssI23555
(dp278
I23555
g2
ssI7173
(dp279
I7173
g2
ssI25607
(dp280
I25607
g2
ssI25609
(dp281
I25609
g2
ssI5131
(dp282
I5131
g2
ssI3092
(dp283
I3092
g2
ssI19483
(dp284
I19483
g2
ssI9245
(dp285
I9245
g2
ssI11299
(dp286
I11299
g2
ssI15400
(dp287
I15400
g2
ssI1065
(dp288
I1065
g2
sI4595
(I1
I1
tp289
sI2469
(I2
I1
tp290
sI1959
(I2
I2
tp291
ssI15407
(dp292
I15407
g2
ssI23612
(dp293
I23612
g2
ssI4280
(dp294
I4280
g2
ssI17905
(dp295
I3857
(I1
I1
tp296
sI4162
(I1
I1
tp297
ssI11382
(dp298
I16131
(I1
I1
tp299
sI2101
(I1
I1
tp300
sI11382
g2
ssI873
(dp301
I873
g2
ssI1163
(dp302
I1163
g2
ssI11404
(dp303
I1408
(I1
I1
tp304
sI11404
g2
ssI11405
(dp305
I11405
g2
ssI1903
(dp306
I1427
(I1
I1
tp307
sI1903
g2
ssI1190
(dp308
I1190
g2
sI1191
(I1
I1
tp309
ssI1191
(dp310
I1190
(I1
I1
tp311
sI1191
g2
ssI21674
(dp312
I21674
g2
ssI13488
(dp313
I13488
g2
sI14741
(I1
I1
tp314
ssI21682
(dp315
I21682
g2
ssI1205
(dp316
I1205
g2
ssI21689
(dp317
I3857
(I1
I1
tp318
sI4162
(I2
I1
tp319
sI14066
(I1
I1
tp320
sI125
(I1
I1
tp321
ssI21690
(dp322
I3857
(I2
I1
tp323
sI4162
(I1
I1
tp324
sI14066
(I2
I1
tp325
sI125
(I2
I1
tp326
ssI25798
(dp327
I125
(I1
I1
tp328
sI25798
g2
ssI3321
(dp329
I3321
g2
ssI19713
(dp330
I3522
(I1
I1
tp331
ssI19715
(dp332
I3522
(I1
I1
tp333
ssI9486
(dp334
I3857
(I1
I1
tp335
sI9486
g2
ssI5677
(dp336
I5677
g2
ssI15632
(dp337
I2469
(I1
I1
tp338
ssI13589
(dp339
I13589
g2
ssI3351
(dp340
I3351
g2
ssI9497
(dp341
I9497
g2
ssI1308
(dp342
I1308
g2
ssI1316
(dp343
I1316
g2
sI15973
(I1
I1
tp344
ssI1318
(dp345
I15819
(I1
I1
tp346
sI1901
(I1
I1
tp347
sI1318
g2
ssI15655
(dp348
I15655
g2
ssI15656
(dp349
I15656
g2
ssI1323
(dp350
I1323
g2
ssI9521
(dp351
I994
(I1
I1
tp352
sI11724
(I1
I1
tp353
sI3053
(I1
I1
tp354
sI9521
g2
sI12658
(I1
I1
tp355
sI12668
(I1
I1
tp356
ssI23878
(dp357
I23878
g2
ssI5449
(dp358
I5449
g2
ssI19790
(dp359
I19790
g2
ssI1365
(dp360
I1365
g2
ssI1372
(dp361
I1372
g2
ssI7526
(dp362
I2650
(I1
I1
tp363
sI7526
g2
ssI9594
(dp364
I9594
g2
ssI17787
(dp365
I17787
g2
ssI1408
(dp366
I1408
g2
sI11700
(I1
I1
tp367
sI4162
(I1
I1
tp368
sI11404
(I1
I1
tp369
ssI21889
(dp370
I21889
g2
ssI13702
(dp371
I13702
g2
ssI9607
(dp372
I9607
g2
ssI1427
(dp373
I1900
(I1
I1
tp374
sI1427
g2
sI1684
(I1
I1
tp375
sI1901
(I1
I1
tp376
sI1903
(I1
I1
tp377
ssI17816
(dp378
I17816
g2
ssI11679
(dp379
I11679
g2
ssI5537
(dp380
I1457
(I1
I1
tp381
sI5537
g2
ssI3500
(dp382
I3500
g2
ssI1457
(dp383
I1457
g2
sI20870
(I1
I1
tp384
sI5606
(I1
I1
tp385
sI5537
(I1
I1
tp386
ssI24819
(dp387
I24819
g2
ssI11700
(dp388
I1408
(I1
I1
tp389
sI3857
(I1
I1
tp390
sI4162
(I1
I1
tp391
sI11700
g2
ssI19901
(dp392
I19901
g2
ssI3521
(dp393
I3521
g2
sI3522
(I1
I1
tp394
ssI3522
(dp395
I3521
(I1
I1
tp396
sI2650
(I1
I1
tp397
sI3522
g2
ssI7619
(dp398
I7619
g2
ssI1476
(dp399
I1476
g2
ssI1477
(dp400
I1477
g2
ssI15819
(dp401
I15819
g2
sI1318
(I1
I1
tp402
ssI11724
(dp403
I11724
g2
sI1612
(I1
I1
tp404
sI9521
(I1
I1
tp405
ssI3540
(dp406
I3540
g2
ssI3542
(dp407
I3542
g2
ssI3544
(dp408
I3544
g2
ssI20031
(dp409
I19291
(I1
I1
tp410
ssI24034
(dp411
I3857
(I1
I1
tp412
ssI5606
(dp413
I1457
(I1
I1
tp414
sI5606
g2
ssI24045
(dp415
I2650
(I1
I1
tp416
sI24045
g2
ssI9711
(dp417
I9712
(I1
I1
tp418
sI9717
(I1
I1
tp419
sI9711
g2
ssI9712
(dp420
I9712
g2
sI9711
(I1
I1
tp421
ssI24049
(dp422
I2650
(I1
I1
tp423
ssI22003
(dp424
I10285
(I1
I1
tp425
ssI9717
(dp426
I9717
g2
sI9711
(I1
I1
tp427
ssI3579
(dp428
I3579
g2
ssI26110
(dp429
I26110
g2
ssI26115
(dp430
I26115
g2
ssI11783
(dp431
I12061
(I1
I1
tp432
sI11783
g2
ssI1965
(dp433
I1965
g2
sI1959
(I1
I1
tp434
ssI1558
(dp435
I1452
(I1
I1
tp436
sI1558
g2
ssI11868
(dp437
I11868
g2
ssI1581
(dp438
I1581
g2
ssI15925
(dp439
I15925
g2
ssI20029
(dp440
I19291
(I1
I1
tp441
ssI5695
(dp442
I5695
g2
ssI13895
(dp443
I13895
g2
ssI1612
(dp444
I11724
(I1
I1
tp445
sI1612
g2
sI16389
(I1
I1
tp446
ssI1616
(dp447
I1616
g2
ssI1617
(dp448
I1617
g2
sI22533
(I1
I1
tp449
ssI1623
(dp450
I1623
g2
ssI1628
(dp451
I1628
g2
ssI5726
(dp452
I10561
(I1
I1
tp453
sI5726
g2
ssI20063
(dp454
I20063
g2
ssI15973
(dp455
I1316
(I1
I1
tp456
sI15973
g2
ssI20071
(dp457
I2321
(I1
I1
tp458
sI20071
g2
ssI13931
(dp459
I13931
g2
ssI18029
(dp460
I2468
(I1
I1
tp461
sI2469
(I1
I1
tp462
ssI18031
(dp463
I2468
(I1
I1
tp464
sI2469
(I1
I1
tp465
ssI11891
(dp466
I11891
g2
ssI5748
(dp467
I3857
(I1
I1
tp468
sI4162
(I1
I1
tp469
ssI22142
(dp470
I4162
(I1
I1
tp471
ssI22143
(dp472
I4162
(I1
I1
tp473
ssI11907
(dp474
I11907
g2
sI245
(I1
I1
tp475
ssI26244
(dp476
I26244
g2
ssI11923
(dp477
I11923
g2
sI245
(I1
I1
tp478
ssI1684
(dp479
I1427
(I1
I1
tp480
sI1684
g2
ssI11931
(dp481
I245
(I1
I1
tp482
ssI11932
(dp483
I11932
g2
sI245
(I1
I1
tp484
ssI11933
(dp485
I245
(I1
I1
tp486
sI11933
g2
ssI11938
(dp487
I245
(I1
I1
tp488
ssI11942
(dp489
I245
(I1
I1
tp490
sI11942
g2
ssI26279
(dp491
I26279
g2
ssI11944
(dp492
I11944
g2
sI245
(I1
I1
tp493
ssI23156
(dp494
I4162
(I1
I1
tp495
sI125
(I1
I1
tp496
ssI18109
(dp497
I18109
g2
ssI3785
(dp498
I3785
g2
ssI9128
(dp499
I9128
g2
ssI14055
(dp500
I14055
g2
ssI14066
(dp501
I3857
(I2
I1
tp502
sI4162
(I3
I1
tp503
sI14066
g2
sI125
(I2
I1
tp504
sI19295
(I1
I1
tp505
ssI3832
(dp506
I3832
g2
ssI16129
(dp507
I16129
g2
ssI16131
(dp508
I16131
g2
sI11382
(I1
I1
tp509
ssI26381
(dp510
I5932
(I1
I1
tp511
ssI3856
(dp512
I3857
(I1
I1
tp513
sI3858
(I1
I1
tp514
ssI3857
(dp515
I4162
(I2
I5
tp516
sI3858
(I2
I1
tp517
sI9486
(I1
I1
tp518
sI3857
g2
sI14066
(I2
I1
tp519
sI11700
(I1
I1
tp520
sI125
(I2
I1
tp521
ssI3858
(dp522
I3857
(I2
I1
tp523
sI4162
(I1
I1
tp524
sI3858
g2
ssI18051
(dp525
I18051
g2
ssI12061
(dp526
I12061
g2
sI11783
(I1
I1
tp527
ssI10015
(dp528
I10015
g2
ssI20262
(dp529
I2399
(I1
I1
tp530
ssI5927
(dp531
I5927
g2
ssI20264
(dp532
I2399
(I1
I1
tp533
ssI20265
(dp534
I20265
g2
sI2399
(I1
I1
tp535
ssI5932
(dp536
I5932
g2
ssI12598
(dp537
I12598
g2
ssI10060
(dp538
I10060
g2
ssI1872
(dp539
I1872
g2
ssI1876
(dp540
I1876
g2
ssI18281
(dp541
I18281
g2
ssI1900
(dp542
I1427
(I1
I1
tp543
sI1900
g2
ssI1901
(dp544
I1427
(I1
I1
tp545
sI1901
g2
sI1318
(I1
I1
tp546
ssI1902
(dp547
I1427
(I1
I1
tp548
ssI18287
(dp549
I18287
g2
ssI3952
(dp550
I3952
g2
ssI22385
(dp551
I1876
(I1
I1
tp552
ssI1906
(dp553
I1427
(I1
I1
tp554
ssI10103
(dp555
I10103
g2
ssI11924
(dp556
I11924
g2
sI245
(I1
I1
tp557
ssI8060
(dp558
I8060
g2
ssI1919
(dp559
I1919
g2
ssI16271
(dp560
I16271
g2
ssI24482
(dp561
I24482
g2
ssI24484
(dp562
I24484
g2
ssI1959
(dp563
I1985
(I1
I1
tp564
sI1987
(I1
I1
tp565
sI2468
(I2
I2
tp566
sI2469
(I2
I3
tp567
sI1959
g2
sI1065
(I2
I2
tp568
sI1965
(I1
I1
tp569
sI1967
(I1
I1
tp570
sI1978
(I1
I1
tp571
sI1981
(I1
I1
tp572
ssI4008
(dp573
I4008
g2
sI4162
(I1
I1
tp574
ssI16300
(dp575
I16300
g2
ssI18349
(dp576
I2468
(I1
I1
tp577
sI18349
g2
ssI1967
(dp578
I1959
(I1
I1
tp579
sI1967
g2
ssI1968
(dp580
I2468
(I1
I1
tp581
sI1959
(I1
I1
tp582
ssI16306
(dp583
I16306
g2
ssI1974
(dp584
I1065
(I1
I1
tp585
sI2469
(I1
I1
tp586
sI1959
(I1
I1
tp587
ssI1976
(dp588
I2469
(I1
I1
tp589
sI1959
(I1
I1
tp590
ssI1978
(dp591
I1978
g2
sI1959
(I1
I1
tp592
ssI1980
(dp593
I2468
(I1
I1
tp594
sI1959
(I1
I1
tp595
ssI1981
(dp596
I1981
g2
sI1959
(I1
I1
tp597
ssI24511
(dp598
I24511
g2
ssI1985
(dp599
I1985
g2
sI1959
(I1
I1
tp600
ssI10179
(dp601
I10179
g2
ssI1988
(dp602
I1959
(I1
I1
tp603
ssI1989
(dp604
I1959
(I1
I1
tp605
ssI1992
(dp606
I1065
(I1
I1
tp607
sI1959
(I1
I1
tp608
ssI18379
(dp609
I18379
g2
ssI24542
(dp610
I24542
g2
ssI4082
(dp611
I4082
g2
ssI22521
(dp612
I22521
g2
sI2650
(I1
I1
tp613
ss.