(dp0
I10240
(dp1
I10240
(I0
I1
tp2
sI2250
(I1
I1
tp3
ssI20481
(dp4
I20481
g2
ssI25259
(dp5
I25259
g2
ssI2052
(dp6
I3939
(I1
I1
tp7
sI2052
g2
ssI20486
(dp8
I20486
g2
ssI22529
(dp9
I22529
g2
ssI25260
(dp10
I25260
g2
ssI10253
(dp11
I10253
g2
ssI20494
(dp12
I20494
g2
ssI2063
(dp13
I2063
g2
ssI4112
(dp14
I4112
g2
ssI16401
(dp15
I16401
g2
ssI4115
(dp16
I4115
g2
ssI16408
(dp17
I16408
g2
ssI20509
(dp18
I20509
g2
ssI31
(dp19
I4804
(I1
I1
tp20
sI230
(I1
I1
tp21
sI3878
(I1
I1
tp22
sI2381
(I1
I1
tp23
sI2768
(I1
I1
tp24
sI693
(I1
I1
tp25
sI19958
(I1
I1
tp26
sI31
g2
ssI22561
(dp27
I22561
g2
ssI24582
(dp28
I24582
g2
ssI18480
(dp29
I18480
g2
ssI10291
(dp30
I10291
g2
ssI20533
(dp31
I20533
g2
ssI54
(dp32
I54
g2
ssI15726
(dp33
I15726
g2
ssI10933
(dp34
I10933
g2
ssI18496
(dp35
I18496
g2
sI2196
(I1
I1
tp36
ssI65
(dp37
I65
g2
ssI2114
(dp38
I2114
g2
ssI20547
(dp39
I20547
g2
ssI68
(dp40
I68
g2
sI2598
(I1
I1
tp41
ssI18501
(dp42
I18501
g2
ssI18502
(dp43
I18502
g2
ssI22600
(dp44
I22600
g2
ssI2123
(dp45
I2123
g2
ssI18509
(dp46
I18509
g2
ssI80
(dp47
I80
g2
ssI2132
(dp48
I2132
g2
ssI18517
(dp49
I18517
g2
ssI18518
(dp50
I18518
g2
ssI10327
(dp51
I10327
g2
ssI88
(dp52
I88
g2
ssI16473
(dp53
I16473
g2
ssI6159
(dp54
I6159
g2
ssI93
(dp55
I93
g2
ssI18143
(dp56
I18143
g2
ssI14431
(dp57
I14431
g2
ssI4192
(dp58
I4192
g2
ssI16483
(dp59
I16483
g2
ssI10341
(dp60
I10341
g2
ssI2152
(dp61
I2152
g2
ssI12988
(dp62
I12988
g2
ssI106
(dp63
I106
g2
sI107
(I1
I1
tp64
ssI107
(dp65
I106
(I1
I1
tp66
sI107
g2
ssI16494
(dp67
I16494
g2
ssI16495
(dp68
I16495
g2
ssI16498
(dp69
I16498
g2
ssI20599
(dp70
I20599
g2
ssI2169
(dp71
I2169
g2
ssI16510
(dp72
I16510
g2
ssI18562
(dp73
I18562
g2
ssI18563
(dp74
I8579
(I1
I1
tp75
sI18563
g2
ssI15962
(dp76
I15962
g2
ssI22662
(dp77
I22662
g2
ssI22664
(dp78
I22664
g2
ssI24714
(dp79
I24714
g2
ssI15383
(dp80
I758
(I1
I1
tp81
sI15383
g2
ssI18572
(dp82
I18572
g2
ssI6285
(dp83
I6285
g2
ssI12431
(dp84
I12431
g2
ssI24721
(dp85
I24721
g2
ssI14483
(dp86
I14483
g2
ssI2196
(dp87
I18496
(I1
I1
tp88
sI2196
g2
ssI13678
(dp89
I13678
g2
ssI12962
(dp90
I12962
g2
ssI155
(dp91
I155
g2
ssI6300
(dp92
I6300
g2
ssI2205
(dp93
I2205
g2
ssI6302
(dp94
I6302
g2
ssI16543
(dp95
I16544
(I1
I1
tp96
sI16553
(I1
I1
tp97
sI16548
(I1
I1
tp98
sI16543
g2
ssI16544
(dp99
I16544
g2
sI16543
(I1
I1
tp100
ssI16548
(dp101
I16548
g2
sI16543
(I1
I1
tp102
ssI25286
(dp103
I25286
g2
ssI16553
(dp104
I16553
g2
sI16543
(I1
I1
tp105
ssI22851
(dp106
I22851
g2
ssI18603
(dp107
I18603
g2
ssI18610
(dp108
I10913
(I1
I1
tp109
ssI18611
(dp110
I10913
(I1
I1
tp111
ssI25847
(dp112
I25847
g2
ssI19614
(dp113
I4432
(I1
I1
tp114
sI19614
g2
ssI12476
(dp115
I12476
g2
ssI20192
(dp116
I20192
g2
ssI2238
(dp117
I2238
g2
ssI24767
(dp118
I24767
g2
ssI16576
(dp119
I16576
g2
sI19193
(I1
I1
tp120
ssI22579
(dp121
I22579
g2
ssI24772
(dp122
I24772
g2
ssI18629
(dp123
I18629
g2
ssI24774
(dp124
I24774
g2
ssI21080
(dp125
I21080
g2
sI2558
(I1
I1
tp126
ssI4297
(dp127
I4297
g2
ssI2250
(dp128
I10240
(I1
I1
tp129
sI20217
(I1
I1
tp130
sI2250
g2
sI10740
(I1
I1
tp131
sI9094
(I1
I1
tp132
ssI22731
(dp133
I22731
g2
ssI204
(dp134
I204
g2
ssI22734
(dp135
I22734
g2
ssI20173
(dp136
I20173
g2
ssI2256
(dp137
I2256
g2
ssI22737
(dp138
I22737
g2
ssI210
(dp139
I210
g2
ssI24789
(dp140
I24789
g2
ssI214
(dp141
I214
g2
ssI25444
(dp142
I25444
g2
ssI22746
(dp143
I22746
g2
ssI8411
(dp144
I8411
g2
sI2727
(I1
I1
tp145
ssI4317
(dp146
I4317
g2
ssI12512
(dp147
I12512
g2
sI10222
(I1
I1
tp148
ssI22753
(dp149
I22753
g2
ssI14562
(dp150
I14562
g2
sI18259
(I1
I1
tp151
ssI12515
(dp152
I2727
(I1
I1
tp153
ssI4324
(dp154
I3921
(I1
I1
tp155
sI4324
g2
ssI230
(dp156
I230
g2
sI3878
(I1
I1
tp157
sI2381
(I1
I1
tp158
sI2768
(I1
I1
tp159
sI31
(I1
I1
tp160
sI8127
(I1
I1
tp161
ssI6376
(dp162
I6376
g2
ssI12522
(dp163
I2727
(I1
I1
tp164
ssI12523
(dp165
I12523
g2
sI2727
(I1
I1
tp166
ssI10478
(dp167
I20888
(I1
I1
tp168
sI10478
g2
ssI6384
(dp169
I6384
g2
ssI16626
(dp170
I16626
g2
ssI4339
(dp171
I4339
g2
ssI16628
(dp172
I16628
g2
ssI16629
(dp173
I16629
g2
ssI21967
(dp174
I21967
g2
ssI4343
(dp175
I4343
g2
ssI4344
(dp176
I4344
g2
ssI23331
(dp177
I23331
g2
ssI16634
(dp178
I16634
g2
ssI15966
(dp179
I15966
g2
ssI254
(dp180
I254
g2
ssI14595
(dp181
I14595
g2
ssI25647
(dp182
I25647
g2
ssI25302
(dp183
I25302
g2
ssI9601
(dp184
I9601
g2
sI14540
(I1
I1
tp185
sI7694
(I1
I1
tp186
ssI12553
(dp187
I12553
g2
ssI16652
(dp188
I2746
(I1
I1
tp189
ssI269
(dp190
I269
g2
ssI24846
(dp191
I24846
g2
ssI16655
(dp192
I16655
g2
ssI26196
(dp193
I3382
(I1
I1
tp194
ssI24849
(dp195
I24849
g2
ssI22802
(dp196
I22802
g2
ssI14613
(dp197
I14614
(I1
I1
tp198
ssI14614
(dp199
I14614
g2
ssI283
(dp200
I283
g2
sI19958
(I1
I1
tp201
ssI16672
(dp202
I11834
(I1
I1
tp203
ssI26333
(dp204
I26333
g2
ssI25307
(dp205
I25307
g2
ssI24868
(dp206
I24868
g2
ssI4389
(dp207
I4389
g2
ssI12583
(dp208
I12583
g2
ssI2345
(dp209
I2345
g2
sI20210
(I1
I1
tp210
sI20207
(I1
I1
tp211
ssI24967
(dp212
I24967
g2
ssI4396
(dp213
I4396
g2
ssI4397
(dp214
I4400
(I1
I1
tp215
sI4397
g2
ssI12590
(dp216
I12590
g2
ssI303
(dp217
I303
g2
ssI4400
(dp218
I4400
g2
sI4397
(I1
I1
tp219
ssI9267
(dp220
I9267
g2
ssI14645
(dp221
I7638
(I1
I1
tp222
ssI24015
(dp223
I24015
g2
ssI24888
(dp224
I24888
g2
ssI12603
(dp225
I12603
g2
ssI16700
(dp226
I16700
g2
ssI2365
(dp227
I2365
g2
ssI14655
(dp228
I14655
g2
ssI26334
(dp229
I26334
g2
ssI18753
(dp230
I18753
g2
ssI14658
(dp231
I14658
g2
ssI18755
(dp232
I18755
g2
ssI14662
(dp233
I14662
g2
ssI20807
(dp234
I20807
g2
ssI2381
(dp235
I2381
g2
sI230
(I1
I1
tp236
sI31
(I1
I1
tp237
ssI14671
(dp238
I1189
(I1
I1
tp239
sI14671
g2
ssI4432
(dp240
I4432
g2
sI15251
(I1
I1
tp241
sI9400
(I1
I1
tp242
sI19609
(I1
I1
tp243
sI19612
(I1
I1
tp244
sI19614
(I1
I1
tp245
ssI6482
(dp246
I6482
g2
ssI26471
(dp247
I26471
g2
ssI18772
(dp248
I18772
g2
ssI12633
(dp249
I12633
g2
ssI24923
(dp250
I24923
g2
ssI12636
(dp251
I12636
g2
sI12637
(I1
I1
tp252
ssI12637
(dp253
I12636
(I1
I1
tp254
sI12637
g2
ssI26335
(dp255
I26335
g2
ssI18783
(dp256
I18783
g2
ssI24930
(dp257
I24930
g2
ssI8127
(dp258
I230
(I1
I1
tp259
sI8127
g2
ssI16785
(dp260
I16785
g2
ssI25319
(dp261
I25319
g2
ssI4461
(dp262
I4461
g2
ssI24943
(dp263
I24943
g2
ssI24945
(dp264
I24945
g2
ssI18806
(dp265
I18806
g2
ssI24952
(dp266
I24952
g2
ssI8575
(dp267
I8575
g2
ssI8579
(dp268
I8579
g2
sI18563
(I1
I1
tp269
ssI389
(dp270
I389
g2
ssI12679
(dp271
I12726
(I1
I1
tp272
sI12679
g2
ssI8584
(dp273
I8584
g2
ssI14729
(dp274
I14729
g2
ssI24971
(dp275
I24971
g2
ssI24768
(dp276
I24768
g2
ssI16781
(dp277
I16781
g2
ssI19858
(dp278
I19858
g2
ssI18831
(dp279
I18831
g2
ssI401
(dp280
I401
g2
sI403
(I1
I1
tp281
ssI20882
(dp282
I20882
g2
ssI403
(dp283
I401
(I1
I1
tp284
sI403
g2
ssI18837
(dp285
I18837
g2
ssI20886
(dp286
I20886
g2
ssI20888
(dp287
I20888
g2
sI10478
(I1
I1
tp288
ssI10649
(dp289
I10649
g2
ssI22938
(dp290
I15746
(I1
I1
tp291
sI22938
g2
ssI16795
(dp292
I16795
g2
ssI20894
(dp293
I3878
(I1
I1
tp294
ssI6560
(dp295
I6560
g2
sI6561
(I1
I1
tp296
ssI6561
(dp297
I6560
(I1
I1
tp298
sI6561
g2
sI13256
(I1
I1
tp299
ssI8611
(dp300
I8611
g2
ssI12711
(dp301
I12711
g2
ssI4520
(dp302
I4520
g2
ssI24016
(dp303
I24016
g2
ssI22958
(dp304
I22958
g2
ssI10673
(dp305
I10673
g2
ssI12722
(dp306
I12722
g2
ssI2486
(dp307
I2486
g2
ssI25247
(dp308
I25247
g2
ssI4652
(dp309
I2365
(I1
I1
tp310
ssI2465
(dp311
I2465
g2
ssI8650
(dp312
I8650
g2
ssI4555
(dp313
I4555
g2
sI20021
(I1
I1
tp314
ssI10700
(dp315
I10700
g2
ssI16845
(dp316
I16845
g2
ssI12751
(dp317
I886
(I1
I1
tp318
sI12751
g2
ssI18896
(dp319
I18896
g2
ssI20946
(dp320
I20946
g2
ssI6563
(dp321
I6563
g2
ssI19042
(dp322
I19042
g2
ssI21770
(dp323
I21770
g2
ssI14811
(dp324
I14811
g2
ssI12764
(dp325
I12764
g2
ssI6621
(dp326
I6621
g2
ssI23006
(dp327
I23006
g2
ssI14816
(dp328
I14816
g2
ssI12770
(dp329
I12770
g2
ssI14819
(dp330
I14819
g2
ssI12773
(dp331
I12773
g2
ssI16870
(dp332
I16870
g2
ssI14824
(dp333
I14824
g2
ssI23022
(dp334
I23022
g2
ssI12712
(dp335
I12711
(I1
I1
tp336
ssI10740
(dp337
I2250
(I1
I1
tp338
sI10740
g2
ssI503
(dp339
I507
(I1
I1
tp340
sI503
g2
ssI16889
(dp341
I16889
g2
ssI507
(dp342
I507
g2
sI503
(I1
I1
tp343
ssI2558
(dp344
I21080
(I1
I1
tp345
sI2558
g2
ssI10751
(dp346
I10751
g2
ssI8704
(dp347
I8704
g2
ssI18948
(dp348
I18948
g2
ssI4613
(dp349
I4613
g2
ssI16903
(dp350
I16903
g2
ssI18953
(dp351
I18953
g2
ssI522
(dp352
I522
g2
ssI15447
(dp353
I15447
g2
ssI12812
(dp354
I12812
g2
sI1526
(I1
I1
tp355
ssI12813
(dp356
I12813
g2
ssI24977
(dp357
I3716
(I1
I1
tp358
ssI4625
(dp359
I4625
g2
ssI8722
(dp360
I8722
g2
ssI14869
(dp361
I14869
g2
ssI18521
(dp362
I18521
g2
ssI25863
(dp363
I25863
g2
ssI2590
(dp364
I11186
(I1
I1
tp365
sI2590
g2
sI18591
(I1
I1
tp366
ssI18523
(dp367
I18523
g2
ssI2598
(dp368
I68
(I1
I1
tp369
sI2598
g2
sI3878
(I1
I1
tp370
ssI18985
(dp371
I18985
g2
ssI556
(dp372
I556
g2
ssI20914
(dp373
I15026
(I1
I1
tp374
ssI23937
(dp375
I23937
g2
ssI21040
(dp376
I21040
g2
ssI12849
(dp377
I12849
g2
sI3382
(I1
I1
tp378
ssI18526
(dp379
I18526
g2
ssI2616
(dp380
I2616
g2
ssI21705
(dp381
I21705
g2
ssI17136
(dp382
I17136
g2
ssI11203
(dp383
I11203
g2
ssI12863
(dp384
I12863
g2
ssI16045
(dp385
I16045
g2
ssI22966
(dp386
I22966
g2
ssI12726
(dp387
I12726
g2
sI12679
(I1
I1
tp388
ssI8775
(dp389
I3637
(I1
I1
tp390
sI8775
g2
ssI14092
(dp391
I14092
g2
ssI8778
(dp392
I31
(I1
I1
tp393
ssI8780
(dp394
I8780
g2
ssI23118
(dp395
I23118
g2
ssI20237
(dp396
I11468
(I1
I1
tp397
sI20237
g2
ssI23121
(dp398
I23121
g2
ssI19026
(dp399
I19026
g2
ssI26382
(dp400
I26382
g2
ssI21078
(dp401
I2558
(I1
I1
tp402
ssI12887
(dp403
I12888
(I1
I1
tp404
ssI12888
(dp405
I12888
g2
ssI4697
(dp406
I4697
g2
ssI21085
(dp407
I21085
g2
ssI21087
(dp408
I21087
g2
ssI8800
(dp409
I8800
g2
ssI8801
(dp410
I8801
g2
ssI12898
(dp411
I14944
(I1
I1
tp412
sI12898
g2
ssI21947
(dp413
I21947
g2
ssI12905
(dp414
I12905
g2
ssI19056
(dp415
I19056
g2
ssI8818
(dp416
I8818
g2
ssI14964
(dp417
I14964
g2
ssI10869
(dp418
I10869
g2
ssI18935
(dp419
I18935
g2
ssI14967
(dp420
I14967
g2
ssI14968
(dp421
I14968
g2
ssI20244
(dp422
I20244
g2
ssI2495
(dp423
I2495
g2
ssI23003
(dp424
I23003
g2
ssI10880
(dp425
I10880
g2
ssI12931
(dp426
I12931
g2
ssI25221
(dp427
I25221
g2
ssI25222
(dp428
I25222
g2
ssI14479
(dp429
I14479
g2
ssI14989
(dp430
I14989
g2
ssI19086
(dp431
I19086
g2
ssI25232
(dp432
I25232
g2
ssI23320
(dp433
I23320
g2
ssI14995
(dp434
I14995
g2
ssI19092
(dp435
I19092
g2
ssI8855
(dp436
I3637
(I1
I1
tp437
sI8855
g2
ssI23192
(dp438
I23192
g2
ssI665
(dp439
I665
g2
ssI25242
(dp440
I25242
g2
ssI17051
(dp441
I17051
g2
sI3125
(I1
I1
tp442
ssI17052
(dp443
I17052
g2
sI3125
(I1
I1
tp444
ssI17053
(dp445
I3125
(I1
I1
tp446
ssI17054
(dp447
I3125
(I1
I1
tp448
sI17054
g2
ssI4767
(dp449
I4767
g2
ssI12960
(dp450
I12960
g2
ssI10913
(dp451
I10913
g2
ssI8866
(dp452
I8866
g2
ssI25251
(dp453
I25251
g2
ssI8868
(dp454
I8868
g2
ssI19910
(dp455
I19910
g2
ssI25254
(dp456
I25254
g2
ssI2727
(dp457
I12523
(I1
I1
tp458
sI8411
(I1
I1
tp459
sI7044
(I1
I1
tp460
sI3382
(I1
I1
tp461
sI2727
g2
ssI17064
(dp462
I17064
g2
ssI25258
(dp463
I25258
g2
ssI683
(dp464
I683
g2
ssI8876
(dp465
I8876
g2
ssI25255
(dp466
I25255
g2
ssI19118
(dp467
I19118
g2
ssI15025
(dp468
I15026
(I1
I1
tp469
ssI15026
(dp470
I15026
g2
ssI25267
(dp471
I25267
g2
ssI692
(dp472
I693
(I1
I1
tp473
ssI693
(dp474
I693
g2
sI31
(I1
I1
tp475
ssI12982
(dp476
I12982
g2
ssI4792
(dp477
I4792
g2
ssI2746
(dp478
I2746
g2
sI4031
(I1
I1
tp479
ssI10940
(dp480
I10940
g2
ssI701
(dp481
I701
g2
ssI20141
(dp482
I2843
(I1
I1
tp483
sI20141
g2
ssI4804
(dp484
I4804
g2
sI31
(I1
I1
tp485
ssI8902
(dp486
I8902
g2
ssI16844
(dp487
I16844
g2
ssI17100
(dp488
I17100
g2
ssI25293
(dp489
I25293
g2
ssI4814
(dp490
I4814
g2
ssI15055
(dp491
I15055
g2
ssI2768
(dp492
I2768
g2
sI230
(I1
I1
tp493
sI31
(I1
I1
tp494
ssI13011
(dp495
I13011
g2
ssI19156
(dp496
I19156
g2
ssI21642
(dp497
I21642
g2
ssI25303
(dp498
I25303
g2
ssI15064
(dp499
I15064
g2
ssI17113
(dp500
I17113
g2
ssI17790
(dp501
I17790
g2
ssI13020
(dp502
I13020
g2
ssI25310
(dp503
I25310
g2
ssI23263
(dp504
I23263
g2
ssI17120
(dp505
I17120
g2
ssI19169
(dp506
I19169
g2
ssI23268
(dp507
I23268
g2
ssI18214
(dp508
I18214
g2
ssI19174
(dp509
I19174
g2
ssI23271
(dp510
I23271
g2
ssI17130
(dp511
I17130
g2
ssI4843
(dp512
I4843
g2
ssI10991
(dp513
I10992
(I1
I1
tp514
sI10991
g2
ssI10992
(dp515
I10992
g2
sI10991
(I1
I1
tp516
ssI15089
(dp517
I15089
g2
ssI25330
(dp518
I25330
g2
ssI10996
(dp519
I10996
g2
ssI758
(dp520
I758
g2
sI15383
(I1
I1
tp521
ssI19193
(dp522
I16576
(I1
I1
tp523
sI19193
g2
ssI18218
(dp524
I18218
g2
ssI25345
(dp525
I25345
g2
ssI4866
(dp526
I4866
g2
ssI25347
(dp527
I25347
g2
ssI4871
(dp528
I4871
g2
ssI1526
(dp529
I11396
(I1
I1
tp530
sI12812
(I1
I1
tp531
sI1526
g2
ssI17164
(dp532
I17164
g2
ssI17166
(dp533
I17166
g2
ssI15119
(dp534
I15119
g2
ssI25360
(dp535
I25360
g2
ssI13073
(dp536
I13073
g2
ssI15128
(dp537
I15128
g2
ssI15492
(dp538
I15492
g2
ssI17178
(dp539
I17178
g2
ssI2843
(dp540
I2843
g2
sI20141
(I1
I1
tp541
ssI797
(dp542
I797
g2
ssI4895
(dp543
I4895
g2
ssI4896
(dp544
I4896
g2
ssI17187
(dp545
I17187
g2
ssI13094
(dp546
I13094
g2
ssI18908
(dp547
I18908
g2
ssI2863
(dp548
I3300
(I1
I1
tp549
sI2863
g2
ssI24801
(dp550
I24801
g2
ssI11066
(dp551
I11066
g2
ssI23860
(dp552
I23860
g2
ssI4924
(dp553
I4924
g2
ssI15165
(dp554
I15165
g2
ssI830
(dp555
I17928
(I1
I1
tp556
sI13600
(I1
I1
tp557
sI830
g2
sI21695
(I1
I1
tp558
ssI13119
(dp559
I13119
g2
ssI9025
(dp560
I9025
g2
ssI2885
(dp561
I2885
g2
ssI21644
(dp562
I21642
(I1
I1
tp563
ssI11082
(dp564
I11082
g2
ssI20621
(dp565
I20621
g2
ssI9040
(dp566
I9040
g2
ssI2898
(dp567
I2898
g2
ssI26083
(dp568
I26083
g2
ssI3214
(dp569
I3214
g2
ssI19286
(dp570
I19286
g2
ssI26425
(dp571
I14614
(I1
I1
tp572
ssI19288
(dp573
I19288
g2
ssI11098
(dp574
I11098
g2
ssI13147
(dp575
I13147
g2
sI13237
(I1
I1
tp576
sI22477
(I1
I1
tp577
ssI11100
(dp578
I11100
g2
ssI20078
(dp579
I20078
g2
ssI13150
(dp580
I13150
g2
ssI20965
(dp581
I20965
g2
ssI19296
(dp582
I19296
g2
ssI865
(dp583
I865
g2
ssI26427
(dp584
I26427
g2
ssI23396
(dp585
I23396
g2
ssI4966
(dp586
I4966
g2
ssI17255
(dp587
I17255
g2
ssI15210
(dp588
I15210
g2
ssI11115
(dp589
I11115
g2
ssI24784
(dp590
I24784
g2
ssI877
(dp591
I877
g2
ssI4975
(dp592
I4975
g2
ssI24716
(dp593
I24716
g2
ssI19124
(dp594
I19124
g2
ssI13173
(dp595
I13173
g2
ssI886
(dp596
I886
g2
sI12751
(I1
I1
tp597
ssI4988
(dp598
I4988
g2
ssI7044
(dp599
I7044
g2
sI2727
(I1
I1
tp600
ssI9094
(dp601
I2250
(I1
I1
tp602
sI9094
g2
ssI905
(dp603
I905
g2
ssI24785
(dp604
I24785
g2
ssI9099
(dp605
I9099
g2
ssI909
(dp606
I910
(I1
I1
tp607
ssI910
(dp608
I910
g2
ssI17295
(dp609
I17295
g2
ssI15251
(dp610
I4432
(I1
I1
tp611
sI15251
g2
ssI918
(dp612
I918
g2
ssI15255
(dp613
I1139
(I1
I1
tp614
sI15255
g2
ssI1860
(dp615
I1860
g2
ssI11162
(dp616
I11162
g2
ssI15259
(dp617
I1139
(I1
I1
tp618
sI15259
g2
ssI22126
(dp619
I22126
g2
ssI926
(dp620
I926
g2
ssI927
(dp621
I926
(I1
I1
tp622
ssI17313
(dp623
I17313
g2
ssI18937
(dp624
I18937
g2
ssI15268
(dp625
I15268
g2
ssI23461
(dp626
I23461
g2
ssI11176
(dp627
I11176
g2
ssI19612
(dp628
I4432
(I1
I1
tp629
sI19612
g2
ssI26439
(dp630
I26439
g2
ssI26098
(dp631
I26098
g2
ssI23472
(dp632
I23472
g2
ssI16200
(dp633
I16200
g2
sI11802
(I1
I1
tp634
ssI11186
(dp635
I11186
g2
sI2590
(I1
I1
tp636
ssI13237
(dp637
I13147
(I1
I1
tp638
sI13237
g2
ssI13238
(dp639
I13238
g2
ssI9147
(dp640
I9147
g2
ssI19274
(dp641
I19274
g2
ssI13247
(dp642
I13247
g2
ssI13472
(dp643
I4924
(I1
I1
tp644
ssI5059
(dp645
I5059
g2
sI5061
(I1
I1
tp646
ssI5061
(dp647
I5059
(I1
I1
tp648
sI5061
g2
ssI966
(dp649
I966
g2
ssI967
(dp650
I967
g2
ssI13256
(dp651
I13256
g2
sI6561
(I1
I1
tp652
ssI1527
(dp653
I1527
g2
ssI5069
(dp654
I5069
g2
ssI5070
(dp655
I5069
(I1
I1
tp656
ssI15312
(dp657
I15312
g2
ssI13267
(dp658
I13267
g2
ssI19413
(dp659
I19540
(I1
I1
tp660
sI19413
g2
ssI9175
(dp661
I9175
g2
ssI17572
(dp662
I17572
g2
ssI26447
(dp663
I26447
g2
ssI25566
(dp664
I3921
(I1
I1
tp665
ssI11429
(dp666
I11429
g2
ssI25568
(dp667
I3921
(I1
I1
tp668
ssI9185
(dp669
I9185
g2
ssI3042
(dp670
I3042
g2
ssI16209
(dp671
I16209
g2
ssI25576
(dp672
I25576
g2
ssI23111
(dp673
I23111
g2
ssI13292
(dp674
I13292
g2
ssI19437
(dp675
I19437
g2
ssI3055
(dp676
I3055
g2
ssI17576
(dp677
I17576
g2
ssI22355
(dp678
I22355
g2
ssI9205
(dp679
I9205
g2
ssI11254
(dp680
I11254
g2
ssI9211
(dp681
I11650
(I1
I1
tp682
sI9211
g2
ssI3074
(dp683
I3074
g2
ssI19460
(dp684
I19460
g2
ssI19461
(dp685
I19461
g2
ssI15369
(dp686
I15369
g2
sI15974
(I1
I1
tp687
ssI3082
(dp688
I3082
g2
ssI26426
(dp689
I26426
g2
ssI17421
(dp690
I17421
g2
ssI3086
(dp691
I3086
g2
ssI5136
(dp692
I5136
g2
ssI26456
(dp693
I26456
g2
ssI11287
(dp694
I11287
g2
ssI13338
(dp695
I13338
g2
ssI12805
(dp696
I12805
g2
ssI5156
(dp697
I5156
g2
ssI11301
(dp698
I11301
g2
ssI19130
(dp699
I19130
g2
ssI5160
(dp700
I5160
g2
ssI22023
(dp701
I22023
g2
ssI21548
(dp702
I21548
g2
ssI9262
(dp703
I9262
g2
ssI9263
(dp704
I9264
(I1
I1
tp705
ssI9264
(dp706
I9264
g2
sI21746
(I1
I1
tp707
ssI5171
(dp708
I5171
g2
ssI3125
(dp709
I17051
(I1
I1
tp710
sI17052
(I1
I1
tp711
sI3125
g2
sI17054
(I1
I1
tp712
ssI1081
(dp713
I1081
g2
ssI13370
(dp714
I13370
g2
ssI18954
(dp715
I18954
g2
ssI3134
(dp716
I3134
g2
ssI3136
(dp717
I3136
g2
ssI18955
(dp718
I18955
g2
ssI21572
(dp719
I20173
(I1
I1
tp720
ssI21578
(dp721
I21578
g2
ssI15544
(dp722
I15544
g2
ssI19540
(dp723
I19540
g2
sI19413
(I1
I1
tp724
ssI8493
(dp725
I8493
g2
ssI3159
(dp726
I3159
g2
ssI19609
(dp727
I4432
(I1
I1
tp728
sI19609
g2
ssI19545
(dp729
I19545
g2
ssI22031
(dp730
I22031
g2
ssI5214
(dp731
I5214
g2
ssI11367
(dp732
I11367
g2
ssI22389
(dp733
I22389
g2
ssI25706
(dp734
I25706
g2
ssI18279
(dp735
I18279
g2
ssI1139
(dp736
I1139
g2
sI15259
(I1
I1
tp737
sI15255
(I1
I1
tp738
ssI3188
(dp739
I3188
g2
ssI19575
(dp740
I19575
g2
ssI19577
(dp741
I19577
g2
ssI15482
(dp742
I15482
g2
ssI15485
(dp743
I15485
g2
ssI26133
(dp744
I26133
g2
ssI15552
(dp745
I15552
g2
ssI15490
(dp746
I15490
g2
ssI11396
(dp747
I11396
g2
sI1526
(I1
I1
tp748
ssI5254
(dp749
I22115
(I1
I1
tp750
sI5254
g2
ssI1160
(dp751
I1160
g2
ssI15498
(dp752
I15498
g2
ssI15499
(dp753
I15499
g2
ssI20720
(dp754
I20720
g2
sI11468
(I1
I1
tp755
ssI19597
(dp756
I19597
g2
ssI1166
(dp757
I1166
g2
ssI15503
(dp758
I15503
g2
ssI1169
(dp759
I1169
g2
ssI19603
(dp760
I19603
g2
ssI18243
(dp761
I18243
g2
ssI26226
(dp762
I26226
g2
ssI5272
(dp763
I5272
g2
ssI15513
(dp764
I15513
g2
ssI13167
(dp765
I13167
g2
ssI3228
(dp766
I3228
g2
ssI15517
(dp767
I15517
g2
ssI1182
(dp768
I1182
g2
ssI11424
(dp769
I11424
g2
ssI25761
(dp770
I10478
(I1
I1
tp771
ssI1186
(dp772
I1186
g2
ssI5284
(dp773
I5284
g2
ssI1189
(dp774
I1189
g2
sI14671
(I1
I1
tp775
ssI9384
(dp776
I9384
g2
ssI21675
(dp777
I21675
g2
ssI11436
(dp778
I11436
g2
ssI20021
(dp779
I4555
(I1
I1
tp780
sI20021
g2
ssI17566
(dp781
I19958
(I1
I1
tp782
sI17566
g2
ssI22045
(dp783
I22045
g2
ssI26413
(dp784
I26413
g2
ssI11447
(dp785
I11447
g2
ssI9400
(dp786
I9400
g2
sI4432
(I1
I1
tp787
ssI9404
(dp788
I9404
g2
ssI24778
(dp789
I24778
g2
ssI21695
(dp790
I830
(I1
I1
tp791
sI21695
g2
ssI9408
(dp792
I9408
g2
ssI19650
(dp793
I19650
g2
ssI24779
(dp794
I24779
g2
ssI17605
(dp795
I17605
g2
ssI14540
(dp796
I9601
(I1
I1
tp797
sI14540
g2
ssI25614
(dp798
I25614
g2
ssI11468
(dp799
I20720
(I1
I1
tp800
sI11468
g2
sI20237
(I1
I1
tp801
ssI21045
(dp802
I21045
g2
ssI3279
(dp803
I3279
g2
ssI25811
(dp804
I25811
g2
ssI9429
(dp805
I9429
g2
ssI5337
(dp806
I5337
g2
ssI5339
(dp807
I5339
g2
ssI9437
(dp808
I9437
g2
ssI15582
(dp809
I15582
g2
ssI19679
(dp810
I19679
g2
ssI208
(dp811
I208
g2
ssI3300
(dp812
I3300
g2
sI2863
(I1
I1
tp813
ssI21734
(dp814
I21734
g2
ssI15591
(dp815
I15591
g2
ssI25834
(dp816
I25834
g2
ssI18591
(dp817
I2590
(I1
I1
tp818
sI18591
g2
ssI4306
(dp819
I4306
g2
ssI13550
(dp820
I13550
g2
ssI9455
(dp821
I9455
g2
ssI19696
(dp822
I19696
g2
ssI19697
(dp823
I19697
g2
ssI17650
(dp824
I17650
g2
sI3382
(I1
I1
tp825
ssI3316
(dp826
I3316
g2
ssI17655
(dp827
I17655
g2
ssI9464
(dp828
I9464
g2
ssI21753
(dp829
I21753
g2
ssI17658
(dp830
I17658
g2
ssI11518
(dp831
I11518
g2
ssI1286
(dp832
I1286
g2
ssI16257
(dp833
I16257
g2
ssI8748
(dp834
I8748
g2
ssI15801
(dp835
I15801
g2
ssI9485
(dp836
I9485
g2
ssI21037
(dp837
I21037
g2
ssI25873
(dp838
I25873
g2
ssI18307
(dp839
I18307
g2
ssI25878
(dp840
I25878
g2
ssI15640
(dp841
I15640
g2
ssI26159
(dp842
I26159
g2
ssI5405
(dp843
I5405
g2
ssI13600
(dp844
I13600
g2
sI830
(I1
I1
tp845
ssI17286
(dp846
I17286
g2
ssI14774
(dp847
I14774
g2
ssI23850
(dp848
I12905
(I1
I1
tp849
ssI3371
(dp850
I3371
g2
ssI21804
(dp851
I21804
g2
ssI23856
(dp852
I3074
(I1
I1
tp853
ssI19762
(dp854
I19762
g2
ssI15667
(dp855
I15667
g2
ssI21812
(dp856
I21812
g2
ssI19678
(dp857
I19678
g2
ssI3382
(dp858
I12849
(I1
I1
tp859
sI17650
(I1
I1
tp860
sI3382
g2
sI2727
(I1
I1
tp861
ssI19767
(dp862
I19767
g2
ssI20020
(dp863
I20020
g2
ssI19770
(dp864
I19770
g2
ssI5438
(dp865
I5438
g2
ssI3391
(dp866
I3391
g2
ssI18326
(dp867
I18326
g2
ssI18656
(dp868
I18656
g2
ssI5442
(dp869
I5442
g2
ssI5447
(dp870
I5447
g2
ssI21832
(dp871
I21832
g2
ssI19958
(dp872
I283
(I1
I1
tp873
sI19958
g2
sI17566
(I1
I1
tp874
sI31
(I1
I1
tp875
ssI21836
(dp876
I21836
g2
ssI17741
(dp877
I17741
g2
ssI21838
(dp878
I21838
g2
ssI22413
(dp879
I16200
(I1
I1
tp880
ssI20024
(dp881
I20024
g2
ssI21844
(dp882
I21844
g2
ssI25943
(dp883
I25943
g2
ssI25828
(dp884
I25828
g2
ssI21851
(dp885
I21851
g2
ssI11834
(dp886
I18320
(I1
I1
tp887
sI11834
g2
ssI3422
(dp888
I3422
g2
ssI21855
(dp889
I21855
g2
ssI25952
(dp890
I25952
g2
ssI15713
(dp891
I15713
g2
ssI3429
(dp892
I3429
g2
ssI15722
(dp893
I15722
g2
ssI21867
(dp894
I21867
g2
ssI3438
(dp895
I3438
g2
ssI3439
(dp896
I3439
g2
ssI15730
(dp897
I15730
g2
ssI25972
(dp898
I25972
g2
sI20223
(I1
I1
tp899
ssI1398
(dp900
I1398
g2
ssI25006
(dp901
I18518
(I1
I1
tp902
ssI7544
(dp903
I7544
g2
ssI16959
(dp904
I16959
g2
ssI19834
(dp905
I19834
g2
ssI11839
(dp906
I11839
g2
ssI23933
(dp907
I15026
(I1
I1
tp908
ssI5502
(dp909
I5502
g2
ssI17791
(dp910
I17791
g2
ssI3457
(dp911
I3457
g2
ssI11650
(dp912
I11650
g2
sI9211
(I1
I1
tp913
ssI15747
(dp914
I15747
g2
ssI11158
(dp915
I11158
g2
ssI19846
(dp916
I19846
g2
ssI13703
(dp917
I13703
g2
ssI13704
(dp918
I13703
(I1
I1
tp919
ssI19850
(dp920
I19850
g2
ssI19693
(dp921
I19693
g2
ssI3473
(dp922
I3474
(I1
I1
tp923
ssI3474
(dp924
I3474
g2
ssI9619
(dp925
I9619
g2
ssI9620
(dp926
I9620
g2
ssI23958
(dp927
I23958
g2
ssI19864
(dp928
I19864
g2
ssI26180
(dp929
I26180
g2
ssI13723
(dp930
I13723
g2
ssI17822
(dp931
I17822
g2
ssI9631
(dp932
I9631
g2
ssI8432
(dp933
I8432
g2
ssI23972
(dp934
I10478
(I1
I1
tp935
ssI23974
(dp936
I23974
g2
ssI19883
(dp937
I19883
g2
ssI23980
(dp938
I23980
g2
ssI21746
(dp939
I9264
(I1
I1
tp940
sI21746
g2
ssI11694
(dp941
I11694
g2
ssI13748
(dp942
I13748
g2
ssI1950
(dp943
I1950
g2
ssI21943
(dp944
I21943
g2
ssI26040
(dp945
I26040
g2
ssI3513
(dp946
I3513
g2
ssI9659
(dp947
I9659
g2
ssI26052
(dp948
I26052
g2
ssI3526
(dp949
I3526
g2
ssI9672
(dp950
I9672
g2
ssI9673
(dp951
I9673
g2
ssI9674
(dp952
I9674
g2
ssI21751
(dp953
I21751
g2
ssI9676
(dp954
I9676
g2
ssI9677
(dp955
I9677
g2
ssI21966
(dp956
I21966
g2
ssI19919
(dp957
I19919
g2
ssI17872
(dp958
I17872
g2
ssI11512
(dp959
I11512
g2
ssI11733
(dp960
I11733
g2
ssI7638
(dp961
I7638
g2
ssI11736
(dp962
I11736
g2
ssI21977
(dp963
I21977
g2
ssI24873
(dp964
I24873
g2
ssI13790
(dp965
I13790
g2
ssI15840
(dp966
I15840
g2
ssI22096
(dp967
I22096
g2
ssI15843
(dp968
I15843
g2
ssI26086
(dp969
I26086
g2
ssI3559
(dp970
I3559
g2
ssI11752
(dp971
I11752
g2
ssI15849
(dp972
I15849
g2
ssI9706
(dp973
I9706
g2
ssI17903
(dp974
I1398
(I1
I1
tp975
ssI22000
(dp976
I22000
g2
ssI22002
(dp977
I22002
g2
sI9958
(I1
I1
tp978
ssI5619
(dp979
I5619
g2
ssI26100
(dp980
I26100
g2
ssI3574
(dp981
I3574
g2
ssI3575
(dp982
I3575
g2
ssI13817
(dp983
I13817
g2
ssI13821
(dp984
I13821
g2
ssI13822
(dp985
I13822
g2
ssI9727
(dp986
I9727
g2
ssI13825
(dp987
I13825
g2
ssI13826
(dp988
I13826
g2
ssI19971
(dp989
I19971
g2
ssI22020
(dp990
I22020
g2
ssI15958
(dp991
I15958
g2
ssI13831
(dp992
I13831
g2
ssI17928
(dp993
I17928
g2
sI830
(I1
I1
tp994
ssI22025
(dp995
I22025
g2
ssI3595
(dp996
I3595
g2
ssI13837
(dp997
I13837
g2
ssI7694
(dp998
I9601
(I1
I1
tp999
sI7694
g2
ssI13839
(dp1000
I13839
g2
ssI17937
(dp1001
I17937
g2
ssI22034
(dp1002
I22034
g2
ssI19988
(dp1003
I19988
g2
ssI13845
(dp1004
I13845
g2
ssI24153
(dp1005
I24153
g2
ssI13848
(dp1006
I13848
g2
ssI11802
(dp1007
I16200
(I1
I1
tp1008
sI11802
g2
ssI11804
(dp1009
I11804
g2
ssI15901
(dp1010
I3921
(I1
I1
tp1011
ssI26146
(dp1012
I26146
g2
ssI26147
(dp1013
I26147
g2
ssI26148
(dp1014
I26148
g2
ssI23033
(dp1015
I23033
g2
sI22506
(I1
I1
tp1016
ssI9767
(dp1017
I9767
g2
ssI26388
(dp1018
I3382
(I1
I1
tp1019
ssI13866
(dp1020
I13866
g2
ssI23815
(dp1021
I23815
g2
ssI13234
(dp1022
I13234
g2
ssI9774
(dp1023
I9774
g2
ssI11823
(dp1024
I11823
g2
ssI17969
(dp1025
I17969
g2
ssI20019
(dp1026
I20019
g2
ssI15924
(dp1027
I15924
g2
ssI3637
(dp1028
I8855
(I1
I1
tp1029
sI3637
g2
sI8775
(I1
I1
tp1030
ssI16649
(dp1031
I16649
g2
ssI5688
(dp1032
I5688
g2
ssI5690
(dp1033
I5690
g2
ssI9787
(dp1034
I9787
g2
ssI20215
(dp1035
I20215
g2
ssI17981
(dp1036
I17981
g2
ssI22353
(dp1037
I22353
g2
sI11893
(I1
I1
tp1038
ssI9791
(dp1039
I9791
g2
ssI14944
(dp1040
I14944
g2
sI12898
(I1
I1
tp1041
ssI3652
(dp1042
I3652
g2
ssI20038
(dp1043
I20038
g2
ssI26183
(dp1044
I26183
g2
ssI20040
(dp1045
I20040
g2
ssI20041
(dp1046
I20041
g2
ssI17994
(dp1047
I17994
g2
ssI26188
(dp1048
I26188
g2
ssI9805
(dp1049
I9805
g2
ssI3662
(dp1050
I3662
g2
ssI24845
(dp1051
I24846
(I1
I1
tp1052
ssI18000
(dp1053
I18000
g2
ssI25802
(dp1054
I25802
g2
ssI20052
(dp1055
I20052
g2
ssI3669
(dp1056
I3669
g2
ssI9814
(dp1057
I9814
g2
sI9815
(I1
I1
tp1058
ssI9815
(dp1059
I9814
(I1
I1
tp1060
sI9815
g2
ssI26241
(dp1061
I26241
g2
ssI20990
(dp1062
I20990
g2
ssI9818
(dp1063
I9818
g2
ssI15963
(dp1064
I15963
g2
ssI26173
(dp1065
I26173
g2
ssI9822
(dp1066
I9822
g2
ssI9825
(dp1067
I9825
g2
ssI22115
(dp1068
I22115
g2
sI5254
(I1
I1
tp1069
ssI22116
(dp1070
I22116
g2
ssI15974
(dp1071
I15369
(I1
I1
tp1072
sI15974
g2
ssI13927
(dp1073
I13927
g2
ssI24168
(dp1074
I24168
g2
ssI5738
(dp1075
I5738
g2
ssI9835
(dp1076
I9835
g2
ssI9838
(dp1077
I9838
g2
ssI5745
(dp1078
I5745
g2
ssI22130
(dp1079
I22130
g2
ssI21741
(dp1080
I21741
g2
ssI11893
(dp1081
I22353
(I1
I1
tp1082
sI11893
g2
ssI15991
(dp1083
I15991
g2
ssI22136
(dp1084
I22136
g2
ssI18041
(dp1085
I18041
g2
ssI26065
(dp1086
I26065
g2
ssI9851
(dp1087
I9851
g2
ssI9852
(dp1088
I9852
g2
ssI3712
(dp1089
I3712
g2
ssI18049
(dp1090
I18049
g2
ssI3716
(dp1091
I3716
g2
ssI19393
(dp1092
I19393
g2
ssI26249
(dp1093
I26249
g2
ssI3723
(dp1094
I3723
g2
sI15982
(I1
I1
tp1095
ssI9868
(dp1096
I9868
g2
ssI13965
(dp1097
I2250
(I1
I1
tp1098
ssI9874
(dp1099
I9874
g2
ssI5779
(dp1100
I5779
g2
ssI26260
(dp1101
I10066
(I1
I1
tp1102
ssI15982
(dp1103
I3723
(I1
I1
tp1104
sI15982
g2
ssI22179
(dp1105
I22179
g2
ssI20133
(dp1106
I20133
g2
ssI15303
(dp1107
I15303
g2
ssI3757
(dp1108
I3757
g2
ssI22191
(dp1109
I22191
g2
ssI24179
(dp1110
I24179
g2
ssI5812
(dp1111
I5812
g2
ssI22204
(dp1112
I11468
(I1
I1
tp1113
ssI16064
(dp1114
I16064
g2
ssI20161
(dp1115
I20161
g2
ssI20162
(dp1116
I20162
g2
ssI20107
(dp1117
I20107
g2
ssI18118
(dp1118
I18118
g2
ssI3783
(dp1119
I3783
g2
ssI5832
(dp1120
I5832
g2
ssI7885
(dp1121
I7885
g2
ssI22477
(dp1122
I13147
(I1
I1
tp1123
sI22477
g2
ssI7888
(dp1124
I7888
g2
ssI24184
(dp1125
I24184
g2
ssI16090
(dp1126
I16090
g2
ssI16091
(dp1127
I16091
g2
ssI24780
(dp1128
I24780
g2
ssI16094
(dp1129
I16094
g2
ssI16677
(dp1130
I16677
g2
ssI18144
(dp1131
I18144
g2
ssI14050
(dp1132
I14050
g2
ssI15198
(dp1133
I15198
g2
ssI18149
(dp1134
I18149
g2
ssI9958
(dp1135
I22002
(I1
I1
tp1136
sI9958
g2
ssI20200
(dp1137
I20200
g2
ssI3820
(dp1138
I3820
g2
ssI20207
(dp1139
I2345
(I1
I1
tp1140
sI20207
g2
ssI20208
(dp1141
I2345
(I1
I1
tp1142
ssI9969
(dp1143
I9969
g2
ssI20210
(dp1144
I2345
(I1
I1
tp1145
sI20210
g2
ssI3827
(dp1146
I3827
g2
ssI9973
(dp1147
I9973
g2
ssI6441
(dp1148
I6441
g2
ssI5880
(dp1149
I5880
g2
ssI20217
(dp1150
I20217
g2
sI2250
(I1
I1
tp1151
ssI20223
(dp1152
I25972
(I1
I1
tp1153
sI20223
g2
ssI23928
(dp1154
I23928
g2
ssI9987
(dp1155
I9987
g2
ssI24534
(dp1156
I24534
g2
ssI20230
(dp1157
I20230
g2
ssI20231
(dp1158
I20231
g2
ssI1800
(dp1159
I1800
g2
ssI18732
(dp1160
I18732
g2
ssI20234
(dp1161
I20234
g2
ssI1804
(dp1162
I1804
g2
ssI16141
(dp1163
I16141
g2
ssI20238
(dp1164
I20238
g2
ssI301
(dp1165
I301
g2
ssI20240
(dp1166
I20240
g2
ssI10001
(dp1167
I10001
g2
ssI20242
(dp1168
I20242
g2
ssI10004
(dp1169
I10004
g2
ssI10009
(dp1170
I10009
g2
ssI20783
(dp1171
I20783
g2
ssI3868
(dp1172
I3868
g2
ssI20255
(dp1173
I20255
g2
ssI14640
(dp1174
I14640
g2
ssI10018
(dp1175
I10018
g2
ssI20259
(dp1176
I20259
g2
ssI25667
(dp1177
I25667
g2
ssI3878
(dp1178
I2598
(I1
I1
tp1179
sI3878
g2
sI230
(I1
I1
tp1180
sI31
(I1
I1
tp1181
ssI16170
(dp1182
I16170
g2
ssI20269
(dp1183
I20269
g2
ssI15746
(dp1184
I15746
g2
sI22938
(I1
I1
tp1185
ssI26418
(dp1186
I26418
g2
ssI14133
(dp1187
I14133
g2
ssI10041
(dp1188
I10041
g2
ssI16186
(dp1189
I16186
g2
ssI18235
(dp1190
I18235
g2
ssI18684
(dp1191
I18684
g2
ssI14141
(dp1192
I14141
g2
ssI20286
(dp1193
I20286
g2
ssI22335
(dp1194
I22335
g2
ssI9867
(dp1195
I9868
(I1
I1
tp1196
ssI5956
(dp1197
I5956
g2
ssI15670
(dp1198
I15670
g2
ssI18246
(dp1199
I18246
g2
ssI1863
(dp1200
I1863
g2
ssI10056
(dp1201
I10056
g2
ssI16012
(dp1202
I16012
g2
ssI16203
(dp1203
I16203
g2
ssI14157
(dp1204
I14157
g2
ssI10063
(dp1205
I10063
g2
ssI17793
(dp1206
I17793
g2
ssI3921
(dp1207
I3921
g2
sI4324
(I1
I1
tp1208
ssI10066
(dp1209
I10066
g2
ssI18259
(dp1210
I14562
(I1
I1
tp1211
sI18259
g2
ssI18263
(dp1212
I18263
g2
ssI3928
(dp1213
I3928
g2
ssI20317
(dp1214
I20317
g2
ssI26462
(dp1215
I26462
g2
ssI3939
(dp1216
I3939
g2
sI2052
(I1
I1
tp1217
ssI25909
(dp1218
I25909
g2
ssI1894
(dp1219
I1894
g2
ssI1895
(dp1220
I1895
g2
ssI22844
(dp1221
I22844
g2
ssI22162
(dp1222
I22162
g2
ssI3951
(dp1223
I3951
g2
ssI20336
(dp1224
I20336
g2
ssI10100
(dp1225
I10100
g2
ssI21822
(dp1226
I21822
g2
ssI8055
(dp1227
I8055
g2
ssI25236
(dp1228
I25236
g2
ssI18300
(dp1229
I18300
g2
ssI24554
(dp1230
I24554
g2
ssI24448
(dp1231
I24448
g2
ssI1921
(dp1232
I1921
g2
ssI10115
(dp1233
I10115
g2
ssI20357
(dp1234
I20357
g2
ssI20358
(dp1235
I20358
g2
ssI20359
(dp1236
I20359
g2
ssI1929
(dp1237
I1929
g2
ssI24460
(dp1238
I24460
g2
ssI12173
(dp1239
I12173
g2
ssI18320
(dp1240
I18320
g2
sI11834
(I1
I1
tp1241
ssI22417
(dp1242
I22417
g2
ssI20371
(dp1243
I20371
g2
ssI3990
(dp1244
I3990
g2
ssI25241
(dp1245
I25241
g2
ssI16281
(dp1246
I16281
g2
ssI24475
(dp1247
I10478
(I1
I1
tp1248
ssI10142
(dp1249
I10142
g2
ssI25243
(dp1250
I25243
g2
ssI20389
(dp1251
I20389
g2
ssI22444
(dp1252
I22444
g2
ssI4014
(dp1253
I4014
g2
ssI24495
(dp1254
I24495
g2
ssI5862
(dp1255
I5862
g2
ssI15957
(dp1256
I15957
g2
ssI4025
(dp1257
I4025
g2
sI4026
(I1
I1
tp1258
sI4027
(I1
I1
tp1259
ssI4026
(dp1260
I4025
(I1
I1
tp1261
sI4026
g2
ssI4027
(dp1262
I4025
(I1
I1
tp1263
sI4027
g2
ssI20413
(dp1264
I20413
g2
ssI4031
(dp1265
I2746
(I1
I1
tp1266
sI4031
g2
ssI22464
(dp1267
I22464
g2
ssI14274
(dp1268
I14274
g2
ssI16323
(dp1269
I16323
g2
ssI22470
(dp1270
I22470
g2
ssI10914
(dp1271
I10914
g2
ssI24526
(dp1272
I24526
g2
ssI22481
(dp1273
I21040
(I1
I1
tp1274
ssI10194
(dp1275
I10194
g2
ssI4052
(dp1276
I4052
g2
ssI14293
(dp1277
I14293
g2
ssI18497
(dp1278
I18497
g2
ssI14295
(dp1279
I14295
g2
ssI24536
(dp1280
I24536
g2
ssI21156
(dp1281
I693
(I1
I1
tp1282
ssI20442
(dp1283
I20442
g2
ssI16719
(dp1284
I16719
g2
ssI20444
(dp1285
I20444
g2
ssI25253
(dp1286
I25253
g2
ssI20448
(dp1287
I20448
g2
ssI4068
(dp1288
I4068
g2
ssI2022
(dp1289
I2022
g2
sI2023
(I1
I1
tp1290
ssI2023
(dp1291
I2022
(I1
I1
tp1292
sI2023
g2
ssI20456
(dp1293
I20456
g2
ssI22506
(dp1294
I23033
(I1
I1
tp1295
sI22506
g2
ssI12967
(dp1296
I12967
g2
ssI20460
(dp1297
I20460
g2
ssI10222
(dp1298
I12512
(I1
I1
tp1299
sI10222
g2
ssI14320
(dp1300
I14320
g2
ssI18418
(dp1301
I18418
g2
ssI22515
(dp1302
I22515
g2
ssI22526
(dp1303
I22526
g2
ssI24566
(dp1304
I24566
g2
ssI18423
(dp1305
I18423
g2
ssI20472
(dp1306
I20472
g2
ssI4089
(dp1307
I4089
g2
ssI24571
(dp1308
I24571
g2
ssI10238
(dp1309
I10238
g2
ssI14335
(dp1310
I14335
g2
ss.