(dp0
I3589
(dp1
I3589
(I0
I1
tp2
ssI9222
(dp3
I941
(I1
I1
tp4
ssI9473
(dp5
I9473
g2
ssI9224
(dp6
I9224
g2
sI5043
(I1
I1
tp7
sI223
(I1
I1
tp8
ssI9225
(dp9
I9225
g2
sI5043
(I1
I1
tp10
ssI19466
(dp11
I3162
(I1
I1
tp12
sI19466
g2
ssI9227
(dp13
I5043
(I1
I1
tp14
ssI13570
(dp15
I13570
g2
sI223
(I1
I1
tp16
ssI12547
(dp17
I12547
g2
sI325
(I1
I1
tp18
ssI10774
(dp19
I10774
g2
ssI13657
(dp20
I13657
g2
ssI2074
(dp21
I2074
g2
ssI18974
(dp22
I437
(I1
I1
tp23
ssI12208
(dp24
I12208
g2
sI326
(I1
I1
tp25
ssI17954
(dp26
I17954
g2
sI14229
(I1
I1
tp27
ssI6491
(dp28
I224
(I1
I1
tp29
ssI20657
(dp30
I20657
g2
sI941
(I1
I1
tp31
ssI11824
(dp32
I11824
g2
ssI563
(dp33
I563
g2
sI223
(I2
I1
tp34
ssI19301
(dp35
I19301
g2
ssI15928
(dp36
I15928
g2
ssI9652
(dp37
I9652
g2
ssI25882
(dp38
I9697
(I1
I1
tp39
ssI6715
(dp40
I6715
g2
ssI1597
(dp41
I1597
g2
ssI15935
(dp42
I15935
g2
sI5838
(I1
I1
tp43
sI223
(I1
I1
tp44
ssI2112
(dp45
I2112
g2
ssI11024
(dp46
I11024
g2
ssI15371
(dp47
I15371
g2
ssI21060
(dp48
I21060
g2
ssI14689
(dp49
I14689
g2
sI941
(I1
I1
tp50
ssI591
(dp51
I223
(I1
I1
tp52
ssI9567
(dp53
I941
(I1
I1
tp54
sI9567
g2
ssI13907
(dp55
I13907
g2
sI223
(I1
I1
tp56
ssI5718
(dp57
I5718
g2
ssI9159
(dp58
I224
(I1
I1
tp59
sI9159
g2
ssI3160
(dp60
I3160
g2
ssI3162
(dp61
I3162
g2
sI19466
(I1
I1
tp62
sI12647
(I1
I1
tp63
ssI2143
(dp64
I2143
g2
ssI2145
(dp65
I2145
g2
sI13999
(I1
I1
tp66
ssI23398
(dp67
I10909
(I1
I1
tp68
sI23398
g2
ssI1127
(dp69
I941
(I1
I1
tp70
sI1127
g2
ssI15979
(dp71
I3840
(I1
I1
tp72
ssI4718
(dp73
I4718
g2
ssI6258
(dp74
I3535
(I1
I1
tp75
ssI5238
(dp76
I5238
g2
ssI9847
(dp77
I437
(I1
I1
tp78
sI9847
g2
ssI20671
(dp79
I941
(I1
I1
tp80
ssI2179
(dp81
I2179
g2
ssI2187
(dp82
I2187
g2
ssI145
(dp83
I145
g2
sI326
(I1
I1
tp84
ssI4247
(dp85
I4247
g2
ssI8347
(dp86
I8347
g2
ssI4252
(dp87
I4252
g2
ssI10909
(dp88
I10909
g2
sI23398
(I1
I1
tp89
ssI4256
(dp90
I4256
g2
sI437
(I1
I1
tp91
ssI3746
(dp92
I3746
g2
ssI4259
(dp93
I4259
g2
sI437
(I1
I1
tp94
ssI9158
(dp95
I224
(I1
I1
tp96
sI326
(I1
I1
tp97
ssI15527
(dp98
I15527
g2
ssI680
(dp99
I680
g2
sI223
(I1
I1
tp100
ssI8647
(dp101
I8647
g2
sI8646
(I1
I1
tp102
sI223
(I1
I1
tp103
ssI3756
(dp104
I3756
g2
sI941
(I1
I1
tp105
ssI13999
(dp106
I2145
(I1
I1
tp107
sI13999
g2
ssI10416
(dp108
I10416
g2
ssI18120
(dp109
I18120
g2
sI18121
(I1
I1
tp110
ssI23126
(dp111
I9697
(I1
I1
tp112
ssI9399
(dp113
I9399
g2
ssI20665
(dp114
I20665
g2
sI941
(I1
I1
tp115
sI223
(I1
I1
tp116
ssI10427
(dp117
I10427
g2
ssI20668
(dp118
I941
(I1
I1
tp119
ssI12149
(dp120
I12149
g2
ssI4289
(dp121
I4289
g2
sI6386
(I1
I1
tp122
sI941
(I1
I1
tp123
ssI8898
(dp124
I224
(I1
I1
tp125
sI8898
g2
ssI3272
(dp126
I3272
g2
ssI2249
(dp127
I2249
g2
ssI5834
(dp128
I5834
g2
ssI5838
(dp129
I21894
(I1
I1
tp130
sI5838
g2
sI15935
(I1
I1
tp131
ssI207
(dp132
I224
(I1
I1
tp133
sI207
g2
ssI6352
(dp134
I6352
g2
ssI8995
(dp135
I224
(I1
I1
tp136
ssI4934
(dp137
I4934
g2
sI3535
(I1
I1
tp138
ssI14669
(dp139
I3840
(I1
I1
tp140
ssI1240
(dp141
I1240
g2
ssI3291
(dp142
I224
(I1
I1
tp143
sI3291
g2
ssI2780
(dp144
I2780
g2
ssI8925
(dp145
I224
(I1
I1
tp146
sI8925
g2
ssI222
(dp147
I224
(I1
I1
tp148
sI222
g2
sI223
(I1
I1
tp149
ssI4831
(dp150
I224
(I1
I1
tp151
sI4831
g2
ssI5856
(dp152
I5856
g2
sI5857
(I1
I1
tp153
ssI5857
(dp154
I5856
(I1
I1
tp155
sI5857
g2
ssI11131
(dp156
I11131
g2
sI2355
(I1
I1
tp157
ssI229
(dp158
I224
(I1
I1
tp159
sI229
g2
ssI3305
(dp160
I3305
g2
ssI2282
(dp161
I2282
g2
sI24468
(I1
I1
tp162
ssI8939
(dp163
I224
(I1
I1
tp164
sI8939
g2
ssI8940
(dp165
I224
(I1
I1
tp166
sI8940
g2
ssI3821
(dp167
I3818
(I1
I1
tp168
ssI6386
(dp169
I4289
(I1
I1
tp170
sI6386
g2
ssI15094
(dp171
I941
(I1
I1
tp172
sI15094
g2
ssI8951
(dp173
I224
(I1
I1
tp174
sI8951
g2
ssI1272
(dp175
I1272
g2
sI223
(I1
I1
tp176
ssI8954
(dp177
I224
(I1
I1
tp178
sI8954
g2
ssI3837
(dp179
I3840
(I1
I1
tp180
sI3842
(I1
I1
tp181
sI3837
g2
ssI3840
(dp182
I3840
g2
sI3842
(I1
I1
tp183
sI3837
(I1
I1
tp184
ssI8961
(dp185
I224
(I1
I1
tp186
sI8961
g2
ssI3842
(dp187
I3840
(I1
I1
tp188
sI3842
g2
sI3837
(I1
I1
tp189
ssI4355
(dp190
I4355
g2
ssI25860
(dp191
I3162
(I1
I1
tp192
ssI3846
(dp193
I224
(I1
I1
tp194
sI3846
g2
ssI13733
(dp195
I13733
g2
ssI7946
(dp196
I7946
g2
sI326
(I1
I1
tp197
ssI7947
(dp198
I7947
g2
ssI3343
(dp199
I3343
g2
ssI8976
(dp200
I224
(I1
I1
tp201
sI223
(I1
I1
tp202
ssI9489
(dp203
I941
(I1
I1
tp204
ssI8978
(dp205
I224
(I1
I1
tp206
sI8978
g2
ssI2691
(dp207
I2691
g2
ssI13955
(dp208
I13955
g2
ssI3350
(dp209
I3350
g2
ssI2839
(dp210
I2839
g2
ssI3352
(dp211
I3352
g2
ssI2842
(dp212
I2842
g2
ssI2844
(dp213
I2844
g2
ssI9501
(dp214
I9501
g2
ssI3363
(dp215
I3363
g2
ssI21894
(dp216
I21894
g2
sI5838
(I1
I1
tp217
ssI9000
(dp218
I224
(I1
I1
tp219
sI9000
g2
ssI5418
(dp220
I5418
g2
ssI13100
(dp221
I13100
g2
sI326
(I1
I1
tp222
ssI9006
(dp223
I224
(I1
I1
tp224
ssI9010
(dp225
I224
(I1
I1
tp226
sI9010
g2
sI223
(I1
I1
tp227
ssI2355
(dp228
I224
(I1
I1
tp229
sI11131
(I1
I1
tp230
sI2355
g2
sI223
(I1
I1
tp231
ssI9016
(dp232
I224
(I1
I1
tp233
ssI7481
(dp234
I7481
g2
ssI12090
(dp235
I12090
g2
ssI223
(dp236
I13570
(I1
I1
tp237
sI9224
(I1
I1
tp238
sI3994
(I1
I1
tp239
sI17181
(I2
I1
tp240
sI680
(I1
I1
tp241
sI9642
(I1
I1
tp242
sI12445
(I1
I1
tp243
sI9010
(I1
I1
tp244
sI563
(I2
I1
tp245
sI20665
(I1
I1
tp246
sI828
(I1
I1
tp247
sI15935
(I1
I1
tp248
sI8647
(I1
I1
tp249
sI2355
(I1
I1
tp250
sI3535
(I1
I1
tp251
sI10232
(I1
I1
tp252
sI13907
(I1
I1
tp253
sI222
(I1
I1
tp254
sI223
g2
sI224
(I1
I1
tp255
sI14563
(I1
I1
tp256
sI1272
(I1
I1
tp257
ssI828
(dp258
I828
g2
sI223
(I1
I1
tp259
ssI9021
(dp260
I224
(I1
I1
tp261
sI9021
g2
ssI9626
(dp262
I9626
g2
ssI224
(dp263
I8961
(I1
I1
tp264
sI3846
(I1
I1
tp265
sI9068
(I1
I1
tp266
sI9098
(I1
I1
tp267
sI8978
(I1
I1
tp268
sI9113
(I1
I1
tp269
sI9115
(I1
I1
tp270
sI5043
(I1
I1
tp271
sI4955
(I1
I1
tp272
sI9000
(I1
I1
tp273
sI9159
(I1
I1
tp274
sI9132
(I1
I1
tp275
sI941
(I1
I1
tp276
sI17181
(I2
I1
tp277
sI9010
(I1
I1
tp278
sI2355
(I1
I1
tp279
sI9140
(I1
I1
tp280
sI4831
(I1
I1
tp281
sI9021
(I1
I1
tp282
sI8898
(I1
I1
tp283
sI9157
(I1
I1
tp284
sI326
(I1
I1
tp285
sI4039
(I1
I1
tp286
sI9061
(I1
I1
tp287
sI207
(I1
I1
tp288
sI9167
(I1
I1
tp289
sI9044
(I1
I1
tp290
sI9048
(I1
I1
tp291
sI9049
(I1
I1
tp292
sI3291
(I1
I1
tp293
sI8911
(I1
I1
tp294
sI8925
(I1
I1
tp295
sI222
(I1
I1
tp296
sI223
(I1
I1
tp297
sI224
g2
sI229
(I1
I1
tp298
sI8954
(I1
I1
tp299
sI8939
(I1
I1
tp300
sI8940
(I1
I1
tp301
sI9075
(I1
I1
tp302
sI8951
(I1
I1
tp303
sI8952
(I1
I1
tp304
sI9082
(I1
I1
tp305
sI9083
(I1
I1
tp306
ssI324
(dp307
I325
(I1
I1
tp308
sI326
(I1
I1
tp309
ssI325
(dp310
I3818
(I1
I1
tp311
sI12547
(I1
I1
tp312
sI325
g2
sI326
(I1
I1
tp313
ssI6470
(dp314
I13645
(I1
I1
tp315
sI6470
g2
ssI19425
(dp316
I19425
g2
sI437
(I1
I1
tp317
ssI3912
(dp318
I3912
g2
ssI15179
(dp319
I223
(I1
I1
tp320
ssI13645
(dp321
I13645
g2
sI6470
(I1
I1
tp322
ssI14563
(dp323
I14563
g2
sI223
(I1
I1
tp324
ssI5972
(dp325
I5972
g2
ssI15190
(dp326
I941
(I1
I1
tp327
sI15190
g2
ssI13625
(dp328
I13625
g2
ssI9048
(dp329
I224
(I1
I1
tp330
sI9048
g2
ssI9049
(dp331
I224
(I1
I1
tp332
sI9049
g2
ssI4955
(dp333
I224
(I1
I1
tp334
sI4955
g2
ssI18780
(dp335
I18780
g2
ssI8911
(dp336
I224
(I1
I1
tp337
sI8911
g2
ssI8933
(dp338
I224
(I1
I1
tp339
sI17181
(I1
I1
tp340
sI223
(I1
I1
tp341
ssI9057
(dp342
I224
(I1
I1
tp343
sI17181
(I2
I1
tp344
sI223
(I2
I1
tp345
ssI9061
(dp346
I224
(I1
I1
tp347
sI9061
g2
ssI9167
(dp348
I224
(I1
I1
tp349
sI9167
g2
ssI12647
(dp350
I3162
(I1
I1
tp351
sI12647
g2
ssI9576
(dp352
I9576
g2
ssI9066
(dp353
I224
(I1
I1
tp354
ssI9068
(dp355
I224
(I1
I1
tp356
sI9068
g2
ssI4463
(dp357
I4463
g2
ssI9075
(dp358
I224
(I1
I1
tp359
sI9075
g2
ssI4468
(dp360
I4468
g2
sI941
(I1
I1
tp361
ssI9589
(dp362
I9589
g2
ssI16247
(dp363
I16247
g2
ssI13689
(dp364
I223
(I1
I1
tp365
ssI9082
(dp366
I224
(I1
I1
tp367
sI9082
g2
ssI9083
(dp368
I224
(I1
I1
tp369
sI9083
g2
ssI3818
(dp370
I3818
g2
sI325
(I1
I1
tp371
ssI19839
(dp372
I19839
g2
ssI9088
(dp373
I224
(I1
I1
tp374
ssI17181
(dp375
I224
(I2
I1
tp376
sI17181
g2
sI223
(I2
I1
tp377
ssI18821
(dp378
I941
(I1
I1
tp379
ssI14214
(dp380
I14214
g2
ssI12168
(dp381
I12168
g2
ssI18668
(dp382
I18668
g2
ssI9098
(dp383
I224
(I1
I1
tp384
sI9098
g2
ssI14222
(dp385
I14222
g2
ssI9103
(dp386
I224
(I1
I1
tp387
sI223
(I1
I1
tp388
ssI18832
(dp389
I941
(I1
I1
tp390
ssI24468
(dp391
I2282
(I1
I1
tp392
sI24468
g2
ssI14229
(dp393
I17954
(I1
I1
tp394
sI14229
g2
ssI8598
(dp395
I8598
g2
sI326
(I1
I1
tp396
ssI9113
(dp397
I224
(I1
I1
tp398
sI9113
g2
ssI3994
(dp399
I3994
g2
sI326
(I1
I1
tp400
sI223
(I1
I1
tp401
ssI9115
(dp402
I224
(I1
I1
tp403
sI9115
g2
ssI9116
(dp404
I224
(I1
I1
tp405
ssI7578
(dp406
I7578
g2
ssI4511
(dp407
I4511
g2
ssI326
(dp408
I224
(I1
I1
tp409
sI325
(I1
I1
tp410
sI326
g2
sI7946
(I1
I1
tp411
sI13100
(I1
I1
tp412
sI12208
(I1
I1
tp413
sI145
(I1
I1
tp414
sI8598
(I1
I1
tp415
sI3994
(I1
I1
tp416
ssI13735
(dp417
I13735
g2
ssI19881
(dp418
I19881
g2
ssI9642
(dp419
I9642
g2
sI223
(I1
I1
tp420
ssI9132
(dp421
I224
(I1
I1
tp422
sI9132
g2
ssI941
(dp423
I224
(I1
I1
tp424
sI4289
(I1
I1
tp425
sI15094
(I1
I1
tp426
sI1127
(I1
I1
tp427
sI3756
(I1
I1
tp428
sI941
g2
sI14689
(I1
I1
tp429
sI20657
(I1
I1
tp430
sI4468
(I1
I1
tp431
sI15190
(I1
I1
tp432
sI9688
(I1
I1
tp433
sI20665
(I1
I1
tp434
sI16828
(I1
I1
tp435
sI9567
(I1
I1
tp436
ssI12445
(dp437
I12445
g2
sI223
(I1
I1
tp438
ssI8624
(dp439
I8624
g2
ssI5043
(dp440
I224
(I1
I1
tp441
sI9225
(I1
I1
tp442
sI5043
g2
sI9224
(I1
I1
tp443
ssI9140
(dp444
I224
(I1
I1
tp445
sI9140
g2
ssI437
(dp446
I4256
(I1
I1
tp447
sI19425
(I1
I1
tp448
sI4259
(I1
I1
tp449
sI14247
(I1
I1
tp450
sI437
g2
sI9847
(I1
I1
tp451
ssI8539
(dp452
I8539
g2
ssI18335
(dp453
I18335
g2
ssI16828
(dp454
I16828
g2
sI941
(I1
I1
tp455
ssI9157
(dp456
I224
(I1
I1
tp457
sI9157
g2
ssI8646
(dp458
I8646
g2
sI8647
(I1
I1
tp459
ssI4039
(dp460
I224
(I1
I1
tp461
sI4039
g2
ssI18121
(dp462
I18120
(I1
I1
tp463
sI18121
g2
ssI9378
(dp464
I9378
g2
ssI17358
(dp465
I17358
g2
sI3535
(I1
I1
tp466
ssI3535
(dp467
I13477
(I1
I1
tp468
sI3535
g2
sI17358
(I1
I1
tp469
sI4934
(I1
I1
tp470
sI223
(I1
I1
tp471
ssI8952
(dp472
I224
(I1
I1
tp473
sI8952
g2
ssI9683
(dp474
I563
(I1
I1
tp475
sI223
(I1
I1
tp476
ssI9688
(dp477
I9688
g2
sI941
(I1
I1
tp478
ssI25563
(dp479
I2145
(I1
I1
tp480
ssI13477
(dp481
I13477
g2
sI3535
(I1
I1
tp482
ssI9697
(dp483
I9697
g2
ssI2025
(dp484
I2025
g2
ssI14247
(dp485
I437
(I1
I1
tp486
sI14247
g2
ssI4077
(dp487
I4077
g2
ssI8984
(dp488
I224
(I1
I1
tp489
ssI4591
(dp490
I4591
g2
ssI10232
(dp491
I10232
g2
sI223
(I1
I1
tp492
ssI9044
(dp493
I224
(I1
I1
tp494
sI9044
g2
ssI9722
(dp495
I9722
g2
ssI25598
(dp496
I25598
g2
ss.