(dp0
I25856
(dp1
I25856
(I0
I1
tp2
sI6428
(I1
I1
tp3
ssI897
(dp4
I897
g2
sI20243
(I1
I1
tp5
ssI21252
(dp6
I712
(I1
I1
tp7
sI21252
g2
ssI17036
(dp8
I17036
g2
ssI11409
(dp9
I11409
g2
sI17772
(I1
I1
tp10
sI277
(I1
I1
tp11
sI14766
(I1
I1
tp12
sI14807
(I1
I1
tp13
ssI20243
(dp14
I897
(I1
I1
tp15
sI20243
g2
sI277
(I1
I1
tp16
ssI277
(dp17
I712
(I1
I1
tp18
sI11409
(I1
I1
tp19
sI20243
(I1
I1
tp20
sI277
g2
sI4447
(I1
I1
tp21
ssI16022
(dp22
I712
(I1
I1
tp23
sI16022
g2
ssI6428
(dp24
I712
(I1
I1
tp25
sI25856
(I1
I1
tp26
sI6428
g2
ssI4641
(dp27
I712
(I1
I1
tp28
sI4641
g2
ssI12579
(dp29
I712
(I1
I1
tp30
sI12579
g2
ssI10917
(dp31
I10917
g2
ssI14766
(dp32
I11409
(I1
I1
tp33
sI14766
g2
ssI2618
(dp34
I712
(I1
I1
tp35
sI2618
g2
ssI21438
(dp36
I712
(I1
I1
tp37
sI21438
g2
ssI19906
(dp38
I712
(I1
I1
tp39
sI337
(I1
I1
tp40
sI19906
g2
ssI712
(dp41
I4641
(I1
I1
tp42
sI19906
(I1
I1
tp43
sI12579
(I1
I1
tp44
sI21252
(I1
I1
tp45
sI16022
(I1
I1
tp46
sI712
g2
sI10863
(I1
I1
tp47
sI337
(I1
I1
tp48
sI2900
(I1
I1
tp49
sI277
(I1
I1
tp50
sI13012
(I1
I1
tp51
sI15321
(I1
I1
tp52
sI10874
(I1
I1
tp53
sI6428
(I1
I1
tp54
sI2618
(I1
I1
tp55
sI21438
(I1
I1
tp56
ssI5964
(dp57
I5964
g2
ssI19792
(dp58
I19792
g2
ssI337
(dp59
I19906
(I1
I1
tp60
sI712
(I1
I1
tp61
sI6370
(I1
I1
tp62
sI21038
(I1
I1
tp63
sI10863
(I1
I1
tp64
sI337
g2
sI15995
(I1
I1
tp65
ssI2900
(dp66
I712
(I1
I1
tp67
sI2900
g2
ssI14807
(dp68
I11409
(I1
I1
tp69
sI14807
g2
ssI15321
(dp70
I712
(I1
I1
tp71
sI15321
g2
ssI9308
(dp72
I6428
(I1
I1
tp73
ssI15994
(dp74
I337
(I1
I1
tp75
sI15995
(I1
I1
tp76
ssI4447
(dp77
I277
(I1
I1
tp78
sI4447
g2
ssI6370
(dp79
I337
(I1
I1
tp80
sI6370
g2
ssI17772
(dp81
I11409
(I1
I1
tp82
sI17772
g2
ssI6638
(dp83
I6638
g2
ssI10863
(dp84
I712
(I1
I1
tp85
sI337
(I1
I1
tp86
sI10863
g2
ssI14965
(dp87
I2900
(I1
I1
tp88
ssI13012
(dp89
I712
(I1
I1
tp90
sI13012
g2
ssI10874
(dp91
I712
(I1
I1
tp92
sI10874
g2
ssI15995
(dp93
I337
(I1
I1
tp94
sI15995
g2
ssI21038
(dp95
I337
(I1
I1
tp96
sI21038
g2
ssI23166
(dp97
I2618
(I1
I1
tp98
ss.