(dp0
I6147
(dp1
I6147
(I0
I1
tp2
ssI22534
(dp3
I733
(I1
I1
tp4
ssI10247
(dp5
I10247
g2
ssI2057
(dp6
I2057
g2
ssI685
(dp7
I685
g2
ssI14355
(dp8
I296
(I1
I1
tp9
sI14355
g2
sI8661
(I1
I1
tp10
ssI1714
(dp11
I1714
g2
ssI2111
(dp12
I2111
g2
ssI10313
(dp13
I21009
(I1
I1
tp14
sI10313
g2
ssI22606
(dp15
I22606
g2
ssI14435
(dp16
I2967
(I1
I1
tp17
ssI14441
(dp18
I14441
g2
ssI4207
(dp19
I4207
g2
ssI10365
(dp20
I10365
g2
ssI8322
(dp21
I8322
g2
ssI22661
(dp22
I679
(I1
I1
tp23
ssI22663
(dp24
I22663
g2
sI679
(I1
I1
tp25
ssI16526
(dp26
I16526
g2
sI679
(I1
I1
tp27
ssI18577
(dp28
I18577
g2
ssI6296
(dp29
I6296
g2
ssI2204
(dp30
I2204
g2
ssI22687
(dp31
I679
(I1
I1
tp32
ssI2208
(dp33
I2204
(I1
I1
tp34
ssI18599
(dp35
I18599
g2
ssI24748
(dp36
I24748
g2
ssI6335
(dp37
I6335
g2
ssI16580
(dp38
I16580
g2
ssI2247
(dp39
I2247
g2
ssI10441
(dp40
I10441
g2
sI733
(I1
I1
tp41
ssI10442
(dp42
I10442
g2
ssI16594
(dp43
I16594
g2
ssI14548
(dp44
I14548
g2
ssI6361
(dp45
I6361
g2
sI963
(I1
I1
tp46
ssI20711
(dp47
I2774
(I1
I1
tp48
sI20711
g2
ssI24812
(dp49
I24812
g2
ssI20719
(dp50
I20719
g2
ssI6389
(dp51
I963
(I1
I1
tp52
sI6389
g2
ssI24823
(dp53
I24823
g2
ssI22782
(dp54
I22782
g2
ssI14594
(dp55
I14594
g2
ssI13014
(dp56
I13014
g2
ssI20745
(dp57
I20745
g2
ssI24843
(dp58
I24843
g2
sI733
(I1
I1
tp59
ssI14040
(dp60
I3130
(I1
I1
tp61
ssI12565
(dp62
I12565
g2
ssI18714
(dp63
I306
(I1
I1
tp64
ssI14621
(dp65
I14621
g2
ssI20767
(dp66
I20767
g2
ssI16676
(dp67
I16676
g2
ssI295
(dp68
I296
(I1
I1
tp69
sI295
g2
ssI296
(dp70
I296
g2
sI16145
(I1
I1
tp71
sI16154
(I1
I1
tp72
sI14355
(I1
I1
tp73
sI295
(I1
I1
tp74
ssI8492
(dp75
I8492
g2
ssI733
(dp76
I24843
(I1
I1
tp77
sI23141
(I1
I1
tp78
sI10054
(I1
I1
tp79
sI10441
(I1
I1
tp80
sI9323
(I1
I1
tp81
sI1907
(I1
I1
tp82
sI733
g2
sI18142
(I1
I1
tp83
ssI304
(dp84
I304
g2
ssI6450
(dp85
I6450
g2
ssI14644
(dp86
I14644
g2
ssI4407
(dp87
I9123
(I1
I1
tp88
sI4407
g2
ssI22843
(dp89
I22843
g2
ssI16706
(dp90
I16706
g2
ssI12615
(dp91
I12615
g2
ssI18768
(dp92
I18768
g2
ssI20820
(dp93
I4407
(I1
I1
tp94
ssI4439
(dp95
I4439
g2
ssI8546
(dp96
I8546
g2
ssI20847
(dp97
I20847
g2
ssI8562
(dp98
I8562
g2
ssI18807
(dp99
I18807
g2
ssI20864
(dp100
I20864
g2
ssI18820
(dp101
I18820
g2
ssI8593
(dp102
I8593
g2
ssI8606
(dp103
I8606
g2
ssI12704
(dp104
I12704
g2
ssI24996
(dp105
I10834
(I1
I1
tp106
ssI18853
(dp107
I5064
(I1
I1
tp108
sI18853
g2
ssI14760
(dp109
I14760
g2
ssI2480
(dp110
I2480
g2
ssI20919
(dp111
I20919
g2
ssI440
(dp112
I440
g2
ssI20922
(dp113
I20922
g2
ssI10683
(dp114
I10683
g2
ssI25021
(dp115
I560
(I1
I1
tp116
ssI25022
(dp117
I560
(I1
I1
tp118
sI2531
(I1
I1
tp119
sI25022
g2
ssI25024
(dp120
I560
(I1
I1
tp121
sI25024
g2
ssI25025
(dp122
I560
(I1
I1
tp123
ssI25027
(dp124
I560
(I1
I1
tp125
ssI25028
(dp126
I560
(I1
I1
tp127
sI8981
(I1
I1
tp128
ssI20940
(dp129
I20940
g2
sI5446
(I1
I1
tp130
ssI11682
(dp131
I11682
g2
ssI8654
(dp132
I8654
g2
ssI20945
(dp133
I20945
g2
sI3533
(I1
I1
tp134
ssI8661
(dp135
I14355
(I1
I1
tp136
sI8661
g2
ssI20950
(dp137
I20950
g2
ssI18904
(dp138
I18904
g2
ssI18906
(dp139
I18906
g2
ssI12769
(dp140
I12769
g2
sI6036
(I1
I1
tp141
ssI2531
(dp142
I560
(I1
I1
tp143
sI2531
g2
sI25022
(I1
I1
tp144
sI5830
(I1
I1
tp145
ssI10736
(dp146
I10736
g2
ssI8696
(dp147
I8696
g2
ssI20995
(dp148
I20995
g2
ssI20999
(dp149
I20999
g2
ssI14857
(dp150
I14857
g2
ssI16911
(dp151
I19687
(I1
I1
tp152
sI16911
g2
ssI16912
(dp153
I16912
g2
sI679
(I1
I1
tp154
ssI21009
(dp155
I21009
g2
sI10313
(I1
I1
tp156
ssI12818
(dp157
I12818
g2
ssI8726
(dp158
I8726
g2
ssI12823
(dp159
I12823
g2
ssI4639
(dp160
I4639
g2
ssI21024
(dp161
I21024
g2
sI2607
(I1
I1
tp162
ssI4642
(dp163
I4642
g2
ssI12844
(dp164
I12844
g2
ssI2607
(dp165
I21024
(I1
I1
tp166
sI2607
g2
ssI560
(dp167
I25024
(I1
I1
tp168
sI9634
(I1
I1
tp169
sI2531
(I1
I1
tp170
sI9925
(I1
I1
tp171
sI22088
(I1
I1
tp172
sI24137
(I1
I1
tp173
sI560
g2
sI8981
(I2
I1
tp174
sI18230
(I1
I1
tp175
sI18204
(I1
I1
tp176
sI25022
(I1
I1
tp177
ssI581
(dp178
I581
g2
ssI10832
(dp179
I10832
g2
sI679
(I1
I1
tp180
ssI4690
(dp181
I4690
g2
sI4693
(I1
I1
tp182
ssI4693
(dp183
I4690
(I1
I1
tp184
sI4693
g2
ssI16982
(dp185
I16982
g2
ssI8795
(dp186
I8795
g2
ssI14941
(dp187
I14941
g2
ssI21092
(dp188
I21092
g2
ssI23141
(dp189
I733
(I1
I1
tp190
sI23141
g2
ssI17006
(dp191
I17006
g2
ssI14969
(dp192
I14969
g2
ssI14971
(dp193
I14971
g2
ssI644
(dp194
I644
g2
ssI10887
(dp195
I10887
g2
ssI4747
(dp196
I3944
(I1
I1
tp197
sI4747
g2
ssI10893
(dp198
I10893
g2
ssI8849
(dp199
I8849
g2
ssI2710
(dp200
I2710
g2
sI5239
(I1
I1
tp201
ssI8857
(dp202
I8857
g2
ssI25245
(dp203
I25245
g2
ssI23199
(dp204
I560
(I1
I1
tp205
ssI17058
(dp206
I17058
g2
ssI679
(dp207
I10832
(I1
I1
tp208
sI22663
(I1
I1
tp209
sI679
g2
sI13741
(I1
I1
tp210
sI16526
(I1
I1
tp211
sI16912
(I1
I1
tp212
sI21362
(I1
I1
tp213
ssI681
(dp214
I681
g2
ssI4781
(dp215
I4781
g2
sI19566
(I1
I1
tp216
ssI21168
(dp217
I10219
(I1
I1
tp218
ssI4793
(dp219
I4793
g2
ssI19141
(dp220
I19141
g2
ssI15046
(dp221
I15046
g2
ssI10951
(dp222
I10951
g2
ssI8908
(dp223
I8908
g2
ssI21202
(dp224
I21202
g2
ssI2774
(dp225
I2774
g2
sI20711
(I1
I1
tp226
ssI21207
(dp227
I21207
g2
ssI4825
(dp228
I18192
(I1
I1
tp229
sI4825
g2
ssI25306
(dp230
I25306
g2
ssI1146
(dp231
I1146
g2
ssI13023
(dp232
I13023
g2
ssI2788
(dp233
I11513
(I1
I1
tp234
sI2788
g2
ssI18897
(dp235
I817
(I1
I1
tp236
sI18897
g2
ssI21224
(dp237
I21224
g2
sI9980
(I1
I1
tp238
ssI19184
(dp239
I19184
g2
ssI15090
(dp240
I15090
g2
ssI755
(dp241
I755
g2
ssI2806
(dp242
I2806
g2
ssI761
(dp243
I761
g2
ssI21243
(dp244
I21243
g2
ssI4862
(dp245
I4862
g2
ssI25353
(dp246
I817
(I1
I1
tp247
sI25353
g2
ssI21262
(dp248
I21262
g2
ssI787
(dp249
I787
g2
ssI8980
(dp250
I8980
g2
ssI8981
(dp251
I560
(I2
I1
tp252
sI8981
g2
ssI21270
(dp253
I21270
g2
ssI13080
(dp254
I13080
g2
ssI8985
(dp255
I8985
g2
ssI4890
(dp256
I4890
g2
ssI11038
(dp257
I11038
g2
ssI25376
(dp258
I25376
g2
ssI21281
(dp259
I21281
g2
ssI21284
(dp260
I21284
g2
ssI11046
(dp261
I11046
g2
ssI21287
(dp262
I21287
g2
ssI21296
(dp263
I21296
g2
ssI817
(dp264
I817
g2
sI13618
(I1
I1
tp265
sI18897
(I1
I1
tp266
sI25353
(I1
I1
tp267
ssI21298
(dp268
I21298
g2
ssI9013
(dp269
I9013
g2
ssI9014
(dp270
I14292
(I1
I1
tp271
sI9014
g2
ssI825
(dp272
I825
g2
sI5135
(I1
I1
tp273
ssI21308
(dp274
I21308
g2
ssI21310
(dp275
I21310
g2
ssI9023
(dp276
I9023
g2
ssI21317
(dp277
I21317
g2
ssI21323
(dp278
I21323
g2
ssI21324
(dp279
I21324
g2
ssI1506
(dp280
I1506
g2
ssI3165
(dp281
I3165
g2
ssI21327
(dp282
I21327
g2
ssI2902
(dp283
I2902
g2
ssI21341
(dp284
I21341
g2
ssI11111
(dp285
I11111
g2
ssI21355
(dp286
I21355
g2
ssI15212
(dp287
I296
(I1
I1
tp288
ssI21362
(dp289
I21362
g2
sI679
(I1
I1
tp290
ssI21363
(dp291
I21363
g2
ssI21364
(dp292
I21364
g2
ssI21365
(dp293
I21365
g2
ssI21367
(dp294
I21367
g2
ssI21369
(dp295
I21369
g2
ssI4989
(dp296
I4989
g2
ssI21376
(dp297
I21376
g2
ssI21377
(dp298
I21377
g2
ssI898
(dp299
I898
g2
ssI21380
(dp300
I21380
g2
ssI904
(dp301
I904
g2
ssI11147
(dp302
I11147
g2
ssI13196
(dp303
I13196
g2
ssI21391
(dp304
I21391
g2
ssI913
(dp305
I913
g2
sI1570
(I1
I1
tp306
ssI21394
(dp307
I21394
g2
ssI17299
(dp308
I17299
g2
ssI2967
(dp309
I2967
g2
ssI21408
(dp310
I21408
g2
ssI9123
(dp311
I9123
g2
sI4407
(I1
I1
tp312
ssI21423
(dp313
I21423
g2
ssI25521
(dp314
I733
(I1
I1
tp315
ssI9138
(dp316
I9138
g2
ssI21428
(dp317
I21428
g2
ssI950
(dp318
I950
g2
ssI11191
(dp319
I11191
g2
sI9903
(I1
I1
tp320
ssI21432
(dp321
I21432
g2
ssI21437
(dp322
I21437
g2
ssI17345
(dp323
I17345
g2
ssI15299
(dp324
I15299
g2
ssI5063
(dp325
I5064
(I1
I1
tp326
sI5063
g2
ssI5064
(dp327
I5064
g2
sI18853
(I1
I1
tp328
sI5063
(I1
I1
tp329
ssI21325
(dp330
I21325
g2
ssI5072
(dp331
I5072
g2
ssI980
(dp332
I980
g2
ssI13277
(dp333
I5108
(I1
I1
tp334
ssI9186
(dp335
I3410
(I2
I1
tp336
sI9186
g2
ssI9187
(dp337
I3410
(I1
I1
tp338
sI9186
(I1
I1
tp339
ssI21478
(dp340
I21478
g2
ssI26451
(dp341
I26451
g2
ssI5108
(dp342
I5108
g2
ssI21507
(dp343
I21507
g2
ssI5135
(dp344
I825
(I1
I1
tp345
sI5135
g2
ssI25620
(dp346
I733
(I1
I1
tp347
ssI21528
(dp348
I21528
g2
ssI13340
(dp349
I13340
g2
ssI3130
(dp350
I3130
g2
ssI3132
(dp351
I3132
g2
ssI11331
(dp352
I11331
g2
ssI1099
(dp353
I1099
g2
ssI3155
(dp354
I3155
g2
ssI17493
(dp355
I17493
g2
ssI1117
(dp356
I1117
g2
ssI23646
(dp357
I23646
g2
ssI5217
(dp358
I5217
g2
ssI9315
(dp359
I9315
g2
ssI21606
(dp360
I21606
g2
ssI5223
(dp361
I5223
g2
ssI5226
(dp362
I5226
g2
ssI9323
(dp363
I9323
g2
sI733
(I1
I1
tp364
ssI19566
(dp365
I4781
(I1
I1
tp366
sI19566
g2
ssI1140
(dp367
I1140
g2
ssI1141
(dp368
I1140
(I1
I1
tp369
ssI5239
(dp370
I2710
(I1
I1
tp371
sI5239
g2
ssI7290
(dp372
I7290
g2
ssI25742
(dp373
I25742
g2
ssI1175
(dp374
I1175
g2
ssI1179
(dp375
I1179
g2
ssI1184
(dp376
I1184
g2
ssI17577
(dp377
I17577
g2
sI306
(I1
I1
tp378
ssI25779
(dp379
I25779
g2
ssI15550
(dp380
I15550
g2
ssI1220
(dp381
I1220
g2
ssI5327
(dp382
I5327
g2
ssI13522
(dp383
I13522
g2
ssI17624
(dp384
I17624
g2
ssI19680
(dp385
I19680
g2
ssI3302
(dp386
I3302
g2
ssI19687
(dp387
I19687
g2
sI16911
(I1
I1
tp388
ssI17645
(dp389
I3925
(I1
I1
tp390
sI17645
g2
ssI21373
(dp391
I21373
g2
ssI15604
(dp392
I15604
g2
ssI11513
(dp393
I11513
g2
sI2788
(I1
I1
tp394
ssI19707
(dp395
I19707
g2
ssI17661
(dp396
I17661
g2
ssI13574
(dp397
I13574
g2
ssI21036
(dp398
I21036
g2
ssI25868
(dp399
I733
(I1
I1
tp400
ssI5403
(dp401
I5403
g2
ssI17701
(dp402
I17701
g2
ssI9515
(dp403
I9515
g2
ssI13618
(dp404
I817
(I1
I1
tp405
sI13618
g2
ssI5429
(dp406
I5429
g2
ssI5430
(dp407
I3925
(I1
I1
tp408
ssI15676
(dp409
I15676
g2
ssI5437
(dp410
I5437
g2
ssI5446
(dp411
I20940
(I1
I1
tp412
sI5446
g2
ssI9546
(dp413
I9546
g2
ssI9548
(dp414
I9548
g2
ssI23885
(dp415
I23885
g2
ssI3410
(dp416
I9961
(I2
I1
tp417
sI3410
g2
sI9186
(I2
I1
tp418
ssI17759
(dp419
I17759
g2
ssI13672
(dp420
I13672
g2
ssI9604
(dp421
I9604
g2
ssI21895
(dp422
I21895
g2
ssI15760
(dp423
I15760
g2
ssI17813
(dp424
I17813
g2
ssI9634
(dp425
I560
(I1
I1
tp426
sI9634
g2
ssI23979
(dp427
I23979
g2
ssI13741
(dp428
I13741
g2
sI679
(I1
I1
tp429
ssI26031
(dp430
I26031
g2
ssI5027
(dp431
I5027
g2
ssI19904
(dp432
I19904
g2
ssI24001
(dp433
I24001
g2
ssI9667
(dp434
I9667
g2
ssI24006
(dp435
I24006
g2
ssI3532
(dp436
I3532
g2
sI3533
(I1
I1
tp437
ssI3533
(dp438
I5848
(I1
I1
tp439
sI20945
(I1
I1
tp440
sI3532
(I1
I1
tp441
sI3533
g2
sI6421
(I1
I1
tp442
ssI11731
(dp443
I11731
g2
ssI1497
(dp444
I1497
g2
sI1498
(I1
I1
tp445
ssI1498
(dp446
I1497
(I1
I1
tp447
sI1498
g2
ssI3554
(dp448
I3554
g2
ssI13797
(dp449
I13797
g2
ssI19944
(dp450
I19944
g2
ssI19948
(dp451
I817
(I1
I1
tp452
ssI10834
(dp453
I10834
g2
ssI22004
(dp454
I22004
g2
ssI9719
(dp455
I9719
g2
ssI19964
(dp456
I19964
g2
ssI9725
(dp457
I9725
g2
ssI9728
(dp458
I9728
g2
ssI19974
(dp459
I19974
g2
ssI1544
(dp460
I1544
g2
ssI22030
(dp461
I22030
g2
ssI1562
(dp462
I1562
g2
ssI1563
(dp463
I1563
g2
sI1564
(I1
I1
tp464
ssI1564
(dp465
I1563
(I1
I1
tp466
sI1564
g2
ssI1570
(dp467
I913
(I1
I1
tp468
sI1570
g2
ssI9777
(dp469
I9777
g2
ssI9783
(dp470
I9783
g2
ssI26172
(dp471
I12769
(I1
I1
tp472
ssI15936
(dp473
I15936
g2
ssI22088
(dp474
I560
(I1
I1
tp475
sI22088
g2
ssI24137
(dp476
I560
(I1
I1
tp477
sI24137
g2
ssI20047
(dp478
I20047
g2
ssI13909
(dp479
I13909
g2
ssI9826
(dp480
I9826
g2
ssI15971
(dp481
I15971
g2
ssI24167
(dp482
I24167
g2
ssI22124
(dp483
I22124
g2
ssI6421
(dp484
I3533
(I1
I1
tp485
sI6421
g2
ssI1666
(dp486
I1666
g2
ssI18052
(dp487
I18052
g2
ssI23489
(dp488
I23489
g2
ssI26258
(dp489
I733
(I1
I1
tp490
ssI963
(dp491
I6361
(I1
I1
tp492
sI963
g2
sI6389
(I1
I1
tp493
ssI18082
(dp494
I18082
g2
ssI20134
(dp495
I20134
g2
ssI5805
(dp496
I5805
g2
ssI9903
(dp497
I11191
(I1
I1
tp498
sI9903
g2
ssI3762
(dp499
I3762
g2
sI3763
(I1
I1
tp500
ssI3763
(dp501
I3762
(I1
I1
tp502
sI3763
g2
ssI1716
(dp503
I1716
g2
ssI14012
(dp504
I14012
g2
ssI9925
(dp505
I560
(I1
I1
tp506
sI9925
g2
ssI5830
(dp507
I2531
(I1
I1
tp508
sI5830
g2
ssI16073
(dp509
I16073
g2
ssI20170
(dp510
I20170
g2
ssI14031
(dp511
I4407
(I1
I1
tp512
ssI16080
(dp513
I16080
g2
ssI3793
(dp514
I3793
g2
ssI14038
(dp515
I14038
g2
ssI5848
(dp516
I5848
g2
sI10008
(I1
I1
tp517
sI3533
(I1
I1
tp518
ssI21455
(dp519
I21455
g2
ssI18142
(dp520
I733
(I1
I1
tp521
sI18142
g2
ssI9955
(dp522
I9955
g2
ssI9961
(dp523
I9961
g2
sI3410
(I2
I1
tp524
ssI1491
(dp525
I1491
g2
ssI22484
(dp526
I22484
g2
ssI9980
(dp527
I21224
(I1
I1
tp528
sI9980
g2
ssI20222
(dp529
I20222
g2
ssI18189
(dp530
I18189
g2
ssI18192
(dp531
I18192
g2
sI4825
(I1
I1
tp532
ssI16145
(dp533
I296
(I1
I1
tp534
sI16145
g2
ssI10007
(dp535
I10007
g2
ssI10008
(dp536
I5848
(I1
I1
tp537
sI10008
g2
sI10047
(I1
I1
tp538
ssI16154
(dp539
I296
(I1
I1
tp540
sI16154
g2
ssI18204
(dp541
I560
(I1
I1
tp542
sI18204
g2
ssI20253
(dp543
I20253
g2
ssI20257
(dp544
I20257
g2
sI3925
(I1
I1
tp545
ssI10022
(dp546
I10022
g2
ssI23175
(dp547
I23175
g2
ssI306
(dp548
I17577
(I1
I1
tp549
sI306
g2
ssI10031
(dp550
I10031
g2
ssI18230
(dp551
I560
(I1
I1
tp552
sI18230
g2
ssI14137
(dp553
I9961
(I1
I1
tp554
sI3410
(I1
I1
tp555
ssI10047
(dp556
I10008
(I1
I1
tp557
sI10047
g2
ssI10054
(dp558
I733
(I1
I1
tp559
sI10054
g2
ssI10067
(dp560
I10067
g2
ssI3925
(dp561
I20257
(I1
I1
tp562
sI3925
g2
sI17645
(I1
I1
tp563
ssI18265
(dp564
I679
(I1
I1
tp565
ssI3944
(dp566
I3944
g2
sI4747
(I1
I1
tp567
ssI3947
(dp568
I3947
g2
ssI10092
(dp569
I10092
g2
ssI3950
(dp570
I3950
g2
ssI1907
(dp571
I1907
g2
sI733
(I1
I1
tp572
ssI18304
(dp573
I18304
g2
ssI6036
(dp574
I12769
(I1
I1
tp575
sI6036
g2
ssI1942
(dp576
I1942
g2
ssI6044
(dp577
I6044
g2
ssI4002
(dp578
I4002
g2
ssI6052
(dp579
I6052
g2
ssI16293
(dp580
I16293
g2
ssI18354
(dp581
I18354
g2
ssI6067
(dp582
I6067
g2
ssI16321
(dp583
I16321
g2
ssI22468
(dp584
I22468
g2
ssI10187
(dp585
I10187
g2
ssI2003
(dp586
I2003
g2
ssI14292
(dp587
I14292
g2
sI9014
(I1
I1
tp588
ssI22486
(dp589
I22486
g2
ssI4058
(dp590
I4058
g2
ssI24544
(dp591
I24544
g2
ssI4066
(dp592
I4066
g2
ssI10219
(dp593
I10219
g2
ssI21842
(dp594
I21842
g2
ssI14323
(dp595
I14323
g2
ssI22520
(dp596
I22520
g2
ss.