(dp0
I16384
(dp1
I16384
(I0
I1
tp2
ssI24578
(dp3
I859
(I1
I1
tp4
ssI8195
(dp5
I8195
g2
ssI8198
(dp6
I8198
g2
ssI16395
(dp7
I16395
g2
ssI16396
(dp8
I16396
g2
ssI24590
(dp9
I24590
g2
ssI15
(dp10
I15
g2
ssI8209
(dp11
I8209
g2
ssI24579
(dp12
I24579
g2
sI859
(I1
I1
tp13
ssI20
(dp14
I20
g2
ssI8213
(dp15
I8213
g2
ssI24598
(dp16
I24598
g2
ssI17753
(dp17
I17753
g2
ssI24601
(dp18
I24601
g2
ssI16413
(dp19
I16413
g2
ssI16414
(dp20
I16414
g2
ssI16417
(dp21
I16417
g2
ssI24610
(dp22
I24610
g2
ssI37
(dp23
I37
g2
sI10079
(I1
I1
tp24
ssI16422
(dp25
I16422
g2
ssI42
(dp26
I42
g2
ssI44
(dp27
I44
g2
ssI16429
(dp28
I16429
g2
ssI46
(dp29
I66
(I1
I1
tp30
sI69
(I1
I1
tp31
sI71
(I1
I1
tp32
sI76
(I1
I1
tp33
sI46
g2
sI20148
(I2
I1
tp34
sI84
(I1
I1
tp35
sI53
(I1
I1
tp36
sI86
(I1
I1
tp37
sI87
(I1
I1
tp38
sI57
(I1
I1
tp39
sI92
(I1
I1
tp40
sI445
(I2
I1
tp41
sI62
(I1
I1
tp42
ssI16431
(dp43
I16431
g2
ssI48
(dp44
I46
(I1
I1
tp45
ssI49
(dp46
I46
(I1
I1
tp47
ssI16434
(dp48
I16434
g2
ssI53
(dp49
I53
g2
sI46
(I1
I1
tp50
ssI8247
(dp51
I8247
g2
ssI56
(dp52
I46
(I1
I1
tp53
ssI57
(dp54
I57
g2
sI46
(I1
I1
tp55
ssI59
(dp56
I46
(I1
I1
tp57
ssI61
(dp58
I20148
(I1
I1
tp59
sI46
(I1
I1
tp60
ssI62
(dp61
I62
g2
sI46
(I1
I1
tp62
ssI24640
(dp63
I24640
g2
ssI24641
(dp64
I24641
g2
ssI66
(dp65
I66
g2
sI46
(I1
I1
tp66
ssI8260
(dp67
I8260
g2
ssI69
(dp68
I69
g2
sI46
(I1
I1
tp69
ssI70
(dp70
I46
(I1
I1
tp71
ssI71
(dp72
I46
(I1
I1
tp73
sI71
g2
ssI72
(dp74
I46
(I1
I1
tp75
ssI74
(dp76
I445
(I1
I1
tp77
sI46
(I1
I1
tp78
ssI75
(dp79
I46
(I1
I1
tp80
ssI76
(dp81
I76
g2
sI46
(I1
I1
tp82
ssI84
(dp83
I84
g2
sI46
(I1
I1
tp84
ssI86
(dp85
I86
g2
sI46
(I1
I1
tp86
ssI87
(dp87
I46
(I1
I1
tp88
sI87
g2
ssI91
(dp89
I46
(I1
I1
tp90
ssI92
(dp91
I92
g2
sI46
(I1
I1
tp92
ssI16482
(dp93
I16482
g2
ssI16484
(dp94
I16484
g2
ssI24593
(dp95
I1369
(I1
I1
tp96
ssI16488
(dp97
I16488
g2
ssI16493
(dp98
I16493
g2
ssI16496
(dp99
I16496
g2
ssI24595
(dp100
I24595
g2
ssI16500
(dp101
I16500
g2
ssI16503
(dp102
I24722
(I1
I1
tp103
sI16503
g2
ssI8312
(dp104
I8312
g2
ssI16404
(dp105
I16404
g2
ssI16507
(dp106
I16507
g2
ssI16509
(dp107
I16509
g2
ssI16514
(dp108
I16514
g2
ssI131
(dp109
I131
g2
ssI24708
(dp110
I24708
g2
ssI16517
(dp111
I4826
(I1
I1
tp112
sI16517
g2
ssI24710
(dp113
I24710
g2
ssI16520
(dp114
I16520
g2
sI13959
(I1
I1
tp115
ssI16523
(dp116
I16523
g2
ssI8334
(dp117
I8334
g2
ssI16527
(dp118
I1144
(I1
I1
tp119
sI16527
g2
ssI24722
(dp120
I24722
g2
sI16503
(I1
I1
tp121
ssI147
(dp122
I147
g2
ssI24724
(dp123
I1480
(I1
I1
tp124
sI24724
g2
ssI8343
(dp125
I8343
g2
ssI16538
(dp126
I16538
g2
ssI25101
(dp127
I12494
(I1
I1
tp128
ssI24734
(dp129
I24734
g2
ssI24736
(dp130
I24736
g2
ssI25968
(dp131
I25968
g2
sI24379
(I1
I1
tp132
ssI24742
(dp133
I24742
g2
ssI25969
(dp134
I25969
g2
ssI16554
(dp135
I16554
g2
ssI24750
(dp136
I24750
g2
ssI24755
(dp137
I24755
g2
ssI16564
(dp138
I16564
g2
ssI25102
(dp139
I10321
(I1
I1
tp140
sI25102
g2
ssI16571
(dp141
I16571
g2
ssI189
(dp142
I189
g2
ssI8382
(dp143
I8382
g2
ssI16577
(dp144
I16577
g2
ssI16579
(dp145
I16579
g2
ssI8390
(dp146
I8390
g2
ssI8396
(dp147
I8396
g2
ssI209
(dp148
I209
g2
ssI24794
(dp149
I24794
g2
sI24795
(I1
I1
tp150
ssI24795
(dp151
I24794
(I1
I1
tp152
sI5835
(I1
I1
tp153
sI3262
(I2
I1
tp154
sI24795
g2
ssI16604
(dp155
I16604
g2
ssI8413
(dp156
I8413
g2
ssI24613
(dp157
I24613
g2
ssI16610
(dp158
I16610
g2
ssI16612
(dp159
I16612
g2
ssI24813
(dp160
I24813
g2
ssI24815
(dp161
I24815
g2
ssI24816
(dp162
I24816
g2
ssI24820
(dp163
I3611
(I1
I1
tp164
ssI251
(dp165
I251
g2
ssI252
(dp166
I252
g2
ssI24829
(dp167
I24829
g2
ssI16638
(dp168
I16638
g2
ssI256
(dp169
I256
g2
ssI16643
(dp170
I16643
g2
ssI16644
(dp171
I16644
g2
ssI8453
(dp172
I8453
g2
ssI16647
(dp173
I16647
g2
ssI16428
(dp174
I16428
g2
ssI16650
(dp175
I16650
g2
ssI16654
(dp176
I16654
g2
ssI274
(dp177
I274
g2
ssI275
(dp178
I15560
(I1
I1
tp179
sI275
g2
ssI8470
(dp180
I8470
g2
ssI282
(dp181
I282
g2
ssI18278
(dp182
I18278
g2
ssI16671
(dp183
I16671
g2
ssI16432
(dp184
I16432
g2
ssI16433
(dp185
I16433
g2
ssI300
(dp186
I300
g2
ssI24885
(dp187
I24885
g2
ssI15071
(dp188
I15071
g2
ssI16702
(dp189
I16702
g2
ssI8512
(dp190
I8512
g2
ssI24897
(dp191
I24897
g2
ssI16713
(dp192
I16713
g2
ssI22379
(dp193
I22379
g2
ssI8525
(dp194
I970
(I1
I1
tp195
sI8525
g2
ssI24912
(dp196
I24912
g2
ssI8248
(dp197
I8248
g2
ssI8532
(dp198
I8532
g2
ssI17806
(dp199
I17806
g2
ssI8534
(dp200
I8534
g2
ssI349
(dp201
I349
g2
ssI24927
(dp202
I24927
g2
ssI352
(dp203
I352
g2
ssI8545
(dp204
I8545
g2
ssI16443
(dp205
I16443
g2
ssI24933
(dp206
I24933
g2
ssI22152
(dp207
I22152
g2
ssI16746
(dp208
I16746
g2
ssI363
(dp209
I363
g2
ssI8556
(dp210
I8556
g2
ssI24944
(dp211
I24944
g2
ssI16755
(dp212
I16755
g2
ssI8566
(dp213
I8566
g2
ssI16761
(dp214
I16761
g2
ssI378
(dp215
I378
g2
ssI16763
(dp216
I16763
g2
ssI383
(dp217
I383
g2
ssI16768
(dp218
I16768
g2
ssI385
(dp219
I385
g2
ssI25927
(dp220
I25927
g2
ssI19179
(dp221
I19179
g2
ssI390
(dp222
I390
g2
ssI391
(dp223
I391
g2
ssI393
(dp224
I393
g2
ssI394
(dp225
I394
g2
ssI8592
(dp226
I8592
g2
ssI24981
(dp227
I24981
g2
ssI8599
(dp228
I8599
g2
ssI408
(dp229
I408
g2
ssI409
(dp230
I409
g2
ssI16794
(dp231
I16794
g2
ssI5530
(dp232
I5530
g2
ssI415
(dp233
I415
g2
ssI8608
(dp234
I8608
g2
ssI418
(dp235
I418
g2
ssI17819
(dp236
I17819
g2
ssI16804
(dp237
I18992
(I1
I1
tp238
sI16804
g2
ssI8615
(dp239
I8615
g2
ssI8616
(dp240
I8616
g2
ssI425
(dp241
I425
g2
ssI25003
(dp242
I25003
g2
ssI25004
(dp243
I25004
g2
ssI16818
(dp244
I16818
g2
ssI25013
(dp245
I24466
(I1
I1
tp246
ssI25656
(dp247
I25656
g2
ssI16824
(dp248
I16824
g2
ssI16826
(dp249
I16824
(I1
I1
tp250
ssI445
(dp251
I445
g2
sI46
(I2
I1
tp252
ssI25929
(dp253
I25929
g2
ssI16835
(dp254
I16835
g2
ssI454
(dp255
I454
g2
ssI16841
(dp256
I16841
g2
ssI25034
(dp257
I25034
g2
ssI8652
(dp258
I8652
g2
sI790
(I1
I1
tp259
ssI25047
(dp260
I25047
g2
ssI472
(dp261
I472
g2
ssI474
(dp262
I474
g2
ssI26021
(dp263
I26021
g2
ssI25057
(dp264
I25057
g2
ssI8675
(dp265
I1480
(I1
I1
tp266
ssI485
(dp267
I485
g2
ssI8678
(dp268
I8678
g2
ssI487
(dp269
I487
g2
ssI16874
(dp270
I16874
g2
sI4445
(I1
I1
tp271
ssI16883
(dp272
I16883
g2
ssI8693
(dp273
I8693
g2
ssI26025
(dp274
I26025
g2
ssI16888
(dp275
I16888
g2
ssI8699
(dp276
I4156
(I1
I1
tp277
ssI8700
(dp278
I8700
g2
sI4156
(I1
I1
tp279
ssI509
(dp280
I509
g2
ssI16895
(dp281
I16895
g2
ssI16897
(dp282
I16897
g2
ssI8707
(dp283
I8707
g2
ssI26463
(dp284
I26463
g2
ssI25095
(dp285
I25095
g2
ssI521
(dp286
I521
g2
sI11135
(I1
I1
tp287
ssI16906
(dp288
I16906
g2
ssI523
(dp289
I523
g2
ssI16909
(dp290
I16909
g2
ssI526
(dp291
I526
g2
ssI529
(dp292
I529
g2
ssI16914
(dp293
I16914
g2
ssI25113
(dp294
I10321
(I1
I1
tp295
sI25113
g2
ssI25114
(dp296
I25114
g2
ssI16924
(dp297
I16924
g2
ssI16926
(dp298
I16926
g2
ssI16658
(dp299
I16658
g2
ssI555
(dp300
I555
g2
ssI8753
(dp301
I8753
g2
ssI8755
(dp302
I8762
(I1
I1
tp303
sI8755
g2
sI8757
(I1
I1
tp304
sI8758
(I1
I1
tp305
ssI25140
(dp306
I25140
g2
ssI8757
(dp307
I8755
(I1
I1
tp308
sI8757
g2
ssI8758
(dp309
I8755
(I1
I1
tp310
sI8758
g2
ssI8760
(dp311
I8755
(I1
I1
tp312
ssI8761
(dp313
I8755
(I1
I1
tp314
ssI8762
(dp315
I8762
g2
sI8755
(I1
I1
tp316
ssI16957
(dp317
I9041
(I1
I1
tp318
sI16957
g2
ssI574
(dp319
I574
g2
sI575
(I1
I1
tp320
ssI575
(dp321
I3604
(I1
I1
tp322
sI574
(I1
I1
tp323
sI575
g2
ssI25153
(dp324
I25153
g2
ssI25154
(dp325
I25154
g2
ssI579
(dp326
I579
g2
ssI25156
(dp327
I25156
g2
ssI25388
(dp328
I25388
g2
ssI16968
(dp329
I16968
g2
ssI594
(dp330
I594
g2
ssI596
(dp331
I596
g2
ssI16981
(dp332
I16981
g2
ssI8790
(dp333
I8790
g2
ssI8793
(dp334
I8793
g2
ssI16987
(dp335
I16987
g2
ssI8796
(dp336
I8796
g2
ssI25181
(dp337
I25181
g2
ssI16992
(dp338
I16992
g2
ssI609
(dp339
I609
g2
ssI610
(dp340
I611
(I1
I1
tp341
ssI611
(dp342
I611
g2
ssI25192
(dp343
I25192
g2
ssI8809
(dp344
I8809
g2
ssI8815
(dp345
I8815
g2
ssI17008
(dp346
I17008
g2
ssI19379
(dp347
I19379
g2
ssI8822
(dp348
I8822
g2
ssI25208
(dp349
I25208
g2
sI25209
(I1
I1
tp350
ssI25209
(dp351
I25208
(I1
I1
tp352
sI25209
g2
sI790
(I1
I1
tp353
ssI634
(dp354
I634
g2
ssI1471
(dp355
I25659
(I1
I1
tp356
sI1471
g2
ssI8833
(dp357
I8833
g2
ssI8835
(dp358
I3259
(I1
I1
tp359
sI8835
g2
ssI8838
(dp360
I8838
g2
sI19798
(I2
I1
tp361
ssI25224
(dp362
I25224
g2
ssI8843
(dp363
I8843
g2
ssI8850
(dp364
I8850
g2
ssI21026
(dp365
I21026
g2
ssI8854
(dp366
I8854
g2
sI790
(I1
I1
tp367
ssI17047
(dp368
I17047
g2
ssI26053
(dp369
I26053
g2
sI14007
(I1
I1
tp370
ssI25248
(dp371
I25248
g2
ssI17057
(dp372
I17057
g2
ssI17063
(dp373
I17063
g2
ssI8875
(dp374
I8875
g2
ssI17069
(dp375
I17069
g2
ssI8880
(dp376
I8880
g2
ssI17075
(dp377
I17075
g2
ssI17077
(dp378
I17077
g2
ssI25270
(dp379
I25270
g2
ssI25271
(dp380
I25271
g2
ssI25272
(dp381
I25272
g2
ssI25273
(dp382
I25273
g2
ssI17082
(dp383
I17082
g2
ssI25275
(dp384
I25275
g2
ssI17087
(dp385
I17087
g2
ssI25281
(dp386
I25281
g2
ssI25282
(dp387
I25282
g2
ssI25283
(dp388
I25283
g2
sI10892
(I1
I1
tp389
ssI708
(dp390
I708
g2
sI709
(I1
I1
tp391
ssI709
(dp392
I708
(I1
I1
tp393
sI709
g2
ssI713
(dp394
I714
(I1
I1
tp395
ssI714
(dp396
I9184
(I1
I1
tp397
sI18761
(I1
I1
tp398
sI714
g2
sI21863
(I1
I1
tp399
ssI25292
(dp400
I25292
g2
ssI25296
(dp401
I25296
g2
ssI17105
(dp402
I17105
g2
ssI723
(dp403
I723
g2
ssI16505
(dp404
I16505
g2
ssI8920
(dp405
I8920
g2
ssI17114
(dp406
I17114
g2
ssI8924
(dp407
I8924
g2
ssI25309
(dp408
I25309
g2
ssI17119
(dp409
I17119
g2
ssI25312
(dp410
I25312
g2
ssI18028
(dp411
I18028
g2
ssI8934
(dp412
I8934
g2
ssI17128
(dp413
I17128
g2
ssI25324
(dp414
I25324
g2
ssI8942
(dp415
I8942
g2
ssI25331
(dp416
I25331
g2
ssI25333
(dp417
I25333
g2
ssI25334
(dp418
I25334
g2
ssI17143
(dp419
I17143
g2
ssI8955
(dp420
I8955
g2
ssI8957
(dp421
I8957
g2
ssI17150
(dp422
I17150
g2
ssI8959
(dp423
I8959
g2
ssI17155
(dp424
I17155
g2
ssI8966
(dp425
I8966
g2
ssI26213
(dp426
I26213
g2
ssI17168
(dp427
I17168
g2
ssI785
(dp428
I785
g2
sI788
(I1
I1
tp429
ssI25362
(dp430
I24925
(I1
I1
tp431
ssI17171
(dp432
I17171
g2
ssI788
(dp433
I785
(I1
I1
tp434
sI788
g2
ssI8982
(dp435
I8982
g2
ssI791
(dp436
I791
g2
ssI17176
(dp437
I1144
(I1
I1
tp438
sI17176
g2
ssI16666
(dp439
I16666
g2
ssI8987
(dp440
I8987
g2
ssI796
(dp441
I796
g2
ssI25373
(dp442
I25373
g2
ssI17182
(dp443
I17182
g2
ssI17183
(dp444
I17183
g2
ssI801
(dp445
I801
g2
ssI17188
(dp446
I17188
g2
ssI17191
(dp447
I17191
g2
ssI25384
(dp448
I25384
g2
ssI17193
(dp449
I17193
g2
ssI17194
(dp450
I17194
g2
ssI812
(dp451
I812
g2
ssI25389
(dp452
I25389
g2
ssI24712
(dp453
I24712
g2
ssI21982
(dp454
I21982
g2
ssI823
(dp455
I823
g2
ssI25403
(dp456
I25403
g2
ssI25404
(dp457
I25404
g2
ssI17213
(dp458
I17213
g2
ssI17215
(dp459
I17215
g2
ssI836
(dp460
I836
g2
ssI837
(dp461
I837
g2
ssI9030
(dp462
I9030
g2
ssI839
(dp463
I15051
(I1
I1
tp464
sI839
g2
ssI840
(dp465
I840
g2
ssI841
(dp466
I841
g2
ssI17226
(dp467
I17226
g2
ssI9035
(dp468
I9035
g2
ssI17228
(dp469
I17228
g2
ssI9037
(dp470
I9037
g2
ssI846
(dp471
I846
g2
ssI25423
(dp472
I25423
g2
ssI9041
(dp473
I9041
g2
sI16957
(I1
I1
tp474
ssI17891
(dp475
I611
(I1
I1
tp476
ssI9045
(dp477
I9045
g2
ssI25430
(dp478
I16804
(I1
I1
tp479
ssI25431
(dp480
I16804
(I1
I1
tp481
ssI25432
(dp482
I25432
g2
ssI859
(dp483
I24579
(I1
I1
tp484
sI21265
(I1
I1
tp485
sI859
g2
sI24508
(I1
I1
tp486
sI14617
(I1
I1
tp487
ssI860
(dp488
I860
g2
ssI17245
(dp489
I17245
g2
ssI25439
(dp490
I25439
g2
ssI9059
(dp491
I9059
g2
sI10231
(I1
I1
tp492
ssI17252
(dp493
I17252
g2
ssI25445
(dp494
I25445
g2
ssI19260
(dp495
I19260
g2
ssI17258
(dp496
I17258
g2
ssI25451
(dp497
I25451
g2
ssI25452
(dp498
I25452
g2
ssI879
(dp499
I879
g2
ssI25456
(dp500
I10749
(I1
I1
tp501
ssI25457
(dp502
I25457
g2
ssI882
(dp503
I882
g2
ssI25459
(dp504
I25459
g2
ssI9076
(dp505
I9076
g2
ssI25461
(dp506
I25461
g2
ssI26089
(dp507
I26089
g2
ssI890
(dp508
I890
g2
ssI891
(dp509
I891
g2
ssI17278
(dp510
I17278
g2
ssI18579
(dp511
I18580
(I1
I1
tp512
ssI25429
(dp513
I25429
g2
ssI24727
(dp514
I24727
g2
ssI9101
(dp515
I9101
g2
ssI26093
(dp516
I26093
g2
ssI17302
(dp517
I17302
g2
ssI9112
(dp518
I9112
g2
ssI921
(dp519
I921
g2
sI18650
(I1
I1
tp520
ssI25945
(dp521
I25945
g2
ssI25519
(dp522
I25519
g2
ssI25523
(dp523
I25523
g2
ssI17334
(dp524
I17334
g2
ssI17336
(dp525
I17336
g2
ssI957
(dp526
I957
g2
ssI9152
(dp527
I9152
g2
ssI25541
(dp528
I25541
g2
ssI25542
(dp529
I25542
g2
ssI968
(dp530
I968
g2
sI9280
(I1
I1
tp531
sI15953
(I1
I1
tp532
ssI969
(dp533
I970
(I1
I1
tp534
ssI970
(dp535
I13832
(I1
I1
tp536
sI970
g2
sI8525
(I1
I1
tp537
sI3414
(I1
I1
tp538
ssI971
(dp539
I971
g2
ssI4258
(dp540
I4258
g2
ssI975
(dp541
I975
g2
ssI25554
(dp542
I25554
g2
ssI982
(dp543
I982
g2
ssI984
(dp544
I984
g2
ssI19673
(dp545
I19673
g2
ssI17371
(dp546
I17371
g2
ssI25564
(dp547
I25564
g2
ssI989
(dp548
I989
g2
ssI9184
(dp549
I9184
g2
sI714
(I1
I1
tp550
ssI995
(dp551
I995
g2
ssI998
(dp552
I2713
(I1
I1
tp553
sI998
g2
ssI15185
(dp554
I15185
g2
ssI9194
(dp555
I9194
g2
ssI25580
(dp556
I25580
g2
ssI1007
(dp557
I1008
(I1
I1
tp558
sI1007
g2
ssI1008
(dp559
I1008
g2
sI6493
(I2
I1
tp560
sI1007
(I1
I1
tp561
ssI25585
(dp562
I25585
g2
ssI1013
(dp563
I1013
g2
sI13959
(I1
I1
tp564
ssI17399
(dp565
I17399
g2
ssI9212
(dp566
I9212
g2
ssI1021
(dp567
I1021
g2
ssI25599
(dp568
I24795
(I1
I1
tp569
sI3262
(I1
I1
tp570
ssI9220
(dp571
I9220
g2
sI3262
(I1
I1
tp572
ssI1030
(dp573
I1030
g2
ssI17416
(dp574
I17416
g2
ssI1036
(dp575
I1036
g2
ssI26114
(dp576
I26114
g2
ssI17423
(dp577
I17423
g2
ssI25618
(dp578
I25618
g2
ssI17428
(dp579
I17428
g2
ssI17429
(dp580
I17429
g2
ssI17430
(dp581
I17430
g2
ssI25623
(dp582
I25623
g2
ssI25624
(dp583
I25624
g2
ssI17433
(dp584
I17433
g2
ssI17434
(dp585
I17434
g2
ssI17436
(dp586
I17436
g2
ssI25629
(dp587
I25629
g2
ssI17438
(dp588
I17438
g2
ssI25631
(dp589
I25631
g2
ssI25632
(dp590
I25632
g2
ssI17441
(dp591
I17441
g2
ssI17448
(dp592
I17448
g2
ssI19292
(dp593
I19292
g2
ssI9258
(dp594
I9376
(I1
I1
tp595
sI9258
g2
ssI17451
(dp596
I17451
g2
ssI9266
(dp597
I9266
g2
ssI17464
(dp598
I17464
g2
ssI9275
(dp599
I9275
g2
ssI1084
(dp600
I1084
g2
ssI25661
(dp601
I25661
g2
ssI25662
(dp602
I25662
g2
ssI25663
(dp603
I25663
g2
ssI9280
(dp604
I968
(I1
I1
tp605
sI9280
g2
ssI25665
(dp606
I25665
g2
ssI25666
(dp607
I25666
g2
ssI1092
(dp608
I611
(I1
I1
tp609
ssI25669
(dp610
I25669
g2
ssI17479
(dp611
I12644
(I1
I1
tp612
sI17479
g2
ssI25672
(dp613
I25672
g2
ssI25674
(dp614
I3611
(I1
I1
tp615
ssI25676
(dp616
I25676
g2
ssI25677
(dp617
I25677
g2
ssI25679
(dp618
I25679
g2
ssI9296
(dp619
I9296
g2
ssI17489
(dp620
I17489
g2
ssI17491
(dp621
I17491
g2
ssI25685
(dp622
I25685
g2
ssI17499
(dp623
I17499
g2
ssI1121
(dp624
I1121
g2
ssI1122
(dp625
I1122
g2
sI1123
(I1
I1
tp626
ssI1123
(dp627
I1122
(I1
I1
tp628
sI1123
g2
ssI25701
(dp629
I25701
g2
ssI1126
(dp630
I1126
g2
ssI22033
(dp631
I22033
g2
ssI9320
(dp632
I9320
g2
ssI1132
(dp633
I1133
(I1
I1
tp634
ssI1133
(dp635
I1133
g2
sI18341
(I1
I1
tp636
ssI9328
(dp637
I9328
g2
ssI25713
(dp638
I14033
(I1
I1
tp639
ssI9330
(dp640
I9330
g2
ssI25716
(dp641
I25716
g2
ssI17525
(dp642
I17525
g2
ssI1144
(dp643
I1144
g2
sI17176
(I1
I1
tp644
sI26432
(I1
I1
tp645
sI16527
(I1
I1
tp646
ssI9342
(dp647
I9342
g2
ssI17535
(dp648
I17535
g2
ssI17536
(dp649
I17536
g2
ssI1153
(dp650
I1153
g2
ssI9347
(dp651
I9347
g2
ssI1158
(dp652
I1158
g2
ssI9351
(dp653
I9351
g2
ssI9352
(dp654
I9352
g2
ssI9354
(dp655
I9354
g2
ssI9358
(dp656
I9358
g2
ssI1167
(dp657
I1167
g2
ssI17552
(dp658
I17552
g2
ssI24771
(dp659
I24771
g2
ssI17562
(dp660
I17562
g2
ssI9371
(dp661
I9371
g2
ssI25759
(dp662
I25759
g2
ssI9376
(dp663
I9376
g2
sI9258
(I1
I1
tp664
ssI9377
(dp665
I9377
g2
ssI26139
(dp666
I26139
g2
ssI25765
(dp667
I25765
g2
ssI25766
(dp668
I25766
g2
ssI17575
(dp669
I17575
g2
ssI22044
(dp670
I22044
g2
ssI17578
(dp671
I17578
g2
ssI17580
(dp672
I17580
g2
ssI25773
(dp673
I25773
g2
ssI9390
(dp674
I9390
g2
ssI25775
(dp675
I25775
g2
ssI9392
(dp676
I9392
g2
ssI1201
(dp677
I1201
g2
ssI9394
(dp678
I9394
g2
ssI9395
(dp679
I9395
g2
ssI1207
(dp680
I23035
(I1
I1
tp681
sI1207
g2
ssI25784
(dp682
I25784
g2
ssI9401
(dp683
I9401
g2
ssI25786
(dp684
I25786
g2
ssI25788
(dp685
I25788
g2
ssI9405
(dp686
I9405
g2
ssI9406
(dp687
I9407
(I1
I1
tp688
ssI9407
(dp689
I9407
g2
ssI17600
(dp690
I17600
g2
ssI9409
(dp691
I9409
g2
ssI9413
(dp692
I9413
g2
ssI9414
(dp693
I9414
g2
ssI9417
(dp694
I9417
g2
ssI9419
(dp695
I9419
g2
ssI9421
(dp696
I9421
g2
ssI25807
(dp697
I25807
g2
ssI25808
(dp698
I25808
g2
ssI9425
(dp699
I9425
g2
ssI9426
(dp700
I9426
g2
ssI9427
(dp701
I9427
g2
ssI9428
(dp702
I9428
g2
ssI25817
(dp703
I25817
g2
ssI9434
(dp704
I9434
g2
ssI17632
(dp705
I17632
g2
ssI4304
(dp706
I4304
g2
sI3023
(I1
I1
tp707
ssI17634
(dp708
I17634
g2
ssI1251
(dp709
I1251
g2
ssI25830
(dp710
I25830
g2
ssI1257
(dp711
I1257
g2
ssI17227
(dp712
I17227
g2
ssI1259
(dp713
I1259
g2
ssI1260
(dp714
I1260
g2
ssI1261
(dp715
I1261
g2
ssI22056
(dp716
I22056
g2
ssI17651
(dp717
I17651
g2
ssI9461
(dp718
I9461
g2
ssI9462
(dp719
I9462
g2
ssI9463
(dp720
I9463
g2
ssI25848
(dp721
I25848
g2
ssI9465
(dp722
I9465
g2
ssI1275
(dp723
I1275
g2
ssI25852
(dp724
I25852
g2
ssI17662
(dp725
I17662
g2
ssI9472
(dp726
I9472
g2
ssI22059
(dp727
I22059
g2
ssI17668
(dp728
I17668
g2
ssI9477
(dp729
I9477
g2
ssI17671
(dp730
I17671
g2
ssI25864
(dp731
I24981
(I1
I1
tp732
ssI17673
(dp733
I17673
g2
ssI9483
(dp734
I9483
g2
ssI1292
(dp735
I1293
(I1
I1
tp736
sI1294
(I1
I1
tp737
ssI1293
(dp738
I1293
g2
sI1294
(I2
I1
tp739
ssI1294
(dp740
I1293
(I2
I1
tp741
sI1294
g2
ssI17679
(dp742
I17679
g2
ssI9493
(dp743
I9493
g2
ssI9495
(dp744
I9495
g2
ssI25880
(dp745
I25880
g2
ssI25883
(dp746
I25883
g2
ssI9500
(dp747
I9500
g2
ssI9506
(dp748
I9506
g2
ssI25893
(dp749
I25893
g2
ssI17703
(dp750
I17703
g2
ssI25413
(dp751
I25413
g2
ssI9517
(dp752
I9517
g2
ssI25905
(dp753
I25905
g2
ssI1587
(dp754
I1587
g2
ssI9526
(dp755
I9526
g2
ssI25911
(dp756
I25911
g2
ssI25912
(dp757
I25912
g2
ssI25913
(dp758
I25913
g2
ssI24799
(dp759
I23771
(I1
I1
tp760
ssI25916
(dp761
I25916
g2
ssI23434
(dp762
I23434
g2
ssI25918
(dp763
I25918
g2
ssI22069
(dp764
I22069
g2
ssI25920
(dp765
I25920
g2
ssI25921
(dp766
I25921
g2
ssI9538
(dp767
I9538
g2
ssI9539
(dp768
I9539
g2
ssI25924
(dp769
I25924
g2
ssI17733
(dp770
I17733
g2
ssI25926
(dp771
I25926
g2
ssI1351
(dp772
I1351
g2
ssI17736
(dp773
I17736
g2
ssI9545
(dp774
I9545
g2
ssI25930
(dp775
I25930
g2
ssI25931
(dp776
I25931
g2
ssI25932
(dp777
I25932
g2
ssI25933
(dp778
I25933
g2
ssI25934
(dp779
I25934
g2
ssI17747
(dp780
I17747
g2
ssI17748
(dp781
I17748
g2
ssI17749
(dp782
I17749
g2
ssI9559
(dp783
I9559
g2
ssI1369
(dp784
I1369
g2
ssI25946
(dp785
I25946
g2
ssI17760
(dp786
I17760
g2
ssI23440
(dp787
I23440
g2
ssI25954
(dp788
I25954
g2
ssI25955
(dp789
I25955
g2
ssI25957
(dp790
I25957
g2
ssI9579
(dp791
I9579
g2
ssI25964
(dp792
I25964
g2
ssI25965
(dp793
I25965
g2
ssI25966
(dp794
I25966
g2
ssI25967
(dp795
I25967
g2
ssI9584
(dp796
I9584
g2
ssI17777
(dp797
I17777
g2
ssI25415
(dp798
I25415
g2
ssI17779
(dp799
I17779
g2
ssI17782
(dp800
I17782
g2
ssI25976
(dp801
I24556
(I1
I1
tp802
ssI1401
(dp803
I11384
(I1
I1
tp804
sI1401
g2
sI11083
(I1
I1
tp805
ssI9596
(dp806
I9596
g2
ssI9597
(dp807
I9597
g2
ssI25984
(dp808
I25984
g2
ssI26176
(dp809
I26176
g2
ssI17795
(dp810
I17795
g2
ssI25988
(dp811
I25988
g2
ssI17797
(dp812
I17797
g2
ssI25990
(dp813
I25990
g2
ssI26177
(dp814
I26177
g2
ssI25994
(dp815
I25994
g2
ssI25997
(dp816
I25997
g2
ssI9614
(dp817
I9614
g2
ssI9617
(dp818
I9617
g2
ssI26002
(dp819
I26002
g2
ssI9621
(dp820
I9621
g2
ssI9627
(dp821
I9627
g2
sI3262
(I1
I1
tp822
ssI9628
(dp823
I9628
g2
ssI25869
(dp824
I25869
g2
ssI17823
(dp825
I17823
g2
ssI26017
(dp826
I26017
g2
ssI26018
(dp827
I26018
g2
ssI26019
(dp828
I26019
g2
ssI9637
(dp829
I9637
g2
ssI26022
(dp830
I26022
g2
ssI17833
(dp831
I17833
g2
ssI17836
(dp832
I17836
g2
ssI17837
(dp833
I17837
g2
ssI25417
(dp834
I25417
g2
ssI17839
(dp835
I17839
g2
ssI9650
(dp836
I9650
g2
ssI9655
(dp837
I9655
g2
ssI9656
(dp838
I2663
(I1
I1
tp839
ssI9657
(dp840
I9657
g2
sI2663
(I1
I1
tp841
ssI17850
(dp842
I17850
g2
ssI9663
(dp843
I9663
g2
sI2663
(I1
I1
tp844
ssI17858
(dp845
I17858
g2
sI4244
(I1
I1
tp846
ssI17861
(dp847
I17861
g2
ssI9670
(dp848
I9670
g2
ssI1480
(dp849
I1480
g2
sI24724
(I1
I1
tp850
sI16117
(I1
I1
tp851
sI16119
(I1
I1
tp852
ssI9675
(dp853
I9675
g2
ssI25418
(dp854
I25418
g2
ssI17875
(dp855
I17875
g2
ssI26068
(dp856
I26068
g2
ssI5710
(dp857
I5710
g2
ssI9686
(dp858
I9686
g2
ssI26071
(dp859
I26071
g2
ssI26075
(dp860
I26075
g2
ssI26076
(dp861
I26076
g2
ssI9694
(dp862
I9694
g2
sI790
(I1
I1
tp863
ssI9695
(dp864
I9695
g2
ssI16635
(dp865
I16635
g2
ssI26084
(dp866
I26084
g2
ssI17894
(dp867
I17894
g2
ssI26088
(dp868
I26088
g2
ssI12540
(dp869
I12540
g2
ssI26090
(dp870
I26090
g2
ssI17899
(dp871
I17899
g2
ssI9709
(dp872
I9709
g2
ssI1519
(dp873
I1519
g2
ssI17904
(dp874
I1887
(I1
I1
tp875
ssI1521
(dp876
I1521
g2
sI1523
(I1
I1
tp877
ssI1523
(dp878
I1521
(I1
I1
tp879
sI1523
g2
ssI9716
(dp880
I9716
g2
ssI24830
(dp881
I24830
g2
ssI17912
(dp882
I17912
g2
ssI1532
(dp883
I1532
g2
ssI17918
(dp884
I17918
g2
ssI17922
(dp885
I17922
g2
ssI23467
(dp886
I23467
g2
ssI26117
(dp887
I26117
g2
ssI17926
(dp888
I17926
g2
ssI26120
(dp889
I21949
(I1
I1
tp890
ssI1546
(dp891
I1546
g2
ssI17932
(dp892
I17932
g2
ssI9744
(dp893
I9744
g2
ssI17939
(dp894
I17939
g2
sI17941
(I1
I1
tp895
ssI17941
(dp896
I17939
(I1
I1
tp897
sI17941
g2
ssI9750
(dp898
I9750
g2
ssI1561
(dp899
I1561
g2
ssI9755
(dp900
I9755
g2
ssI26140
(dp901
I26140
g2
ssI17951
(dp902
I17951
g2
ssI9765
(dp903
I9765
g2
ssI26205
(dp904
I26205
g2
ssI26162
(dp905
I26162
g2
ssI9779
(dp906
I9779
g2
ssI26167
(dp907
I26167
g2
ssI17977
(dp908
I17977
g2
ssI17984
(dp909
I17984
g2
ssI1632
(dp910
I1632
g2
ssI17986
(dp911
I17986
g2
ssI9799
(dp912
I9799
g2
ssI9800
(dp913
I9800
g2
ssI1609
(dp914
I1609
g2
ssI26186
(dp915
I25668
(I1
I1
tp916
ssI26189
(dp917
I26189
g2
ssI26194
(dp918
I26194
g2
ssI18019
(dp919
I18019
g2
ssI26197
(dp920
I26197
g2
ssI18020
(dp921
I18020
g2
ssI26202
(dp922
I26202
g2
ssI26203
(dp923
I26203
g2
ssI18013
(dp924
I18013
g2
ssI18014
(dp925
I18014
g2
ssI9823
(dp926
I9823
g2
ssI9824
(dp927
I9824
g2
ssI9827
(dp928
I9827
g2
sI9828
(I1
I1
tp929
ssI9828
(dp930
I9827
(I1
I1
tp931
sI9828
g2
ssI1637
(dp932
I1637
g2
ssI18022
(dp933
I18022
g2
ssI1641
(dp934
I1641
g2
ssI1644
(dp935
I1644
g2
sI1887
(I1
I1
tp936
ssI9837
(dp937
I9837
g2
ssI18030
(dp938
I18030
g2
ssI15293
(dp939
I15289
(I1
I1
tp940
ssI9840
(dp941
I9840
g2
ssI1651
(dp942
I1651
g2
ssI1653
(dp943
I1653
g2
ssI18038
(dp944
I18038
g2
ssI26217
(dp945
I26217
g2
ssI9848
(dp946
I9848
g2
ssI1660
(dp947
I1660
g2
ssI1662
(dp948
I1662
g2
ssI9855
(dp949
I9855
g2
ssI9856
(dp950
I9856
g2
ssI9857
(dp951
I9857
g2
ssI9858
(dp952
I9858
g2
ssI1668
(dp953
I1668
g2
ssI1669
(dp954
I1669
g2
ssI9862
(dp955
I9862
g2
ssI26247
(dp956
I26247
g2
ssI9864
(dp957
I9864
g2
ssI9836
(dp958
I9836
g2
ssI26255
(dp959
I26255
g2
ssI26256
(dp960
I26256
g2
ssI1681
(dp961
I1681
g2
ssI1682
(dp962
I1682
g2
ssI26261
(dp963
I26261
g2
ssI18070
(dp964
I18070
g2
ssI26264
(dp965
I26264
g2
ssI9881
(dp966
I9881
g2
sI9882
(I1
I1
tp967
ssI9882
(dp968
I9881
(I1
I1
tp969
sI9882
g2
ssI5743
(dp970
I5744
(I1
I1
tp971
sI5743
g2
ssI9885
(dp972
I9885
g2
ssI9886
(dp973
I9886
g2
ssI9887
(dp974
I9887
g2
ssI18081
(dp975
I18081
g2
ssI9891
(dp976
I9891
g2
ssI26278
(dp977
I26278
g2
ssI18087
(dp978
I18087
g2
ssI1704
(dp979
I1704
g2
ssI18090
(dp980
I18090
g2
ssI25971
(dp981
I25971
g2
ssI9900
(dp982
I9900
g2
ssI9904
(dp983
I9904
g2
ssI9908
(dp984
I9908
g2
ssI26293
(dp985
I26293
g2
ssI26294
(dp986
I26294
g2
ssI26295
(dp987
I26295
g2
ssI18105
(dp988
I18105
g2
ssI26298
(dp989
I26298
g2
ssI18108
(dp990
I18108
g2
ssI18113
(dp991
I18113
g2
ssI18115
(dp992
I18115
g2
ssI9926
(dp993
I9926
g2
ssI9929
(dp994
I9929
g2
ssI17243
(dp995
I17243
g2
ssI9931
(dp996
I9931
g2
ssI1742
(dp997
I1742
g2
ssI26245
(dp998
I26245
g2
ssI9943
(dp999
I9943
g2
ssI9944
(dp1000
I9944
g2
ssI26330
(dp1001
I26330
g2
ssI9947
(dp1002
I9947
g2
ssI9954
(dp1003
I9954
g2
ssI18148
(dp1004
I18148
g2
ssI9957
(dp1005
I9957
g2
ssI18152
(dp1006
I18152
g2
ssI26345
(dp1007
I14361
(I1
I1
tp1008
ssI18157
(dp1009
I18157
g2
ssI26350
(dp1010
I26350
g2
ssI18159
(dp1011
I18159
g2
ssI18161
(dp1012
I18161
g2
ssI9970
(dp1013
I9970
g2
ssI9972
(dp1014
I9972
g2
ssI26238
(dp1015
I26238
g2
ssI26358
(dp1016
I26358
g2
ssI26359
(dp1017
I26359
g2
ssI9976
(dp1018
I9976
g2
ssI9977
(dp1019
I9977
g2
ssI26362
(dp1020
I26362
g2
ssI26239
(dp1021
I26239
g2
ssI9981
(dp1022
I9981
g2
ssI18174
(dp1023
I18174
g2
ssI26367
(dp1024
I26367
g2
ssI9984
(dp1025
I9984
g2
ssI26369
(dp1026
I26369
g2
ssI26370
(dp1027
I26370
g2
ssI26371
(dp1028
I26371
g2
ssI26374
(dp1029
I18781
(I1
I1
tp1030
ssI9991
(dp1031
I9991
g2
ssI26376
(dp1032
I26376
g2
ssI9994
(dp1033
I9994
g2
ssI11223
(dp1034
I11223
g2
ssI18190
(dp1035
I18190
g2
ssI26386
(dp1036
I26386
g2
ssI10003
(dp1037
I10003
g2
ssI18197
(dp1038
I18197
g2
ssI10006
(dp1039
I10380
(I1
I1
tp1040
sI10006
g2
ssI18199
(dp1041
I18199
g2
ssI9860
(dp1042
I9860
g2
ssI18206
(dp1043
I18206
g2
ssI18207
(dp1044
I18207
g2
ssI26401
(dp1045
I26401
g2
ssI18211
(dp1046
I18211
g2
ssI18212
(dp1047
I18212
g2
ssI26246
(dp1048
I26246
g2
ssI10023
(dp1049
I10023
g2
ssI26409
(dp1050
I26409
g2
ssI10027
(dp1051
I10027
g2
ssI18223
(dp1052
I18223
g2
ssI10032
(dp1053
I10032
g2
ssI10033
(dp1054
I10033
g2
ssI10034
(dp1055
I10034
g2
ssI10035
(dp1056
I10035
g2
ssI26420
(dp1057
I26420
g2
ssI26421
(dp1058
I26421
g2
ssI10039
(dp1059
I10039
g2
ssI10040
(dp1060
I10040
g2
ssI26432
(dp1061
I1144
(I1
I1
tp1062
sI26432
g2
ssI10049
(dp1063
I10049
g2
ssI10050
(dp1064
I10050
g2
ssI18244
(dp1065
I18244
g2
ssI10053
(dp1066
I10053
g2
ssI26441
(dp1067
I26441
g2
ssI18252
(dp1068
I968
(I1
I1
tp1069
ssI1871
(dp1070
I1871
g2
ssI26448
(dp1071
I4015
(I1
I1
tp1072
ssI26449
(dp1073
I4015
(I1
I1
tp1074
ssI1877
(dp1075
I1877
g2
ssI18262
(dp1076
I18262
g2
ssI10078
(dp1077
I10078
g2
ssI1887
(dp1078
I1644
(I1
I1
tp1079
sI1887
g2
ssI10080
(dp1080
I10080
g2
ssI1891
(dp1081
I1891
g2
ssI10084
(dp1082
I10084
g2
ssI10086
(dp1083
I10086
g2
sI4727
(I1
I1
tp1084
ssI26257
(dp1085
I26257
g2
ssI10088
(dp1086
I10088
g2
ssI13970
(dp1087
I611
(I1
I1
tp1088
ssI10094
(dp1089
I10094
g2
ssI19432
(dp1090
I19432
g2
ssI10098
(dp1091
I10098
g2
ssI18294
(dp1092
I18294
g2
ssI1912
(dp1093
I1912
g2
ssI10106
(dp1094
I10106
g2
ssI1915
(dp1095
I1915
g2
ssI10108
(dp1096
I10108
g2
ssI1918
(dp1097
I1918
g2
ssI1920
(dp1098
I1920
g2
ssI5782
(dp1099
I5782
g2
ssI25371
(dp1100
I25371
g2
ssI21614
(dp1101
I21614
g2
ssI10129
(dp1102
I24248
(I1
I1
tp1103
sI10129
g2
ssI18322
(dp1104
I18322
g2
ssI18323
(dp1105
I18323
g2
ssI18324
(dp1106
I18324
g2
ssI18328
(dp1107
I18328
g2
ssI18329
(dp1108
I18329
g2
ssI26266
(dp1109
I26266
g2
ssI1954
(dp1110
I1955
(I1
I1
tp1111
ssI1955
(dp1112
I1955
g2
ssI18341
(dp1113
I1133
(I1
I1
tp1114
sI18341
g2
ssI10150
(dp1115
I10150
g2
ssI18345
(dp1116
I18345
g2
ssI10157
(dp1117
I14043
(I1
I1
tp1118
sI10157
g2
sI10885
(I1
I1
tp1119
ssI18078
(dp1120
I18078
g2
ssI10167
(dp1121
I10167
g2
ssI19445
(dp1122
I19445
g2
ssI18368
(dp1123
I18368
g2
ssI18369
(dp1124
I18369
g2
ssI24907
(dp1125
I24907
g2
ssI18376
(dp1126
I18376
g2
ssI10185
(dp1127
I10185
g2
ssI18380
(dp1128
I18380
g2
ssI1997
(dp1129
I1997
g2
ssI10193
(dp1130
I10193
g2
ssI18386
(dp1131
I18386
g2
ssI18083
(dp1132
I18083
g2
ssI18392
(dp1133
I18392
g2
ssI18397
(dp1134
I18397
g2
ssI18399
(dp1135
I18399
g2
ssI10212
(dp1136
I10212
g2
ssI10214
(dp1137
I10214
g2
ssI2024
(dp1138
I2024
g2
ssI18411
(dp1139
I18411
g2
ssI2031
(dp1140
I2031
g2
ssI9896
(dp1141
I9896
g2
ssI2035
(dp1142
I2035
g2
ssI10229
(dp1143
I5085
(I1
I1
tp1144
sI10229
g2
ssI10231
(dp1145
I9059
(I1
I1
tp1146
sI10231
g2
ssI10234
(dp1147
I10234
g2
ssI26282
(dp1148
I26282
g2
ssI18436
(dp1149
I18436
g2
ssI25437
(dp1150
I25437
g2
ssI2062
(dp1151
I2062
g2
ssI18448
(dp1152
I18448
g2
ssI10259
(dp1153
I10259
g2
ssI2068
(dp1154
I2068
g2
ssI10264
(dp1155
I10264
g2
ssI18464
(dp1156
I18464
g2
ssI18096
(dp1157
I18096
g2
sI5407
(I1
I1
tp1158
ssI18470
(dp1159
I18470
g2
ssI18471
(dp1160
I18471
g2
ssI18475
(dp1161
I18475
g2
ssI8541
(dp1162
I8541
g2
ssI18485
(dp1163
I18485
g2
ssI18486
(dp1164
I18486
g2
ssI18100
(dp1165
I18100
g2
ssI18492
(dp1166
I18492
g2
ssI18494
(dp1167
I18494
g2
ssI2115
(dp1168
I2115
g2
ssI18500
(dp1169
I18500
g2
ssI2117
(dp1170
I2117
g2
sI12709
(I1
I1
tp1171
ssI2118
(dp1172
I2130
(I1
I1
tp1173
sI2118
g2
ssI2119
(dp1174
I2119
g2
ssI2120
(dp1175
I2120
g2
ssI2121
(dp1176
I2121
g2
sI12709
(I1
I1
tp1177
ssI18506
(dp1178
I18506
g2
ssI14007
(dp1179
I26053
(I1
I1
tp1180
sI14007
g2
ssI2124
(dp1181
I2124
g2
ssI2129
(dp1182
I2129
g2
ssI2130
(dp1183
I2130
g2
sI2118
(I1
I1
tp1184
ssI2131
(dp1185
I2131
g2
ssI10324
(dp1186
I10324
g2
ssI18519
(dp1187
I18519
g2
ssI2140
(dp1188
I2140
g2
ssI2146
(dp1189
I2147
(I1
I1
tp1190
ssI2147
(dp1191
I2147
g2
ssI2149
(dp1192
I2149
g2
ssI18534
(dp1193
I18534
g2
ssI24936
(dp1194
I24936
g2
ssI2164
(dp1195
I2164
g2
ssI2166
(dp1196
I2166
g2
ssI24938
(dp1197
I24938
g2
ssI10366
(dp1198
I10366
g2
ssI18561
(dp1199
I18561
g2
ssI24939
(dp1200
I24939
g2
ssI10373
(dp1201
I10373
g2
ssI18567
(dp1202
I18567
g2
ssI364
(dp1203
I364
g2
ssI18570
(dp1204
I18570
g2
ssI2188
(dp1205
I2188
g2
ssI2189
(dp1206
I2189
g2
ssI2194
(dp1207
I2194
g2
ssI10387
(dp1208
I10387
g2
ssI18580
(dp1209
I18580
g2
ssI2197
(dp1210
I2197
g2
ssI18584
(dp1211
I18584
g2
ssI18593
(dp1212
I18593
g2
ssI2210
(dp1213
I2210
g2
ssI18600
(dp1214
I18600
g2
ssI2217
(dp1215
I2217
g2
ssI18606
(dp1216
I18606
g2
ssI10419
(dp1217
I10419
g2
sI14630
(I1
I1
tp1218
ssI18613
(dp1219
I18613
g2
ssI18617
(dp1220
I18617
g2
ssI18122
(dp1221
I18122
g2
ssI5835
(dp1222
I5835
g2
sI24795
(I1
I1
tp1223
ssI18632
(dp1224
I18633
(I1
I1
tp1225
ssI18633
(dp1226
I18633
g2
ssI24947
(dp1227
I24938
(I1
I1
tp1228
ssI2258
(dp1229
I2258
g2
ssI10452
(dp1230
I10452
g2
ssI10455
(dp1231
I10455
g2
ssI18650
(dp1232
I921
(I1
I1
tp1233
sI18650
g2
ssI2269
(dp1234
I2269
g2
ssI10463
(dp1235
I10463
g2
ssI18664
(dp1236
I18664
g2
ssI18669
(dp1237
I18669
g2
ssI18676
(dp1238
I18676
g2
ssI4478
(dp1239
I4478
g2
ssI17855
(dp1240
I17855
g2
ssI18690
(dp1241
I18690
g2
ssI10502
(dp1242
I10502
g2
sI10727
(I1
I1
tp1243
ssI18695
(dp1244
I18695
g2
ssI18696
(dp1245
I18696
g2
ssI18699
(dp1246
I18699
g2
ssI18709
(dp1247
I18709
g2
ssI18712
(dp1248
I18712
g2
ssI2337
(dp1249
I2337
g2
ssI8582
(dp1250
I8582
g2
ssI10535
(dp1251
I10902
(I1
I1
tp1252
sI10535
g2
ssI18730
(dp1253
I18730
g2
ssI20871
(dp1254
I20871
g2
ssI18733
(dp1255
I18733
g2
ssI18736
(dp1256
I18736
g2
ssI18738
(dp1257
I18738
g2
ssI19507
(dp1258
I19507
g2
ssI18740
(dp1259
I18740
g2
ssI8585
(dp1260
I8585
g2
ssI18759
(dp1261
I611
(I1
I1
tp1262
ssI18761
(dp1263
I18761
g2
sI714
(I1
I1
tp1264
ssI18146
(dp1265
I18146
g2
ssI18769
(dp1266
I18769
g2
ssI22243
(dp1267
I22243
g2
ssI18774
(dp1268
I18774
g2
ssI18781
(dp1269
I18781
g2
ssI16784
(dp1270
I16784
g2
ssI18787
(dp1271
I18787
g2
ssI26267
(dp1272
I26267
g2
ssI18794
(dp1273
I18794
g2
ssI10605
(dp1274
I10605
g2
ssI18798
(dp1275
I3918
(I1
I1
tp1276
ssI18801
(dp1277
I18801
g2
ssI18804
(dp1278
I10896
(I1
I1
tp1279
sI4131
(I1
I1
tp1280
sI18804
g2
ssI10614
(dp1281
I13673
(I1
I1
tp1282
sI10614
g2
ssI10616
(dp1283
I10616
g2
ssI18809
(dp1284
I18809
g2
ssI2434
(dp1285
I2434
g2
ssI16791
(dp1286
I16791
g2
ssI2445
(dp1287
I2445
g2
ssI18841
(dp1288
I18841
g2
ssI20890
(dp1289
I2149
(I1
I1
tp1290
ssI2464
(dp1291
I2464
g2
ssI10659
(dp1292
I10659
g2
ssI2470
(dp1293
I2470
g2
ssI18855
(dp1294
I18855
g2
ssI18857
(dp1295
I18857
g2
ssI18858
(dp1296
I18858
g2
ssI10668
(dp1297
I10668
g2
ssI18866
(dp1298
I18866
g2
sI2724
(I1
I1
tp1299
ssI26357
(dp1300
I26357
g2
ssI18881
(dp1301
I18881
g2
ssI2500
(dp1302
I2500
g2
sI2501
(I1
I1
tp1303
ssI2501
(dp1304
I2500
(I1
I1
tp1305
sI2501
g2
ssI2503
(dp1306
I2503
g2
ssI2504
(dp1307
I2504
g2
ssI18892
(dp1308
I18892
g2
ssI18895
(dp1309
I18895
g2
ssI26360
(dp1310
I26360
g2
ssI2516
(dp1311
I2516
g2
ssI18901
(dp1312
I18901
g2
ssI26361
(dp1313
I26361
g2
ssI2520
(dp1314
I2520
g2
ssI2521
(dp1315
I2521
g2
ssI19535
(dp1316
I19535
g2
ssI10720
(dp1317
I10720
g2
ssI2529
(dp1318
I2529
g2
sI24118
(I1
I1
tp1319
ssI26363
(dp1320
I26363
g2
ssI18917
(dp1321
I18917
g2
ssI18918
(dp1322
I18918
g2
ssI2535
(dp1323
I2535
g2
ssI10729
(dp1324
I10729
g2
ssI18088
(dp1325
I18088
g2
ssI10733
(dp1326
I10733
g2
ssI2542
(dp1327
I2542
g2
ssI2550
(dp1328
I23100
(I1
I1
tp1329
sI23101
(I1
I1
tp1330
sI2550
g2
ssI2551
(dp1331
I2551
g2
ssI10749
(dp1332
I10749
g2
ssI23476
(dp1333
I23476
g2
ssI18945
(dp1334
I18945
g2
ssI10758
(dp1335
I10758
g2
ssI10759
(dp1336
I10759
g2
ssI10764
(dp1337
I10764
g2
ssI10766
(dp1338
I10766
g2
ssI5891
(dp1339
I5891
g2
sI5894
(I1
I1
tp1340
ssI18964
(dp1341
I18964
g2
ssI18967
(dp1342
I18967
g2
ssI10778
(dp1343
I10778
g2
ssI18973
(dp1344
I13362
(I1
I1
tp1345
ssI18986
(dp1346
I18986
g2
ssI26375
(dp1347
I26375
g2
ssI18992
(dp1348
I18992
g2
sI16804
(I1
I1
tp1349
ssI10801
(dp1350
I10801
g2
ssI18995
(dp1351
I18995
g2
ssI22281
(dp1352
I22281
g2
ssI19006
(dp1353
I14363
(I1
I1
tp1354
sI19006
g2
ssI19552
(dp1355
I19552
g2
ssI19010
(dp1356
I19010
g2
ssI19018
(dp1357
I19018
g2
ssI10831
(dp1358
I10831
g2
ssI26368
(dp1359
I26368
g2
ssI2644
(dp1360
I2644
g2
ssI19035
(dp1361
I19035
g2
ssI10845
(dp1362
I10845
g2
ssI22288
(dp1363
I22288
g2
ssI19043
(dp1364
I3414
(I1
I1
tp1365
ssI2663
(dp1366
I9657
(I1
I1
tp1367
sI9663
(I1
I1
tp1368
sI2663
g2
ssI19052
(dp1369
I19052
g2
ssI19054
(dp1370
I19054
g2
ssI19055
(dp1371
I3690
(I1
I1
tp1372
sI19055
g2
ssI10865
(dp1373
I10865
g2
ssI10873
(dp1374
I10873
g2
ssI10877
(dp1375
I10877
g2
ssI10879
(dp1376
I10879
g2
ssI19073
(dp1377
I19073
g2
ssI10885
(dp1378
I10157
(I1
I1
tp1379
sI10885
g2
ssI10886
(dp1380
I10886
g2
ssI19080
(dp1381
I19080
g2
ssI10889
(dp1382
I10889
g2
ssI10892
(dp1383
I25283
(I1
I1
tp1384
sI10892
g2
ssI10896
(dp1385
I10896
g2
sI18804
(I1
I1
tp1386
ssI2705
(dp1387
I2705
g2
ssI19090
(dp1388
I19090
g2
ssI19093
(dp1389
I19093
g2
ssI10902
(dp1390
I10902
g2
sI10535
(I1
I1
tp1391
ssI2713
(dp1392
I2713
g2
sI998
(I1
I1
tp1393
sI14399
(I1
I1
tp1394
ssI10910
(dp1395
I10910
g2
ssI10912
(dp1396
I10912
g2
ssI10915
(dp1397
I10915
g2
ssI2724
(dp1398
I18866
(I1
I1
tp1399
sI2724
g2
ssI20934
(dp1400
I20934
g2
ssI26005
(dp1401
I26005
g2
ssI19115
(dp1402
I19115
g2
ssI19119
(dp1403
I19119
g2
ssI10930
(dp1404
I10930
g2
ssI10932
(dp1405
I10932
g2
ssI19127
(dp1406
I19127
g2
ssI19129
(dp1407
I8213
(I1
I1
tp1408
ssI10939
(dp1409
I10939
g2
ssI10941
(dp1410
I10941
g2
ssI10950
(dp1411
I10950
g2
ssI19148
(dp1412
I19148
g2
ssI20005
(dp1413
I20005
g2
ssI10960
(dp1414
I10960
g2
ssI2770
(dp1415
I15601
(I1
I1
tp1416
sI2770
g2
sI19755
(I1
I1
tp1417
sI14158
(I1
I1
tp1418
ssI10966
(dp1419
I10966
g2
ssI10973
(dp1420
I10973
g2
ssI10975
(dp1421
I10975
g2
ssI10980
(dp1422
I10980
g2
ssI10985
(dp1423
I10985
g2
ssI18215
(dp1424
I18215
g2
ssI10990
(dp1425
I10990
g2
ssI10999
(dp1426
I10999
g2
ssI11000
(dp1427
I11000
g2
ssI11001
(dp1428
I11001
g2
ssI11002
(dp1429
I11002
g2
ssI19199
(dp1430
I19199
g2
ssI2818
(dp1431
I2818
g2
ssI19204
(dp1432
I19204
g2
ssI11020
(dp1433
I11020
g2
ssI19217
(dp1434
I19217
g2
ssI11026
(dp1435
I11026
g2
ssI25551
(dp1436
I25551
g2
ssI2851
(dp1437
I2851
g2
sI16332
(I1
I1
tp1438
ssI2861
(dp1439
I2861
g2
ssI11056
(dp1440
I11056
g2
ssI2868
(dp1441
I23788
(I1
I1
tp1442
sI2868
g2
ssI2869
(dp1443
I24248
(I1
I1
tp1444
sI2869
g2
ssI19255
(dp1445
I19255
g2
ssI11064
(dp1446
I11064
g2
ssI11067
(dp1447
I11067
g2
ssI2876
(dp1448
I2876
g2
ssI2877
(dp1449
I4018
(I1
I1
tp1450
sI2877
g2
ssI11072
(dp1451
I11072
g2
ssI11073
(dp1452
I11073
g2
ssI19267
(dp1453
I19267
g2
ssI20961
(dp1454
I20961
g2
ssI11083
(dp1455
I1401
(I1
I1
tp1456
sI11083
g2
ssI19276
(dp1457
I19276
g2
ssI19277
(dp1458
I19277
g2
ssI19278
(dp1459
I19278
g2
ssI11088
(dp1460
I11088
g2
ssI25059
(dp1461
I25059
g2
ssI19284
(dp1462
I19284
g2
ssI19287
(dp1463
I19287
g2
ssI2905
(dp1464
I2905
g2
ssI2908
(dp1465
I2908
g2
ssI25061
(dp1466
I8838
(I1
I1
tp1467
sI19798
(I1
I1
tp1468
ssI11109
(dp1469
I11109
g2
ssI2923
(dp1470
I2923
g2
ssI19308
(dp1471
I19308
g2
ssI19316
(dp1472
I19316
g2
ssI19317
(dp1473
I3918
(I1
I1
tp1474
ssI11126
(dp1475
I11126
g2
ssI19319
(dp1476
I19319
g2
ssI11135
(dp1477
I521
(I1
I1
tp1478
sI11135
g2
ssI11136
(dp1479
I11136
g2
ssI11144
(dp1480
I11144
g2
ssI12781
(dp1481
I12781
g2
ssI11168
(dp1482
I11168
g2
ssI2979
(dp1483
I2979
g2
ssI19370
(dp1484
I19370
g2
ssI11179
(dp1485
I11179
g2
ssI11182
(dp1486
I3051
(I1
I1
tp1487
sI11182
g2
ssI2991
(dp1488
I2991
g2
ssI11184
(dp1489
I3051
(I1
I1
tp1490
ssI19377
(dp1491
I19377
g2
ssI14557
(dp1492
I14557
g2
ssI11187
(dp1493
I11187
g2
ssI19381
(dp1494
I19381
g2
ssI11192
(dp1495
I11192
g2
ssI19385
(dp1496
I19385
g2
ssI3003
(dp1497
I3003
g2
ssI11196
(dp1498
I11196
g2
ssI22346
(dp1499
I22346
g2
ssI19398
(dp1500
I19398
g2
ssI11209
(dp1501
I11209
g2
ssI11210
(dp1502
I11210
g2
ssI11212
(dp1503
I11212
g2
ssI11213
(dp1504
I11213
g2
ssI3022
(dp1505
I3022
g2
ssI3023
(dp1506
I4304
(I1
I1
tp1507
sI3023
g2
ssI20984
(dp1508
I20984
g2
ssI3031
(dp1509
I3031
g2
ssI19416
(dp1510
I19416
g2
ssI19417
(dp1511
I19417
g2
ssI11234
(dp1512
I11234
g2
ssI3044
(dp1513
I3044
g2
sI11830
(I1
I1
tp1514
ssI19430
(dp1515
I19430
g2
ssI11240
(dp1516
I11240
g2
ssI11241
(dp1517
I11241
g2
ssI3050
(dp1518
I3050
g2
ssI3051
(dp1519
I3051
g2
sI11182
(I1
I1
tp1520
sI11183
(I1
I1
tp1521
ssI3061
(dp1522
I3061
g2
ssI24925
(dp1523
I24925
g2
ssI3069
(dp1524
I3069
g2
ssI11262
(dp1525
I11262
g2
ssI11263
(dp1526
I11263
g2
ssI12800
(dp1527
I12800
g2
ssI19459
(dp1528
I19459
g2
ssI19462
(dp1529
I19462
g2
ssI11277
(dp1530
I11277
g2
ssI11281
(dp1531
I11281
g2
ssI11284
(dp1532
I11284
g2
ssI19477
(dp1533
I19477
g2
ssI19485
(dp1534
I19485
g2
ssI11295
(dp1535
I11295
g2
ssI11296
(dp1536
I11296
g2
ssI22363
(dp1537
I22363
g2
ssI3108
(dp1538
I3108
g2
ssI12806
(dp1539
I12806
g2
ssI3117
(dp1540
I3117
g2
ssI3118
(dp1541
I3118
g2
ssI11311
(dp1542
I11311
g2
ssI11315
(dp1543
I11315
g2
ssI11316
(dp1544
I11316
g2
ssI11319
(dp1545
I11319
g2
ssI11320
(dp1546
I11320
g2
ssI11323
(dp1547
I11323
g2
ssI25098
(dp1548
I25098
g2
ssI3141
(dp1549
I3141
g2
ssI19530
(dp1550
I19530
g2
ssI11341
(dp1551
I11341
g2
ssI11343
(dp1552
I11343
g2
ssI3152
(dp1553
I3152
g2
ssI11346
(dp1554
I11346
g2
ssI18275
(dp1555
I18275
g2
ssI8718
(dp1556
I8718
g2
ssI1892
(dp1557
I1892
g2
ssI3168
(dp1558
I3168
g2
ssI11362
(dp1559
I11362
g2
ssI19556
(dp1560
I11496
(I1
I1
tp1561
sI19556
g2
ssI11365
(dp1562
I11365
g2
ssI11368
(dp1563
I11368
g2
ssI11370
(dp1564
I11370
g2
ssI3180
(dp1565
I3180
g2
ssI18655
(dp1566
I18655
g2
ssI5993
(dp1567
I5993
g2
ssI11384
(dp1568
I11384
g2
sI1401
(I1
I1
tp1569
ssI11390
(dp1570
I11390
g2
ssI19587
(dp1571
I19587
g2
ssI11397
(dp1572
I11397
g2
ssI11398
(dp1573
I11398
g2
ssI22380
(dp1574
I22380
g2
ssI19594
(dp1575
I19594
g2
ssI3213
(dp1576
I3213
g2
ssI19599
(dp1577
I19599
g2
ssI22748
(dp1578
I22748
g2
ssI11413
(dp1579
I11413
g2
ssI19616
(dp1580
I19616
g2
ssI19622
(dp1581
I19622
g2
ssI3244
(dp1582
I3244
g2
ssI13747
(dp1583
I13747
g2
ssI3246
(dp1584
I3246
g2
ssI11439
(dp1585
I11439
g2
ssI23752
(dp1586
I23752
g2
ssI19634
(dp1587
I19634
g2
ssI19639
(dp1588
I19639
g2
ssI11449
(dp1589
I11449
g2
ssI3259
(dp1590
I3259
g2
sI8835
(I1
I1
tp1591
ssI3261
(dp1592
I3261
g2
ssI3262
(dp1593
I9627
(I1
I1
tp1594
sI9220
(I1
I1
tp1595
sI3262
g2
sI24795
(I2
I1
tp1596
ssI11458
(dp1597
I11458
g2
ssI11459
(dp1598
I11459
g2
ssI3273
(dp1599
I3273
g2
ssI20022
(dp1600
I20022
g2
ssI3277
(dp1601
I3277
g2
ssI19662
(dp1602
I19662
g2
ssI3287
(dp1603
I3287
g2
ssI3288
(dp1604
I3288
g2
ssI3289
(dp1605
I3289
g2
ssI11482
(dp1606
I11482
g2
ssI11484
(dp1607
I11484
g2
ssI11491
(dp1608
I11491
g2
ssI19686
(dp1609
I19686
g2
ssI11496
(dp1610
I11496
g2
sI19556
(I1
I1
tp1611
ssI23762
(dp1612
I23762
g2
ssI3311
(dp1613
I3311
g2
ssI11507
(dp1614
I11507
g2
sI11508
(I1
I1
tp1615
ssI11508
(dp1616
I14042
(I1
I1
tp1617
sI11507
(I1
I1
tp1618
sI11508
g2
ssI11510
(dp1619
I11510
g2
ssI3325
(dp1620
I3325
g2
ssI3326
(dp1621
I3326
g2
ssI19711
(dp1622
I19711
g2
ssI22881
(dp1623
I22881
g2
ssI16939
(dp1624
I16939
g2
ssI11529
(dp1625
I11529
g2
ssI19671
(dp1626
I19671
g2
ssI3340
(dp1627
I3340
g2
ssI11541
(dp1628
I11541
g2
ssI11542
(dp1629
I11541
(I1
I1
tp1630
ssI11481
(dp1631
I11482
(I1
I1
tp1632
ssI11552
(dp1633
I11552
g2
ssI23771
(dp1634
I23771
g2
ssI11557
(dp1635
I11557
g2
ssI11559
(dp1636
I11559
g2
ssI3368
(dp1637
I3368
g2
ssI19676
(dp1638
I19676
g2
ssI19755
(dp1639
I2770
(I1
I1
tp1640
sI19755
g2
ssI3373
(dp1641
I3373
g2
ssI11569
(dp1642
I11569
g2
ssI25139
(dp1643
I25139
g2
ssI3386
(dp1644
I3386
g2
ssI19771
(dp1645
I19771
g2
ssI25141
(dp1646
I25141
g2
ssI3397
(dp1647
I3397
g2
ssI19784
(dp1648
I19784
g2
ssI3404
(dp1649
I3404
g2
ssI19789
(dp1650
I19789
g2
ssI16952
(dp1651
I16952
g2
ssI19795
(dp1652
I19795
g2
ssI25755
(dp1653
I25755
g2
ssI3414
(dp1654
I5480
(I1
I1
tp1655
sI22344
(I1
I1
tp1656
sI970
(I1
I1
tp1657
sI3414
g2
sI22945
(I1
I1
tp1658
ssI19799
(dp1659
I19799
g2
ssI16954
(dp1660
I16954
g2
ssI19809
(dp1661
I19809
g2
ssI21051
(dp1662
I21051
g2
ssI23782
(dp1663
I23782
g2
ssI3933
(dp1664
I3933
g2
ssI3431
(dp1665
I3431
g2
ssI11627
(dp1666
I11627
g2
sI790
(I1
I1
tp1667
ssI19821
(dp1668
I19821
g2
ssI25149
(dp1669
I25149
g2
ssI11635
(dp1670
I11635
g2
ssI11637
(dp1671
I11637
g2
ssI11638
(dp1672
I11638
g2
ssI11639
(dp1673
I11639
g2
ssI25151
(dp1674
I25151
g2
ssI11644
(dp1675
I11644
g2
ssI19840
(dp1676
I19840
g2
ssI3458
(dp1677
I3458
g2
sI3460
(I1
I1
tp1678
ssI3460
(dp1679
I3458
(I1
I1
tp1680
sI15107
(I1
I1
tp1681
sI3460
g2
sI15111
(I1
I1
tp1682
sI12435
(I1
I1
tp1683
sI24020
(I1
I1
tp1684
sI15108
(I1
I1
tp1685
ssI11653
(dp1686
I11653
g2
ssI11661
(dp1687
I11661
g2
ssI11665
(dp1688
I11665
g2
ssI19859
(dp1689
I19859
g2
ssI11672
(dp1690
I11672
g2
ssI19867
(dp1691
I19867
g2
ssI11681
(dp1692
I11681
g2
ssI11683
(dp1693
I11683
g2
ssI11687
(dp1694
I11687
g2
ssI11691
(dp1695
I11691
g2
sI11692
(I1
I1
tp1696
ssI11692
(dp1697
I11691
(I1
I1
tp1698
sI11692
g2
ssI19890
(dp1699
I19890
g2
ssI11699
(dp1700
I11699
g2
ssI11701
(dp1701
I11701
g2
ssI19894
(dp1702
I19894
g2
ssI3514
(dp1703
I3514
g2
ssI3520
(dp1704
I3520
g2
ssI11713
(dp1705
I11713
g2
ssI3524
(dp1706
I3524
g2
ssI19702
(dp1707
I19702
g2
ssI19912
(dp1708
I19912
g2
ssI18338
(dp1709
I18115
(I1
I1
tp1710
ssI21070
(dp1711
I21070
g2
ssI11734
(dp1712
I11734
g2
ssI11735
(dp1713
I11735
g2
ssI3545
(dp1714
I3545
g2
ssI11738
(dp1715
I11738
g2
ssI23802
(dp1716
I23802
g2
ssI3551
(dp1717
I3551
g2
ssI3557
(dp1718
I3557
g2
ssI3564
(dp1719
I3564
g2
ssI3566
(dp1720
I3566
g2
ssI11760
(dp1721
I11760
g2
ssI3569
(dp1722
I3569
g2
ssI11762
(dp1723
I11762
g2
ssI3571
(dp1724
I3571
g2
ssI11765
(dp1725
I11765
g2
ssI3576
(dp1726
I3576
g2
ssI19961
(dp1727
I19961
g2
ssI11772
(dp1728
I11772
g2
ssI11773
(dp1729
I11773
g2
ssI19966
(dp1730
I19966
g2
ssI3590
(dp1731
I3590
g2
ssI3597
(dp1732
I3597
g2
ssI3598
(dp1733
I3597
(I1
I1
tp1734
ssI3603
(dp1735
I3603
g2
ssI3604
(dp1736
I3604
g2
sI575
(I1
I1
tp1737
ssI22446
(dp1738
I22446
g2
ssI19990
(dp1739
I19990
g2
ssI19994
(dp1740
I19994
g2
ssI3611
(dp1741
I3611
g2
ssI19996
(dp1742
I19996
g2
ssI3618
(dp1743
I3618
g2
ssI25179
(dp1744
I25179
g2
ssI11812
(dp1745
I11812
g2
ssI11813
(dp1746
I11813
g2
ssI20007
(dp1747
I18507
(I1
I1
tp1748
sI20007
g2
ssI3631
(dp1749
I3631
g2
ssI11826
(dp1750
I11826
g2
ssI3635
(dp1751
I3635
g2
ssI21086
(dp1752
I21086
g2
ssI11830
(dp1753
I3044
(I1
I1
tp1754
sI11830
g2
ssI11831
(dp1755
I11831
g2
ssI20025
(dp1756
I968
(I1
I1
tp1757
ssI20030
(dp1758
I20030
g2
ssI18357
(dp1759
I18357
g2
ssI20032
(dp1760
I20032
g2
ssI20033
(dp1761
I611
(I1
I1
tp1762
ssI11842
(dp1763
I11842
g2
ssI20035
(dp1764
I611
(I1
I1
tp1765
ssI3654
(dp1766
I3654
g2
ssI20039
(dp1767
I611
(I1
I1
tp1768
ssI11848
(dp1769
I11848
g2
ssI3657
(dp1770
I3657
g2
ssI11850
(dp1771
I11850
g2
ssI20044
(dp1772
I611
(I1
I1
tp1773
ssI20049
(dp1774
I20049
g2
ssI20050
(dp1775
I20051
(I1
I1
tp1776
ssI20051
(dp1777
I20051
g2
ssI20053
(dp1778
I20053
g2
ssI20055
(dp1779
I20055
g2
ssI20056
(dp1780
I20056
g2
ssI11866
(dp1781
I11866
g2
ssI11867
(dp1782
I11867
g2
ssI11870
(dp1783
I11870
g2
ssI3682
(dp1784
I3682
g2
ssI3685
(dp1785
I3685
g2
ssI3686
(dp1786
I3686
g2
ssI20072
(dp1787
I20072
g2
ssI3689
(dp1788
I3690
(I1
I1
tp1789
ssI3690
(dp1790
I3690
g2
sI14955
(I1
I1
tp1791
sI19055
(I1
I1
tp1792
ssI3691
(dp1793
I3691
g2
ssI3692
(dp1794
I3692
g2
ssI20080
(dp1795
I20080
g2
ssI3699
(dp1796
I3699
g2
ssI11892
(dp1797
I11892
g2
ssI20089
(dp1798
I20089
g2
ssI11903
(dp1799
I11903
g2
ssI11909
(dp1800
I11909
g2
ssI11914
(dp1801
I11914
g2
ssI11543
(dp1802
I11543
g2
ssI11922
(dp1803
I11922
g2
ssI3733
(dp1804
I3733
g2
ssI20121
(dp1805
I20121
g2
ssI3741
(dp1806
I4188
(I1
I1
tp1807
sI3741
g2
ssI20126
(dp1808
I20126
g2
ssI20128
(dp1809
I20128
g2
ssI20130
(dp1810
I20130
g2
ssI20147
(dp1811
I20147
g2
ssI20148
(dp1812
I20148
g2
sI46
(I2
I1
tp1813
ssI20153
(dp1814
I20153
g2
ssI3772
(dp1815
I3772
g2
ssI11968
(dp1816
I11968
g2
ssI11970
(dp1817
I11970
g2
ssI21110
(dp1818
I21110
g2
ssI20166
(dp1819
I20166
g2
ssI20169
(dp1820
I20169
g2
ssI3786
(dp1821
I3786
g2
ssI20178
(dp1822
I20178
g2
ssI11991
(dp1823
I11991
g2
ssI21949
(dp1824
I21949
g2
ssI23845
(dp1825
I23845
g2
ssI20193
(dp1826
I20193
g2
ssI20194
(dp1827
I20194
g2
ssI3813
(dp1828
I3813
g2
ssI3816
(dp1829
I3816
g2
ssI25987
(dp1830
I25987
g2
ssI12926
(dp1831
I12926
g2
ssI20214
(dp1832
I20214
g2
ssI3838
(dp1833
I3838
g2
ssI21120
(dp1834
I21120
g2
ssI20226
(dp1835
I20226
g2
ssI15660
(dp1836
I15660
g2
ssI20251
(dp1837
I20251
g2
ssI3872
(dp1838
I3872
g2
ssI3873
(dp1839
I3873
g2
ssI12066
(dp1840
I12066
g2
ssI22491
(dp1841
I22491
g2
ssI12070
(dp1842
I12070
g2
ssI3377
(dp1843
I3377
g2
ssI3881
(dp1844
I3881
g2
ssI20266
(dp1845
I20266
g2
ssI12077
(dp1846
I12077
g2
ssI20271
(dp1847
I20271
g2
ssI3891
(dp1848
I3891
g2
sI15773
(I2
I1
tp1849
ssI3893
(dp1850
I3891
(I1
I1
tp1851
sI15773
(I1
I1
tp1852
ssI3901
(dp1853
I3901
g2
ssI24953
(dp1854
I24953
g2
ssI3905
(dp1855
I3905
g2
ssI12100
(dp1856
I12100
g2
ssI20297
(dp1857
I20297
g2
ssI12106
(dp1858
I12106
g2
ssI3918
(dp1859
I4826
(I1
I1
tp1860
sI3918
g2
ssI12113
(dp1861
I12113
g2
ssI21135
(dp1862
I21135
g2
ssI12125
(dp1863
I12125
g2
ssI20321
(dp1864
I20321
g2
ssI3938
(dp1865
I3938
g2
ssI3940
(dp1866
I3940
g2
ssI3942
(dp1867
I3942
g2
ssI3949
(dp1868
I3949
g2
ssI12146
(dp1869
I12146
g2
ssI17223
(dp1870
I17223
g2
ssI3963
(dp1871
I3963
g2
ssI20349
(dp1872
I20349
g2
ssI3967
(dp1873
I3967
g2
ssI20353
(dp1874
I20353
g2
ssI17046
(dp1875
I17046
g2
ssI3975
(dp1876
I3975
g2
ssI20364
(dp1877
I20364
g2
ssI3982
(dp1878
I3982
g2
ssI20368
(dp1879
I20368
g2
ssI3986
(dp1880
I3986
g2
ssI3991
(dp1881
I3991
g2
ssI20378
(dp1882
I20378
g2
ssI12190
(dp1883
I12190
g2
ssI20384
(dp1884
I20384
g2
ssI20386
(dp1885
I20386
g2
ssI4004
(dp1886
I4004
g2
ssI20392
(dp1887
I20392
g2
ssI4013
(dp1888
I4013
g2
ssI12207
(dp1889
I12207
g2
ssI12209
(dp1890
I12209
g2
ssI4018
(dp1891
I4018
g2
sI2877
(I1
I1
tp1892
ssI4019
(dp1893
I2877
(I1
I1
tp1894
ssI4020
(dp1895
I4020
g2
ssI20409
(dp1896
I20409
g2
ssI12219
(dp1897
I12219
g2
ssI4028
(dp1898
I4028
g2
ssI4030
(dp1899
I4030
g2
ssI20417
(dp1900
I20417
g2
ssI4034
(dp1901
I4034
g2
ssI25249
(dp1902
I25249
g2
ssI12234
(dp1903
I12234
g2
ssI20430
(dp1904
I20430
g2
ssI4047
(dp1905
I4047
g2
ssI4051
(dp1906
I4051
g2
ssI4057
(dp1907
I4057
g2
ssI20443
(dp1908
I20443
g2
ssI4064
(dp1909
I4064
g2
ssI12259
(dp1910
I12259
g2
ssI4073
(dp1911
I4073
g2
ssI12266
(dp1912
I12266
g2
ssI20459
(dp1913
I20459
g2
ssI20466
(dp1914
I20466
g2
ssI20468
(dp1915
I20468
g2
ssI21161
(dp1916
I21161
g2
ssI4088
(dp1917
I4088
g2
ssI4091
(dp1918
I4091
g2
ssI12284
(dp1919
I12284
g2
ssI20478
(dp1920
I20478
g2
ssI20479
(dp1921
I20479
g2
ssI20480
(dp1922
I20480
g2
ssI19798
(dp1923
I8838
(I2
I1
tp1924
sI19798
g2
ssI20491
(dp1925
I20491
g2
ssI20493
(dp1926
I20493
g2
ssI20497
(dp1927
I20497
g2
ssI20499
(dp1928
I20499
g2
ssI20502
(dp1929
I20502
g2
ssI20506
(dp1930
I20506
g2
ssI20512
(dp1931
I20512
g2
ssI4131
(dp1932
I4131
g2
sI18804
(I1
I1
tp1933
ssI20517
(dp1934
I20517
g2
ssI12337
(dp1935
I12337
g2
sI14299
(I1
I1
tp1936
sI22454
(I1
I1
tp1937
ssI12338
(dp1938
I12338
g2
ssI4150
(dp1939
I4150
g2
ssI20535
(dp1940
I20535
g2
ssI12344
(dp1941
I12344
g2
ssI4153
(dp1942
I4153
g2
ssI4156
(dp1943
I8700
(I1
I1
tp1944
sI4156
g2
ssI4157
(dp1945
I4157
g2
ssI20542
(dp1946
I20542
g2
ssI25269
(dp1947
I25269
g2
ssI4166
(dp1948
I4166
g2
ssI20555
(dp1949
I20555
g2
ssI20563
(dp1950
I20563
g2
ssI12374
(dp1951
I12374
g2
ssI20569
(dp1952
I20569
g2
ssI4188
(dp1953
I4188
g2
sI3741
(I1
I1
tp1954
ssI25274
(dp1955
I25274
g2
ssI12390
(dp1956
I12390
g2
ssI20594
(dp1957
I20594
g2
ssI12404
(dp1958
I12404
g2
ssI12405
(dp1959
I12405
g2
ssI12413
(dp1960
I12413
g2
ssI12416
(dp1961
I12416
g2
ssI20613
(dp1962
I20897
(I1
I1
tp1963
sI20613
g2
ssI20616
(dp1964
I20616
g2
ssI20620
(dp1965
I20620
g2
ssI12435
(dp1966
I12435
g2
sI3460
(I1
I1
tp1967
ssI4244
(dp1968
I17858
(I1
I1
tp1969
sI4244
g2
ssI20629
(dp1970
I20629
g2
ssI20630
(dp1971
I20630
g2
ssI12439
(dp1972
I12439
g2
ssI4248
(dp1973
I4248
g2
ssI4249
(dp1974
I4249
g2
ssI12450
(dp1975
I12450
g2
sI13275
(I1
I1
tp1976
ssI4260
(dp1977
I4260
g2
ssI4261
(dp1978
I4261
g2
ssI4262
(dp1979
I4262
g2
ssI20651
(dp1980
I20651
g2
ssI21419
(dp1981
I21419
g2
ssI12462
(dp1982
I12462
g2
ssI4271
(dp1983
I4271
g2
ssI12469
(dp1984
I12469
g2
ssI17097
(dp1985
I17097
g2
ssI25145
(dp1986
I25145
g2
ssI21195
(dp1987
I21195
g2
ssI20676
(dp1988
I20676
g2
ssI12485
(dp1989
I12485
g2
ssI12486
(dp1990
I12486
g2
ssI4296
(dp1991
I4296
g2
ssI12489
(dp1992
I12489
g2
ssI12492
(dp1993
I12492
g2
ssI12494
(dp1994
I12494
g2
ssI12495
(dp1995
I12495
g2
ssI12496
(dp1996
I12496
g2
ssI22833
(dp1997
I22833
g2
ssI12505
(dp1998
I12505
g2
ssI20699
(dp1999
I20699
g2
ssI12511
(dp2000
I12511
g2
ssI13008
(dp2001
I13008
g2
ssI12517
(dp2002
I12517
g2
ssI20710
(dp2003
I20710
g2
ssI20717
(dp2004
I9848
(I1
I1
tp2005
ssI4338
(dp2006
I4338
g2
ssI12531
(dp2007
I12531
g2
ssI20725
(dp2008
I20725
g2
ssI12535
(dp2009
I12535
g2
ssI20728
(dp2010
I20728
g2
ssI4346
(dp2011
I4346
g2
ssI4348
(dp2012
I4348
g2
sI4350
(I1
I1
tp2013
ssI4350
(dp2014
I4348
(I1
I1
tp2015
sI4350
g2
ssI12543
(dp2016
I12543
g2
ssI12546
(dp2017
I12546
g2
ssI20740
(dp2018
I20740
g2
ssI20741
(dp2019
I20741
g2
ssI20742
(dp2020
I20742
g2
ssI4359
(dp2021
I4359
g2
ssI4362
(dp2022
I4362
g2
ssI4363
(dp2023
I4363
g2
ssI12556
(dp2024
I12556
g2
ssI12557
(dp2025
I12557
g2
ssI4370
(dp2026
I4370
g2
ssI20756
(dp2027
I20756
g2
ssI20764
(dp2028
I20764
g2
ssI12574
(dp2029
I12574
g2
ssI20769
(dp2030
I20769
g2
ssI12578
(dp2031
I12578
g2
ssI25308
(dp2032
I25308
g2
ssI20778
(dp2033
I20778
g2
ssI4404
(dp2034
I4404
g2
ssI12600
(dp2035
I12600
g2
ssI12601
(dp2036
I12601
g2
ssI4412
(dp2037
I4412
g2
ssI12608
(dp2038
I12608
g2
ssI12617
(dp2039
I12617
g2
ssI12622
(dp2040
I12622
g2
ssI4445
(dp2041
I16874
(I1
I1
tp2042
sI4445
g2
ssI12640
(dp2043
I12640
g2
ssI12644
(dp2044
I12644
g2
sI22525
(I1
I1
tp2045
sI17479
(I1
I1
tp2046
ssI17126
(dp2047
I17126
g2
ssI4456
(dp2048
I4456
g2
ssI25790
(dp2049
I25790
g2
ssI20848
(dp2050
I20848
g2
ssI12660
(dp2051
I12660
g2
ssI20861
(dp2052
I20861
g2
ssI12670
(dp2053
I12670
g2
ssI4486
(dp2054
I4486
g2
ssI4487
(dp2055
I4487
g2
ssI4488
(dp2056
I4488
g2
ssI12681
(dp2057
I12681
g2
ssI20874
(dp2058
I20874
g2
ssI12683
(dp2059
I12683
g2
ssI4492
(dp2060
I4492
g2
ssI12686
(dp2061
I12686
g2
ssI20879
(dp2062
I20879
g2
ssI18499
(dp2063
I18499
g2
ssI20884
(dp2064
I20884
g2
ssI4505
(dp2065
I4505
g2
ssI4506
(dp2066
I4506
g2
ssI20897
(dp2067
I20897
g2
sI20613
(I1
I1
tp2068
ssI12706
(dp2069
I12706
g2
ssI12707
(dp2070
I12707
g2
ssI4516
(dp2071
I4516
g2
ssI12709
(dp2072
I2121
(I1
I1
tp2073
sI2117
(I1
I1
tp2074
sI12709
g2
ssI12713
(dp2075
I12713
g2
ssI18503
(dp2076
I18503
g2
ssI20908
(dp2077
I20908
g2
ssI20909
(dp2078
I20909
g2
ssI20911
(dp2079
I20911
g2
ssI18505
(dp2080
I18505
g2
ssI12736
(dp2081
I12736
g2
ssI18507
(dp2082
I18507
g2
sI20007
(I1
I1
tp2083
ssI4548
(dp2084
I4548
g2
ssI12742
(dp2085
I12742
g2
ssI22604
(dp2086
I22604
g2
ssI25680
(dp2087
I25680
g2
ssI20943
(dp2088
I20943
g2
ssI20948
(dp2089
I20948
g2
ssI20951
(dp2090
I20951
g2
sI5359
(I1
I1
tp2091
ssI4572
(dp2092
I4572
g2
ssI4577
(dp2093
I4577
g2
ssI25339
(dp2094
I25339
g2
ssI12775
(dp2095
I12775
g2
ssI12778
(dp2096
I12778
g2
ssI12780
(dp2097
I12780
g2
ssI4589
(dp2098
I4589
g2
ssI17149
(dp2099
I17149
g2
ssI20976
(dp2100
I20976
g2
ssI10323
(dp2101
I10323
g2
ssI4600
(dp2102
I4600
g2
ssI4601
(dp2103
I4601
g2
ssI13055
(dp2104
I13055
g2
ssI20988
(dp2105
I20988
g2
ssI4608
(dp2106
I4608
g2
ssI21248
(dp2107
I21248
g2
ssI20994
(dp2108
I20994
g2
ssI12803
(dp2109
I12803
g2
ssI4612
(dp2110
I4612
g2
ssI4614
(dp2111
I4614
g2
ssI21000
(dp2112
I21000
g2
ssI4617
(dp2113
I4617
g2
ssI21007
(dp2114
I14033
(I1
I1
tp2115
sI21007
g2
ssI12816
(dp2116
I12816
g2
ssI21010
(dp2117
I21010
g2
ssI21013
(dp2118
I21013
g2
ssI21014
(dp2119
I21014
g2
ssI12825
(dp2120
I12825
g2
ssI12831
(dp2121
I12831
g2
ssI12833
(dp2122
I12833
g2
ssI12834
(dp2123
I12834
g2
ssI12836
(dp2124
I12834
(I1
I1
tp2125
ssI774
(dp2126
I774
g2
ssI21030
(dp2127
I21030
g2
ssI21031
(dp2128
I790
(I1
I1
tp2129
sI21031
g2
ssI21032
(dp2130
I21032
g2
ssI26069
(dp2131
I26069
g2
ssI4653
(dp2132
I4653
g2
ssI21041
(dp2133
I21041
g2
ssI4661
(dp2134
I4661
g2
ssI4662
(dp2135
I4662
g2
ssI4663
(dp2136
I4662
(I1
I1
tp2137
ssI12859
(dp2138
I12859
g2
ssI12868
(dp2139
I12868
g2
ssI15799
(dp2140
I15799
g2
ssI21068
(dp2141
I21068
g2
ssI12877
(dp2142
I12877
g2
ssI12878
(dp2143
I12878
g2
ssI4688
(dp2144
I4688
g2
ssI21075
(dp2145
I21075
g2
ssI12885
(dp2146
I12885
g2
ssI21082
(dp2147
I21082
g2
ssI12891
(dp2148
I12891
g2
ssI4700
(dp2149
I4700
g2
ssI12894
(dp2150
I12894
g2
ssI21089
(dp2151
I10088
(I1
I1
tp2152
ssI21090
(dp2153
I10088
(I2
I1
tp2154
ssI25361
(dp2155
I25361
g2
ssI21099
(dp2156
I21099
g2
ssI21100
(dp2157
I21100
g2
ssI21266
(dp2158
I21266
g2
ssI12911
(dp2159
I12911
g2
ssI12914
(dp2160
I12914
g2
ssI4725
(dp2161
I4725
g2
ssI4726
(dp2162
I4727
(I1
I1
tp2163
ssI4727
(dp2164
I10086
(I1
I1
tp2165
sI4727
g2
ssI21112
(dp2166
I21112
g2
ssI25953
(dp2167
I25953
g2
ssI12925
(dp2168
I12925
g2
ssI4734
(dp2169
I4734
g2
ssI12928
(dp2170
I12928
g2
ssI12929
(dp2171
I12929
g2
ssI790
(dp2172
I8854
(I1
I1
tp2173
sI21031
(I1
I1
tp2174
sI11627
(I1
I1
tp2175
sI8652
(I1
I1
tp2176
sI4015
(I1
I1
tp2177
sI790
g2
sI25209
(I1
I1
tp2178
sI9694
(I1
I1
tp2179
ssI12936
(dp2180
I12936
g2
ssI12937
(dp2181
I12937
g2
ssI21130
(dp2182
I21130
g2
ssI4749
(dp2183
I4749
g2
ssI12942
(dp2184
I12942
g2
ssI12943
(dp2185
I12943
g2
ssI12946
(dp2186
I12946
g2
ssI12947
(dp2187
I12947
g2
ssI19253
(dp2188
I19253
g2
ssI12951
(dp2189
I12951
g2
ssI22639
(dp2190
I22639
g2
ssI12958
(dp2191
I12958
g2
ssI15813
(dp2192
I15813
g2
ssI24709
(dp2193
I24709
g2
ssI12963
(dp2194
I8796
(I1
I1
tp2195
ssI4776
(dp2196
I4776
g2
ssI4777
(dp2197
I4777
g2
ssI21163
(dp2198
I21163
g2
ssI12973
(dp2199
I12973
g2
ssI21171
(dp2200
I21171
g2
ssI12985
(dp2201
I12985
g2
ssI21178
(dp2202
I21178
g2
ssI12990
(dp2203
I12990
g2
ssI21189
(dp2204
I21189
g2
ssI17185
(dp2205
I17185
g2
ssI13002
(dp2206
I611
(I1
I1
tp2207
ssI12708
(dp2208
I12708
g2
ssI13007
(dp2209
I13007
g2
ssI4816
(dp2210
I4816
g2
ssI21283
(dp2211
I21283
g2
ssI4826
(dp2212
I4826
g2
sI16517
(I1
I1
tp2213
sI3918
(I1
I1
tp2214
ssI13019
(dp2215
I13019
g2
ssI21212
(dp2216
I21212
g2
ssI4832
(dp2217
I4832
g2
ssI8617
(dp2218
I8617
g2
ssI13029
(dp2219
I13029
g2
ssI25383
(dp2220
I25383
g2
ssI13036
(dp2221
I13036
g2
ssI13037
(dp2222
I13037
g2
ssI13041
(dp2223
I13041
g2
ssI4853
(dp2224
I4853
g2
ssI13047
(dp2225
I13047
g2
ssI4856
(dp2226
I4856
g2
ssI21246
(dp2227
I21246
g2
ssI4863
(dp2228
I4863
g2
ssI4864
(dp2229
I4864
g2
sI15707
(I1
I1
tp2230
sI15708
(I1
I1
tp2231
ssI21250
(dp2232
I21250
g2
ssI17196
(dp2233
I17196
g2
ssI21265
(dp2234
I21265
g2
sI859
(I1
I1
tp2235
ssI4882
(dp2236
I4882
g2
ssI4889
(dp2237
I4889
g2
ssI4892
(dp2238
I4892
g2
ssI4894
(dp2239
I4894
g2
ssI21279
(dp2240
I21279
g2
ssI21280
(dp2241
I21280
g2
ssI13090
(dp2242
I13090
g2
ssI13091
(dp2243
I13091
g2
ssI13098
(dp2244
I13098
g2
ssI4907
(dp2245
I4907
g2
ssI13101
(dp2246
I13101
g2
ssI13109
(dp2247
I13109
g2
ssI13111
(dp2248
I13111
g2
ssI13125
(dp2249
I998
(I1
I1
tp2250
ssI13127
(dp2251
I13127
g2
ssI10380
(dp2252
I10380
g2
sI10006
(I1
I1
tp2253
ssI13130
(dp2254
I13130
g2
ssI4939
(dp2255
I4939
g2
ssI13132
(dp2256
I13132
g2
ssI13135
(dp2257
I13135
g2
ssI13136
(dp2258
I882
(I1
I1
tp2259
ssI13138
(dp2260
I13138
g2
ssI4948
(dp2261
I4948
g2
ssI13144
(dp2262
I13144
g2
ssI21339
(dp2263
I21339
g2
ssI13148
(dp2264
I13148
g2
ssI4957
(dp2265
I4957
g2
ssI13152
(dp2266
I13152
g2
ssI13154
(dp2267
I13154
g2
ssI21347
(dp2268
I21347
g2
ssI13158
(dp2269
I13158
g2
ssI4971
(dp2270
I4971
g2
ssI18578
(dp2271
I18578
g2
ssI2195
(dp2272
I2195
g2
ssI13172
(dp2273
I13172
g2
ssI4982
(dp2274
I4982
g2
ssI13176
(dp2275
I13176
g2
ssI25407
(dp2276
I21697
(I1
I1
tp2277
ssI4995
(dp2278
I4995
g2
ssI13188
(dp2279
I13188
g2
ssI13201
(dp2280
I13201
g2
ssI13206
(dp2281
I13206
g2
sI23383
(I1
I1
tp2282
ssI13210
(dp2283
I13210
g2
ssI13214
(dp2284
I13214
g2
ssI9029
(dp2285
I9029
g2
ssI3568
(dp2286
I3569
(I1
I1
tp2287
ssI5031
(dp2288
I5031
g2
ssI25809
(dp2289
I25809
g2
ssI9031
(dp2290
I9031
g2
ssI5036
(dp2291
I5036
g2
ssI24718
(dp2292
I24718
g2
ssI13129
(dp2293
I13129
g2
ssI5048
(dp2294
I611
(I1
I1
tp2295
ssI13245
(dp2296
I13245
g2
ssI5054
(dp2297
I5054
g2
ssI19957
(dp2298
I19957
g2
ssI13248
(dp2299
I13248
g2
ssI14496
(dp2300
I14496
g2
ssI13250
(dp2301
I13250
g2
ssI13251
(dp2302
I13251
g2
ssI13259
(dp2303
I13259
g2
ssI13261
(dp2304
I13261
g2
ssI19960
(dp2305
I19960
g2
ssI25422
(dp2306
I25422
g2
ssI13274
(dp2307
I13274
g2
ssI13275
(dp2308
I12450
(I1
I1
tp2309
sI13275
g2
sI13276
(I1
I1
tp2310
ssI13276
(dp2311
I13275
(I1
I1
tp2312
sI13276
g2
ssI5085
(dp2313
I5085
g2
sI10229
(I1
I1
tp2314
ssI13278
(dp2315
I13278
g2
ssI13280
(dp2316
I13280
g2
ssI13281
(dp2317
I13281
g2
ssI24447
(dp2318
I24447
g2
ssI25425
(dp2319
I2529
(I1
I1
tp2320
ssI13293
(dp2321
I13293
g2
ssI13294
(dp2322
I13294
g2
ssI13298
(dp2323
I13298
g2
ssI13301
(dp2324
I13301
g2
ssI13302
(dp2325
I13302
g2
ssI18601
(dp2326
I18601
g2
ssI13140
(dp2327
I13140
g2
ssI13310
(dp2328
I13310
g2
ssI17237
(dp2329
I17237
g2
ssI13314
(dp2330
I13314
g2
ssI13322
(dp2331
I13322
g2
ssI8900
(dp2332
I8900
g2
ssI13333
(dp2333
I13333
g2
ssI13336
(dp2334
I13336
g2
ssI13337
(dp2335
I13337
g2
ssI5153
(dp2336
I5153
g2
ssI13347
(dp2337
I13347
g2
ssI13351
(dp2338
I13351
g2
ssI25659
(dp2339
I25659
g2
sI1471
(I1
I1
tp2340
ssI21551
(dp2341
I21551
g2
ssI21552
(dp2342
I21552
g2
ssI13361
(dp2343
I13361
g2
sI13362
(I1
I1
tp2344
ssI13362
(dp2345
I13361
(I1
I1
tp2346
sI13362
g2
ssI21556
(dp2347
I21556
g2
ssI5174
(dp2348
I5174
g2
ssI21567
(dp2349
I21567
g2
ssI13377
(dp2350
I13377
g2
ssI13383
(dp2351
I13383
g2
ssI5192
(dp2352
I5192
g2
ssI13386
(dp2353
I13386
g2
ssI5197
(dp2354
I5197
g2
ssI5216
(dp2355
I5216
g2
ssI5229
(dp2356
I23091
(I1
I1
tp2357
sI5229
g2
sI23093
(I1
I1
tp2358
ssI13422
(dp2359
I13422
g2
ssI21615
(dp2360
I21614
(I1
I1
tp2361
ssI21618
(dp2362
I21618
g2
ssI13430
(dp2363
I13430
g2
ssI25449
(dp2364
I25449
g2
ssI21625
(dp2365
I21625
g2
ssI13434
(dp2366
I13434
g2
ssI13437
(dp2367
I13437
g2
ssI13441
(dp2368
I13441
g2
ssI13443
(dp2369
I13443
g2
ssI5258
(dp2370
I5258
g2
ssI13454
(dp2371
I13455
(I1
I1
tp2372
ssI13455
(dp2373
I13455
g2
ssI21650
(dp2374
I21650
g2
ssI21656
(dp2375
I3273
(I1
I1
tp2376
ssI9071
(dp2377
I9071
g2
ssI21665
(dp2378
I21665
g2
ssI13476
(dp2379
I13476
g2
ssI5294
(dp2380
I5294
g2
ssI13490
(dp2381
I13490
g2
ssI13493
(dp2382
I9926
(I1
I1
tp2383
ssI4980
(dp2384
I4980
g2
ssI21691
(dp2385
I21691
g2
ssI21692
(dp2386
I21692
g2
ssI13501
(dp2387
I13501
g2
ssI13502
(dp2388
I13502
g2
ssI5313
(dp2389
I5313
g2
ssI13507
(dp2390
I13507
g2
ssI5316
(dp2391
I5316
g2
ssI21701
(dp2392
I21701
g2
ssI21707
(dp2393
I21707
g2
ssI21708
(dp2394
I2770
(I1
I1
tp2395
ssI21714
(dp2396
I21714
g2
ssI13526
(dp2397
I13526
g2
ssI21721
(dp2398
I21721
g2
ssI13534
(dp2399
I13534
g2
ssI13535
(dp2400
I13535
g2
ssI21729
(dp2401
I21729
g2
ssI13541
(dp2402
I13541
g2
ssI21736
(dp2403
I21736
g2
ssI21742
(dp2404
I21742
g2
ssI5359
(dp2405
I20951
(I1
I1
tp2406
sI5359
g2
ssI21744
(dp2407
I21744
g2
ssI24104
(dp2408
I24104
g2
ssI25470
(dp2409
I25470
g2
ssI21750
(dp2410
I21750
g2
ssI13563
(dp2411
I13563
g2
ssI13569
(dp2412
I13569
g2
ssI21765
(dp2413
I21765
g2
ssI5387
(dp2414
I5387
g2
ssI21775
(dp2415
I15433
(I1
I1
tp2416
ssI13584
(dp2417
I13584
g2
ssI13586
(dp2418
I13586
g2
ssI13588
(dp2419
I13588
g2
ssI20015
(dp2420
I968
(I1
I1
tp2421
ssI5404
(dp2422
I5404
g2
ssI5407
(dp2423
I18096
(I1
I1
tp2424
sI5407
g2
ssI5409
(dp2425
I5409
g2
ssI5410
(dp2426
I5410
g2
ssI13606
(dp2427
I13606
g2
ssI21799
(dp2428
I21799
g2
ssI13609
(dp2429
I13609
g2
ssI13612
(dp2430
I13612
g2
ssI3634
(dp2431
I3634
g2
ssI13615
(dp2432
I13615
g2
ssI5425
(dp2433
I5425
g2
ssI5427
(dp2434
I5427
g2
ssI13621
(dp2435
I13621
g2
ssI5434
(dp2436
I5435
(I1
I1
tp2437
ssI5435
(dp2438
I5435
g2
ssI13630
(dp2439
I13630
g2
ssI5445
(dp2440
I5445
g2
ssI13638
(dp2441
I13638
g2
ssI13639
(dp2442
I10892
(I1
I1
tp2443
ssI5450
(dp2444
I5450
g2
ssI13644
(dp2445
I13644
g2
ssI13647
(dp2446
I13647
g2
ssI13648
(dp2447
I13648
g2
ssI13650
(dp2448
I13650
g2
ssI13656
(dp2449
I13656
g2
ssI13664
(dp2450
I13664
g2
ssI21859
(dp2451
I714
(I1
I1
tp2452
ssI13670
(dp2453
I13670
g2
ssI21863
(dp2454
I714
(I1
I1
tp2455
sI21863
g2
ssI5480
(dp2456
I5480
g2
sI3414
(I1
I1
tp2457
ssI13673
(dp2458
I13673
g2
sI10614
(I1
I1
tp2459
ssI21866
(dp2460
I714
(I1
I1
tp2461
ssI5484
(dp2462
I5484
g2
ssI13677
(dp2463
I13677
g2
ssI13690
(dp2464
I13690
g2
ssI5501
(dp2465
I5501
g2
ssI5505
(dp2466
I5505
g2
ssI13699
(dp2467
I13699
g2
ssI13701
(dp2468
I13701
g2
ssI5516
(dp2469
I5516
g2
ssI20034
(dp2470
I611
(I1
I1
tp2471
ssI13710
(dp2472
I13710
g2
ssI15939
(dp2473
I15939
g2
ssI13716
(dp2474
I13716
g2
ssI21912
(dp2475
I2724
(I1
I1
tp2476
ssI13721
(dp2477
I13721
g2
ssI13722
(dp2478
I13722
g2
ssI5535
(dp2479
I5535
g2
ssI21930
(dp2480
I21930
g2
ssI5547
(dp2481
I5547
g2
ssI5548
(dp2482
I5548
g2
ssI5550
(dp2483
I5550
g2
ssI13743
(dp2484
I13743
g2
ssI13744
(dp2485
I13744
g2
ssI3656
(dp2486
I3656
g2
ssI5555
(dp2487
I5555
g2
ssI22553
(dp2488
I22553
g2
ssI25460
(dp2489
I25459
(I1
I1
tp2490
ssI21946
(dp2491
I21946
g2
ssI20042
(dp2492
I611
(I1
I1
tp2493
ssI21950
(dp2494
I21950
g2
ssI5572
(dp2495
I5572
g2
ssI5573
(dp2496
I5573
g2
ssI21409
(dp2497
I21409
g2
ssI13771
(dp2498
I13771
g2
ssI5582
(dp2499
I5582
g2
ssI5583
(dp2500
I5583
g2
ssI13782
(dp2501
I13782
g2
ssI24143
(dp2502
I24143
g2
ssI21981
(dp2503
I21981
g2
ssI5598
(dp2504
I5598
g2
ssI21984
(dp2505
I21984
g2
ssI5603
(dp2506
I5603
g2
ssI5610
(dp2507
I5610
g2
ssI13803
(dp2508
I13803
g2
ssI22005
(dp2509
I22005
g2
ssI22011
(dp2510
I22011
g2
ssI13824
(dp2511
I970
(I1
I1
tp2512
ssI5635
(dp2513
I5635
g2
ssI13830
(dp2514
I970
(I1
I1
tp2515
ssI13832
(dp2516
I13832
g2
sI970
(I1
I1
tp2517
ssI21420
(dp2518
I21420
g2
ssI5643
(dp2519
I5643
g2
ssI22029
(dp2520
I22029
g2
ssI11372
(dp2521
I11372
g2
ssI5660
(dp2522
I5660
g2
ssI5664
(dp2523
I5664
g2
ssI5666
(dp2524
I5666
g2
ssI5672
(dp2525
I5672
g2
ssI22057
(dp2526
I22057
g2
ssI22058
(dp2527
I22058
g2
ssI5675
(dp2528
I5675
g2
ssI22063
(dp2529
I22063
g2
ssI13872
(dp2530
I13872
g2
ssI5683
(dp2531
I5683
g2
ssI5684
(dp2532
I5684
g2
ssI20062
(dp2533
I20062
g2
ssI22070
(dp2534
I22070
g2
ssI22072
(dp2535
I22072
g2
ssI13885
(dp2536
I13885
g2
ssI22078
(dp2537
I22078
g2
ssI22081
(dp2538
I22081
g2
ssI5699
(dp2539
I5699
g2
ssI13893
(dp2540
I13893
g2
ssI5707
(dp2541
I5707
g2
ssI20066
(dp2542
I20066
g2
ssI13902
(dp2543
I13902
g2
ssI5715
(dp2544
I5715
g2
ssI5716
(dp2545
I5716
g2
ssI22102
(dp2546
I22102
g2
ssI22107
(dp2547
I22107
g2
ssI5725
(dp2548
I5725
g2
ssI13919
(dp2549
I13919
g2
ssI22113
(dp2550
I22113
g2
ssI13923
(dp2551
I13923
g2
ssI13925
(dp2552
I13925
g2
ssI13926
(dp2553
I13926
g2
ssI5740
(dp2554
I5740
g2
ssI13935
(dp2555
I13935
g2
ssI5744
(dp2556
I5744
g2
sI5743
(I1
I1
tp2557
ssI13937
(dp2558
I13937
g2
ssI5747
(dp2559
I5747
g2
ssI13943
(dp2560
I13943
g2
ssI13944
(dp2561
I13943
(I1
I1
tp2562
ssI11882
(dp2563
I11882
g2
ssI5760
(dp2564
I5760
g2
ssI17344
(dp2565
I17344
g2
ssI11883
(dp2566
I11883
g2
ssI13956
(dp2567
I13956
g2
ssI13957
(dp2568
I13956
(I1
I1
tp2569
ssI13959
(dp2570
I16520
(I1
I1
tp2571
sI1013
(I1
I1
tp2572
sI13959
g2
ssI19733
(dp2573
I19733
g2
ssI5770
(dp2574
I5770
g2
ssI5773
(dp2575
I5773
g2
ssI22158
(dp2576
I22158
g2
ssI13967
(dp2577
I13967
g2
ssI22160
(dp2578
I22160
g2
ssI5778
(dp2579
I5778
g2
ssI5781
(dp2580
I5781
g2
ssI13974
(dp2581
I13974
g2
ssI19560
(dp2582
I19560
g2
ssI5790
(dp2583
I5790
g2
ssI5792
(dp2584
I5792
g2
ssI24176
(dp2585
I24176
g2
ssI5796
(dp2586
I5796
g2
ssI5799
(dp2587
I5799
g2
ssI13995
(dp2588
I13995
g2
ssI5804
(dp2589
I5804
g2
ssI21743
(dp2590
I21743
g2
ssI14000
(dp2591
I14000
g2
ssI26280
(dp2592
I13925
(I1
I1
tp2593
ssI5810
(dp2594
I5810
g2
ssI14005
(dp2595
I14005
g2
ssI14006
(dp2596
I14006
g2
ssI5815
(dp2597
I5815
g2
ssI14009
(dp2598
I14009
g2
sI14481
(I1
I1
tp2599
ssI5819
(dp2600
I5819
g2
ssI5820
(dp2601
I5820
g2
ssI14013
(dp2602
I14013
g2
ssI14015
(dp2603
I14015
g2
ssI14016
(dp2604
I14016
g2
ssI14018
(dp2605
I14018
g2
ssI17355
(dp2606
I17355
g2
ssI5833
(dp2607
I5833
g2
ssI14027
(dp2608
I14027
g2
ssI14029
(dp2609
I14029
g2
ssI5839
(dp2610
I5839
g2
ssI14033
(dp2611
I14033
g2
sI21007
(I1
I1
tp2612
ssI5843
(dp2613
I5843
g2
ssI5844
(dp2614
I5844
g2
ssI5845
(dp2615
I5845
g2
ssI17107
(dp2616
I17107
g2
ssI14039
(dp2617
I14039
g2
ssI14041
(dp2618
I14041
g2
ssI14042
(dp2619
I14042
g2
sI11508
(I1
I1
tp2620
ssI14043
(dp2621
I14043
g2
sI10157
(I1
I1
tp2622
ssI22238
(dp2623
I22238
g2
ssI26444
(dp2624
I26444
g2
ssI5859
(dp2625
I5859
g2
ssI5860
(dp2626
I5860
g2
ssI22245
(dp2627
I22245
g2
ssI20654
(dp2628
I20654
g2
ssI5874
(dp2629
I5874
g2
ssI17654
(dp2630
I17654
g2
ssI14083
(dp2631
I14083
g2
ssI17366
(dp2632
I17366
g2
ssI5894
(dp2633
I5891
(I1
I1
tp2634
sI5894
g2
ssI22279
(dp2635
I22279
g2
ssI22280
(dp2636
I22280
g2
ssI14089
(dp2637
I14089
g2
ssI25565
(dp2638
I25565
g2
ssI5904
(dp2639
I5891
(I1
I1
tp2640
ssI17368
(dp2641
I17368
g2
ssI22290
(dp2642
I22290
g2
ssI22294
(dp2643
I1523
(I1
I1
tp2644
ssI5911
(dp2645
I5911
g2
ssI14105
(dp2646
I14105
g2
ssI14107
(dp2647
I14107
g2
ssI22300
(dp2648
I22300
g2
ssI5922
(dp2649
I5922
g2
ssI22307
(dp2650
I22307
g2
ssI14119
(dp2651
I14119
g2
ssI22314
(dp2652
I22314
g2
ssI22317
(dp2653
I22317
g2
ssI5934
(dp2654
I5934
g2
ssI14127
(dp2655
I10749
(I1
I1
tp2656
ssI14139
(dp2657
I14139
g2
ssI14143
(dp2658
I14143
g2
ssI22339
(dp2659
I22339
g2
ssI14151
(dp2660
I14151
g2
ssI22344
(dp2661
I22344
g2
sI3414
(I1
I1
tp2662
ssI14153
(dp2663
I14153
g2
ssI14154
(dp2664
I14154
g2
ssI22347
(dp2665
I22347
g2
ssI14158
(dp2666
I2770
(I1
I1
tp2667
sI14158
g2
sI14159
(I1
I1
tp2668
ssI14159
(dp2669
I14158
(I1
I1
tp2670
sI14159
g2
ssI22361
(dp2671
I22361
g2
ssI22362
(dp2672
I22362
g2
ssI14171
(dp2673
I14171
g2
ssI22370
(dp2674
I22370
g2
ssI22372
(dp2675
I22372
g2
ssI14185
(dp2676
I14185
g2
ssI14187
(dp2677
I14187
g2
ssI5996
(dp2678
I5996
g2
ssI14190
(dp2679
I14190
g2
ssI14194
(dp2680
I14194
g2
ssI22387
(dp2681
I22387
g2
ssI6005
(dp2682
I6005
g2
ssI14203
(dp2683
I14203
g2
ssI11925
(dp2684
I11925
g2
ssI14209
(dp2685
I14209
g2
ssI6019
(dp2686
I6019
g2
ssI24478
(dp2687
I24477
(I1
I1
tp2688
sI24478
g2
ssI6029
(dp2689
I6029
g2
ssI22414
(dp2690
I22414
g2
ssI22415
(dp2691
I22415
g2
ssI14225
(dp2692
I14225
g2
ssI22419
(dp2693
I22419
g2
ssI14228
(dp2694
I14228
g2
ssI22422
(dp2695
I22422
g2
ssI25583
(dp2696
I25583
g2
ssI22428
(dp2697
I22428
g2
ssI6045
(dp2698
I6045
g2
ssI22431
(dp2699
I18100
(I1
I1
tp2700
ssI22432
(dp2701
I22432
g2
ssI22433
(dp2702
I22433
g2
ssI22441
(dp2703
I22441
g2
ssI22445
(dp2704
I22445
g2
ssI6062
(dp2705
I6062
g2
ssI26389
(dp2706
I26389
g2
ssI22454
(dp2707
I12337
(I1
I1
tp2708
sI22454
g2
ssI22455
(dp2709
I14363
(I1
I1
tp2710
ssI22456
(dp2711
I22456
g2
ssI22459
(dp2712
I22460
(I1
I1
tp2713
ssI22460
(dp2714
I22460
g2
ssI14269
(dp2715
I14269
g2
ssI14271
(dp2716
I14271
g2
ssI14283
(dp2717
I14283
g2
ssI22479
(dp2718
I22479
g2
ssI6096
(dp2719
I6096
g2
ssI14289
(dp2720
I14289
g2
ssI25299
(dp2721
I25299
g2
ssI14298
(dp2722
I14298
g2
ssI14299
(dp2723
I12337
(I1
I1
tp2724
sI14299
g2
ssI22493
(dp2725
I22493
g2
ssI22495
(dp2726
I22495
g2
ssI22498
(dp2727
I22498
g2
ssI22508
(dp2728
I22508
g2
ssI22509
(dp2729
I22509
g2
ssI6126
(dp2730
I6126
g2
ssI6127
(dp2731
I6127
g2
ssI14324
(dp2732
I14324
g2
ssI14328
(dp2733
I14328
g2
ssI14329
(dp2734
I14329
g2
ssI22525
(dp2735
I12644
(I1
I1
tp2736
sI22525
g2
ssI14339
(dp2737
I10749
(I1
I1
tp2738
ssI22532
(dp2739
I22532
g2
ssI14342
(dp2740
I14342
g2
ssI14344
(dp2741
I14344
g2
ssI14349
(dp2742
I14349
g2
ssI22549
(dp2743
I22549
g2
ssI14361
(dp2744
I14361
g2
ssI22554
(dp2745
I22554
g2
ssI14363
(dp2746
I14363
g2
sI19006
(I1
I1
tp2747
ssI22558
(dp2748
I22558
g2
ssI14369
(dp2749
I14369
g2
ssI14377
(dp2750
I14377
g2
ssI14379
(dp2751
I14379
g2
ssI14380
(dp2752
I14380
g2
ssI22573
(dp2753
I22573
g2
ssI22574
(dp2754
I22574
g2
ssI14384
(dp2755
I14384
g2
ssI22577
(dp2756
I22577
g2
ssI25575
(dp2757
I25575
g2
ssI14397
(dp2758
I14397
g2
ssI6206
(dp2759
I6206
g2
ssI14399
(dp2760
I2713
(I1
I1
tp2761
sI14399
g2
ssI22594
(dp2762
I3918
(I1
I1
tp2763
ssI22595
(dp2764
I3918
(I1
I1
tp2765
ssI22596
(dp2766
I3918
(I1
I1
tp2767
ssI14406
(dp2768
I14406
g2
ssI18785
(dp2769
I18785
g2
ssI22602
(dp2770
I22602
g2
ssI14412
(dp2771
I14412
g2
ssI14416
(dp2772
I14416
g2
ssI14417
(dp2773
I14416
(I1
I1
tp2774
ssI22616
(dp2775
I22616
g2
ssI25615
(dp2776
I25615
g2
ssI22621
(dp2777
I22621
g2
ssI22623
(dp2778
I22623
g2
ssI22625
(dp2779
I10727
(I1
I1
tp2780
ssI22626
(dp2781
I22626
g2
sI10727
(I1
I1
tp2782
ssI22627
(dp2783
I10727
(I1
I1
tp2784
ssI22629
(dp2785
I22629
g2
ssI22632
(dp2786
I22632
g2
ssI22638
(dp2787
I22638
g2
ssI14447
(dp2788
I14447
g2
ssI14454
(dp2789
I14454
g2
ssI14465
(dp2790
I14465
g2
ssI6276
(dp2791
I6276
g2
ssI14472
(dp2792
I14472
g2
ssI14474
(dp2793
I14474
g2
ssI6288
(dp2794
I6288
g2
ssI14481
(dp2795
I14009
(I1
I1
tp2796
sI15601
(I1
I1
tp2797
sI14481
g2
ssI25625
(dp2798
I25625
g2
ssI14490
(dp2799
I14490
g2
sI14492
(I1
I1
tp2800
ssI14492
(dp2801
I14490
(I1
I1
tp2802
sI14492
g2
ssI14493
(dp2803
I14493
g2
ssI14494
(dp2804
I14494
g2
ssI6304
(dp2805
I6304
g2
ssI14506
(dp2806
I14506
g2
ssI14508
(dp2807
I14508
g2
ssI6317
(dp2808
I6317
g2
ssI22703
(dp2809
I22703
g2
ssI22710
(dp2810
I22710
g2
ssI6331
(dp2811
I6331
g2
ssI25633
(dp2812
I25633
g2
ssI22728
(dp2813
I22728
g2
ssI14543
(dp2814
I14543
g2
ssI5155
(dp2815
I5155
g2
ssI14555
(dp2816
I14555
g2
ssI6364
(dp2817
I6364
g2
ssI6365
(dp2818
I6365
g2
ssI26399
(dp2819
I26399
g2
ssI5122
(dp2820
I5122
g2
ssI14564
(dp2821
I14564
g2
ssI14573
(dp2822
I14573
g2
ssI22768
(dp2823
I22768
g2
ssI24763
(dp2824
I24763
g2
ssI25641
(dp2825
I25641
g2
ssI14589
(dp2826
I14589
g2
ssI14591
(dp2827
I14591
g2
ssI22787
(dp2828
I22787
g2
ssI22792
(dp2829
I22792
g2
ssI22793
(dp2830
I22793
g2
ssI14608
(dp2831
I14608
g2
ssI22803
(dp2832
I22803
g2
ssI22805
(dp2833
I22805
g2
ssI14617
(dp2834
I14617
g2
sI859
(I1
I1
tp2835
ssI6429
(dp2836
I6429
g2
ssI6437
(dp2837
I6437
g2
ssI14630
(dp2838
I10419
(I1
I1
tp2839
sI14630
g2
ssI21553
(dp2840
I21553
g2
ssI6446
(dp2841
I6446
g2
sI6447
(I1
I1
tp2842
ssI6447
(dp2843
I6446
(I1
I1
tp2844
sI6447
g2
ssI6449
(dp2845
I6449
g2
ssI6455
(dp2846
I6455
g2
ssI6468
(dp2847
I6468
g2
ssI21558
(dp2848
I21558
g2
ssI22854
(dp2849
I22854
g2
ssI14663
(dp2850
I14663
g2
ssI14664
(dp2851
I14664
g2
ssI6473
(dp2852
I6473
g2
ssI22859
(dp2853
I22859
g2
ssI22865
(dp2854
I22865
g2
ssI14676
(dp2855
I14676
g2
ssI6485
(dp2856
I6485
g2
ssI22872
(dp2857
I22872
g2
ssI6493
(dp2858
I1008
(I2
I1
tp2859
sI6493
g2
ssI14686
(dp2860
I14686
g2
ssI22879
(dp2861
I22879
g2
ssI6497
(dp2862
I1008
(I1
I1
tp2863
sI6493
(I1
I1
tp2864
ssI14691
(dp2865
I14691
g2
ssI22885
(dp2866
I9970
(I1
I1
tp2867
ssI14695
(dp2868
I14695
g2
ssI14705
(dp2869
I14705
g2
ssI22899
(dp2870
I22899
g2
ssI14708
(dp2871
I14708
g2
ssI14709
(dp2872
I14709
g2
ssI14713
(dp2873
I14713
g2
ssI14718
(dp2874
I14718
g2
ssI22911
(dp2875
I22911
g2
ssI14722
(dp2876
I14722
g2
ssI6544
(dp2877
I6545
(I1
I1
tp2878
ssI6545
(dp2879
I6545
g2
ssI6546
(dp2880
I6546
g2
ssI25668
(dp2881
I25668
g2
ssI6555
(dp2882
I6555
g2
ssI22944
(dp2883
I22944
g2
ssI22945
(dp2884
I22945
g2
sI3414
(I1
I1
tp2885
ssI22948
(dp2886
I22948
g2
ssI14759
(dp2887
I14759
g2
ssI14761
(dp2888
I14761
g2
ssI22954
(dp2889
I22954
g2
ssI14763
(dp2890
I14763
g2
ssI14764
(dp2891
I14764
g2
ssI6576
(dp2892
I6576
g2
ssI6578
(dp2893
I6578
g2
ssI14771
(dp2894
I14771
g2
ssI14772
(dp2895
I14772
g2
ssI22965
(dp2896
I22965
g2
ssI22969
(dp2897
I22969
g2
ssI6586
(dp2898
I6586
g2
ssI14783
(dp2899
I14783
g2
ssI14784
(dp2900
I14784
g2
ssI22977
(dp2901
I22977
g2
ssI14786
(dp2902
I14786
g2
ssI22980
(dp2903
I22980
g2
ssI14793
(dp2904
I14793
g2
ssI24311
(dp2905
I24311
g2
ssI6604
(dp2906
I6604
g2
ssI22990
(dp2907
I1167
(I1
I1
tp2908
ssI14799
(dp2909
I14799
g2
ssI22992
(dp2910
I22992
g2
ssI26407
(dp2911
I26407
g2
ssI14804
(dp2912
I14804
g2
ssI14806
(dp2913
I14806
g2
ssI23000
(dp2914
I23000
g2
ssI1104
(dp2915
I1104
g2
ssI6626
(dp2916
I6626
g2
ssI23407
(dp2917
I23407
g2
ssI23014
(dp2918
I23014
g2
ssI6635
(dp2919
I6635
g2
ssI6636
(dp2920
I6636
g2
ssI23024
(dp2921
I23024
g2
ssI23026
(dp2922
I5845
(I1
I1
tp2923
ssI14836
(dp2924
I14836
g2
ssI14838
(dp2925
I14838
g2
ssI23035
(dp2926
I23035
g2
sI1207
(I1
I1
tp2927
ssI23037
(dp2928
I23037
g2
ssI23038
(dp2929
I23038
g2
ssI6658
(dp2930
I6658
g2
ssI6659
(dp2931
I6659
g2
ssI23044
(dp2932
I23044
g2
ssI22956
(dp2933
I22956
g2
ssI23050
(dp2934
I23050
g2
ssI14859
(dp2935
I14859
g2
ssI14867
(dp2936
I14867
g2
ssI6679
(dp2937
I6679
g2
ssI14873
(dp2938
I14873
g2
ssI14875
(dp2939
I14875
g2
ssI23070
(dp2940
I23070
g2
ssI23078
(dp2941
I22859
(I1
I1
tp2942
ssI23079
(dp2943
I23079
g2
ssI6698
(dp2944
I6698
g2
ssI23091
(dp2945
I23091
g2
sI5229
(I1
I1
tp2946
ssI23093
(dp2947
I5229
(I1
I1
tp2948
sI23093
g2
ssI20233
(dp2949
I20233
g2
ssI14907
(dp2950
I14907
g2
ssI23100
(dp2951
I23100
g2
sI2550
(I1
I1
tp2952
ssI23101
(dp2953
I23101
g2
sI2550
(I1
I1
tp2954
ssI6720
(dp2955
I6720
g2
ssI14919
(dp2956
I14919
g2
ssI23112
(dp2957
I23112
g2
ssI23113
(dp2958
I23113
g2
ssI23114
(dp2959
I23114
g2
ssI14929
(dp2960
I14929
g2
ssI14931
(dp2961
I14931
g2
ssI14937
(dp2962
I37
(I1
I1
tp2963
ssI6748
(dp2964
I6748
g2
ssI23137
(dp2965
I23137
g2
ssI23138
(dp2966
I23137
(I1
I1
tp2967
ssI23139
(dp2968
I23139
g2
ssI14955
(dp2969
I3690
(I1
I1
tp2970
sI14955
g2
ssI14956
(dp2971
I14956
g2
ssI23149
(dp2972
I23149
g2
ssI14959
(dp2973
I14959
g2
ssI14961
(dp2974
I14961
g2
ssI14972
(dp2975
I14972
g2
ssI14975
(dp2976
I14975
g2
ssI14979
(dp2977
I14979
g2
ssI14982
(dp2978
I14982
g2
ssI14987
(dp2979
I14987
g2
ssI23187
(dp2980
I23425
(I1
I1
tp2981
sI23187
g2
ssI23188
(dp2982
I23188
g2
ssI5230
(dp2983
I5230
g2
ssI18884
(dp2984
I18884
g2
ssI15002
(dp2985
I15002
g2
ssI6811
(dp2986
I6811
g2
ssI23196
(dp2987
I23196
g2
ssI23202
(dp2988
I23202
g2
ssI15016
(dp2989
I15016
g2
ssI23215
(dp2990
I23901
(I1
I1
tp2991
sI23215
g2
ssI23216
(dp2992
I23216
g2
ssI10696
(dp2993
I10696
g2
ssI15028
(dp2994
I15028
g2
sI15029
(I1
I1
tp2995
ssI15029
(dp2996
I15028
(I1
I1
tp2997
sI15029
g2
ssI15034
(dp2998
I15034
g2
ssI15043
(dp2999
I15043
g2
ssI10321
(dp3000
I10321
g2
sI25102
(I1
I1
tp3001
sI25113
(I1
I1
tp3002
ssI22988
(dp3003
I22988
g2
ssI21778
(dp3004
I21778
g2
ssI15051
(dp3005
I15051
g2
sI839
(I1
I1
tp3006
ssI23246
(dp3007
I23246
g2
ssI25870
(dp3008
I25870
g2
ssI15061
(dp3009
I15061
g2
ssI23256
(dp3010
I23256
g2
sI23651
(I1
I1
tp3011
ssI22991
(dp3012
I1167
(I1
I1
tp3013
ssI15069
(dp3014
I15069
g2
ssI6879
(dp3015
I6879
g2
ssI15082
(dp3016
I15082
g2
ssI23279
(dp3017
I23279
g2
ssI15092
(dp3018
I15092
g2
ssI6904
(dp3019
I6904
g2
ssI18900
(dp3020
I18900
g2
ssI22598
(dp3021
I3918
(I1
I1
tp3022
ssI23297
(dp3023
I23297
g2
ssI15107
(dp3024
I15107
g2
sI3460
(I1
I1
tp3025
ssI15108
(dp3026
I15108
g2
sI3460
(I1
I1
tp3027
ssI23301
(dp3028
I23301
g2
ssI15111
(dp3029
I3460
(I1
I1
tp3030
sI15111
g2
ssI24364
(dp3031
I24364
g2
ssI15117
(dp3032
I15117
g2
ssI23310
(dp3033
I23310
g2
ssI23311
(dp3034
I23311
g2
ssI6928
(dp3035
I6928
g2
ssI1155
(dp3036
I1155
g2
ssI23316
(dp3037
I23316
g2
ssI15133
(dp3038
I15133
g2
ssI15234
(dp3039
I15234
g2
ssI15137
(dp3040
I15137
g2
ssI15138
(dp3041
I14119
(I1
I1
tp3042
ssI6953
(dp3043
I6953
g2
ssI23360
(dp3044
I2705
(I1
I1
tp3045
ssI14817
(dp3046
I14817
g2
ssI15178
(dp3047
I859
(I1
I1
tp3048
ssI23010
(dp3049
I23010
g2
ssI6993
(dp3050
I6993
g2
ssI15187
(dp3051
I15187
g2
ssI23383
(dp3052
I13206
(I1
I1
tp3053
sI23383
g2
ssI25744
(dp3054
I25744
g2
ssI24379
(dp3055
I25968
(I1
I1
tp3056
sI24379
g2
ssI23399
(dp3057
I23399
g2
ssI10727
(dp3058
I22626
(I1
I1
tp3059
sI10502
(I1
I1
tp3060
sI10727
g2
ssI15213
(dp3061
I15213
g2
ssI15215
(dp3062
I11713
(I1
I1
tp3063
ssI15223
(dp3064
I15223
g2
ssI23419
(dp3065
I23419
g2
ssI23422
(dp3066
I23422
g2
ssI15232
(dp3067
I15232
g2
ssI23425
(dp3068
I23425
g2
sI23187
(I1
I1
tp3069
ssI7042
(dp3070
I7042
g2
ssI23427
(dp3071
I23427
g2
ssI23429
(dp3072
I23429
g2
ssI15238
(dp3073
I15238
g2
ssI23433
(dp3074
I23433
g2
ssI15242
(dp3075
I15242
g2
ssI15243
(dp3076
I15243
g2
ssI15244
(dp3077
I15244
g2
ssI15248
(dp3078
I15248
g2
ssI15258
(dp3079
I15258
g2
ssI7067
(dp3080
I7067
g2
ssI15260
(dp3081
I15260
g2
ssI17563
(dp3082
I17563
g2
ssI15273
(dp3083
I15273
g2
ssI15275
(dp3084
I15275
g2
ssI15276
(dp3085
I15276
g2
ssI15281
(dp3086
I15281
g2
ssI15284
(dp3087
I15284
g2
ssI15289
(dp3088
I15289
g2
ssI15292
(dp3089
I15289
(I1
I1
tp3090
ssI3914
(dp3091
I611
(I1
I1
tp3092
ssI15294
(dp3093
I15294
g2
ssI15300
(dp3094
I15300
g2
ssI1185
(dp3095
I1185
g2
ssI15304
(dp3096
I15304
g2
ssI15306
(dp3097
I15306
g2
ssI15308
(dp3098
I15308
g2
ssI15310
(dp3099
I15310
g2
ssI15323
(dp3100
I15323
g2
ssI15324
(dp3101
I15324
g2
ssI15328
(dp3102
I15328
g2
ssI15329
(dp3103
I15329
g2
ssI15330
(dp3104
I15330
g2
ssI15336
(dp3105
I15336
g2
ssI25767
(dp3106
I25767
g2
ssI15350
(dp3107
I15350
g2
ssI15353
(dp3108
I15353
g2
ssI20697
(dp3109
I20697
g2
ssI15357
(dp3110
I15357
g2
ssI17151
(dp3111
I17151
g2
ssI7176
(dp3112
I7176
g2
ssI25772
(dp3113
I25772
g2
ssI14851
(dp3114
I14851
g2
ssI25608
(dp3115
I25608
g2
ssI23426
(dp3116
I23426
g2
ssI17584
(dp3117
I17584
g2
ssI15396
(dp3118
I15396
g2
ssI22608
(dp3119
I22608
g2
ssI15401
(dp3120
I15401
g2
ssI23598
(dp3121
I23598
g2
ssI7215
(dp3122
I7215
g2
ssI15408
(dp3123
I15408
g2
ssI15412
(dp3124
I15412
g2
ssI15413
(dp3125
I15413
g2
ssI15417
(dp3126
I15417
g2
ssI15419
(dp3127
I15419
g2
ssI15423
(dp3128
I15423
g2
ssI15433
(dp3129
I15433
g2
ssI15435
(dp3130
I15435
g2
ssI15436
(dp3131
I15436
g2
ssI15437
(dp3132
I15437
g2
ssI15439
(dp3133
I15439
g2
ssI15443
(dp3134
I15443
g2
ssI15444
(dp3135
I15444
g2
ssI25785
(dp3136
I25785
g2
ssI15453
(dp3137
I15453
g2
ssI23651
(dp3138
I23256
(I1
I1
tp3139
sI23651
g2
ssI17598
(dp3140
I17598
g2
ssI21697
(dp3141
I21697
g2
ssI15496
(dp3142
I15496
g2
ssI7314
(dp3143
I7314
g2
sI7966
(I1
I1
tp3144
ssI21700
(dp3145
I21700
g2
ssI15522
(dp3146
I15522
g2
ssI15523
(dp3147
I15523
g2
ssI11069
(dp3148
I11069
g2
ssI15525
(dp3149
I15525
g2
ssI15560
(dp3150
I15560
g2
sI275
(I1
I1
tp3151
ssI15563
(dp3152
I15563
g2
ssI25805
(dp3153
I25805
g2
ssI15568
(dp3154
I15568
g2
ssI17158
(dp3155
I17158
g2
ssI7380
(dp3156
I7380
g2
ssI15579
(dp3157
I15579
g2
ssI23772
(dp3158
I23772
g2
ssI23774
(dp3159
I23774
g2
ssI23775
(dp3160
I23775
g2
ssI23776
(dp3161
I23776
g2
ssI23777
(dp3162
I2188
(I1
I1
tp3163
ssI15586
(dp3164
I15586
g2
ssI15587
(dp3165
I15587
g2
ssI15590
(dp3166
I15590
g2
ssI23783
(dp3167
I23783
g2
ssI23786
(dp3168
I23786
g2
ssI23788
(dp3169
I23788
g2
sI2868
(I1
I1
tp3170
ssI15601
(dp3171
I14481
(I1
I1
tp3172
sI2770
(I1
I1
tp3173
sI15601
g2
ssI7410
(dp3174
I7410
g2
ssI15603
(dp3175
I15603
g2
ssI23797
(dp3176
I23797
g2
ssI15610
(dp3177
I15610
g2
ssI20351
(dp3178
I20351
g2
ssI23082
(dp3179
I23082
g2
ssI15615
(dp3180
I15615
g2
ssI15616
(dp3181
I15616
g2
ssI15617
(dp3182
I15617
g2
ssI15621
(dp3183
I15621
g2
ssI15624
(dp3184
I15624
g2
ssI15627
(dp3185
I15627
g2
ssI15629
(dp3186
I15629
g2
ssI17180
(dp3187
I17180
g2
ssI15634
(dp3188
I15634
g2
ssI23829
(dp3189
I23829
g2
ssI25818
(dp3190
I25818
g2
ssI15649
(dp3191
I15649
g2
ssI15650
(dp3192
I15650
g2
ssI15651
(dp3193
I15651
g2
ssI15653
(dp3194
I15653
g2
ssI15657
(dp3195
I15657
g2
ssI7468
(dp3196
I7468
g2
ssI15661
(dp3197
I15661
g2
ssI15669
(dp3198
I15669
g2
ssI24457
(dp3199
I24457
g2
ssI23866
(dp3200
I23866
g2
ssI21727
(dp3201
I21727
g2
ssI15679
(dp3202
I2130
(I1
I1
tp3203
ssI15681
(dp3204
I15681
g2
ssI23883
(dp3205
I1351
(I1
I1
tp3206
ssI15700
(dp3207
I15700
g2
ssI23895
(dp3208
I23895
g2
ssI15707
(dp3209
I4864
(I1
I1
tp3210
sI15707
g2
ssI15708
(dp3211
I4864
(I1
I1
tp3212
sI15708
g2
ssI23901
(dp3213
I23901
g2
sI23215
(I1
I1
tp3214
ssI15710
(dp3215
I15710
g2
ssI23908
(dp3216
I23908
g2
ssI23911
(dp3217
I23911
g2
ssI15720
(dp3218
I15720
g2
ssI23914
(dp3219
I23914
g2
ssI15724
(dp3220
I15724
g2
ssI23918
(dp3221
I23918
g2
ssI23931
(dp3222
I23931
g2
ssI15741
(dp3223
I15741
g2
ssI23936
(dp3224
I23936
g2
ssI23944
(dp3225
I23944
g2
ssI23956
(dp3226
I23956
g2
ssI15771
(dp3227
I15771
g2
ssI15773
(dp3228
I3891
(I2
I1
tp3229
sI15773
g2
ssI15775
(dp3230
I15775
g2
ssI15777
(dp3231
I15777
g2
ssI15778
(dp3232
I15778
g2
ssI15779
(dp3233
I15779
g2
ssI15781
(dp3234
I15781
g2
ssI15787
(dp3235
I15787
g2
ssI21257
(dp3236
I21257
g2
ssI24477
(dp3237
I24477
g2
sI24478
(I1
I1
tp3238
ssI20382
(dp3239
I20382
g2
ssI7607
(dp3240
I7607
g2
ssI23994
(dp3241
I23994
g2
ssI25845
(dp3242
I25845
g2
ssI7621
(dp3243
I7621
g2
ssI15815
(dp3244
I15815
g2
ssI15817
(dp3245
I15817
g2
sI15818
(I1
I1
tp3246
ssI15818
(dp3247
I15817
(I1
I1
tp3248
sI15818
g2
ssI15820
(dp3249
I15820
g2
ssI15821
(dp3250
I15821
g2
ssI15822
(dp3251
I15822
g2
ssI15824
(dp3252
I15824
g2
ssI24020
(dp3253
I24020
g2
sI3460
(I1
I1
tp3254
ssI15831
(dp3255
I15831
g2
ssI24029
(dp3256
I24029
g2
ssI9467
(dp3257
I9467
g2
ssI26169
(dp3258
I26169
g2
ssI24039
(dp3259
I24039
g2
ssI15848
(dp3260
I15848
g2
ssI15850
(dp3261
I15850
g2
ssI24046
(dp3262
I24046
g2
ssI24048
(dp3263
I24048
g2
ssI24053
(dp3264
I24053
g2
ssI20073
(dp3265
I20073
g2
ssI24060
(dp3266
I24060
g2
ssI24491
(dp3267
I24491
g2
ssI24080
(dp3268
I24080
g2
ssI15892
(dp3269
I15892
g2
ssI4015
(dp3270
I790
(I1
I1
tp3271
sI4015
g2
ssI7708
(dp3272
I7708
g2
ssI24093
(dp3273
I18022
(I1
I1
tp3274
ssI15902
(dp3275
I15902
g2
ssI15905
(dp3276
I15905
g2
ssI24099
(dp3277
I24099
g2
ssI20401
(dp3278
I20401
g2
ssI15912
(dp3279
I15912
g2
ssI24110
(dp3280
I24110
g2
ssI19037
(dp3281
I19037
g2
ssI24117
(dp3282
I24117
g2
ssI24118
(dp3283
I2529
(I1
I1
tp3284
sI24118
g2
ssI25865
(dp3285
I25865
g2
ssI24120
(dp3286
I24120
g2
ssI15937
(dp3287
I15937
g2
ssI15938
(dp3288
I15938
g2
ssI1291
(dp3289
I1291
g2
ssI24133
(dp3290
I24133
g2
ssI24134
(dp3291
I24134
g2
ssI24136
(dp3292
I24136
g2
ssI17676
(dp3293
I17676
g2
ssI15951
(dp3294
I15951
g2
ssI15953
(dp3295
I968
(I1
I1
tp3296
sI15953
g2
ssI15956
(dp3297
I15956
g2
ssI17678
(dp3298
I17678
g2
ssI15967
(dp3299
I15967
g2
ssI10079
(dp3300
I37
(I1
I1
tp3301
sI10079
g2
ssI15975
(dp3302
I15975
g2
ssI15976
(dp3303
I15976
g2
ssI15981
(dp3304
I15981
g2
ssI7792
(dp3305
I7792
g2
ssI20414
(dp3306
I20414
g2
ssI15992
(dp3307
I15992
g2
ssI15993
(dp3308
I15993
g2
ssI25877
(dp3309
I25877
g2
ssI24512
(dp3310
I24512
g2
ssI24194
(dp3311
I24194
g2
ssI24197
(dp3312
I24197
g2
ssI16007
(dp3313
I8213
(I1
I1
tp3314
ssI23148
(dp3315
I23148
g2
ssI16019
(dp3316
I16019
g2
ssI16023
(dp3317
I16023
g2
ssI24217
(dp3318
I24217
g2
ssI16032
(dp3319
I16032
g2
ssI7841
(dp3320
I7841
g2
ssI24228
(dp3321
I24228
g2
ssI16037
(dp3322
I16037
g2
ssI7847
(dp3323
I7847
g2
ssI25884
(dp3324
I25884
g2
ssI24236
(dp3325
I24236
g2
ssI24520
(dp3326
I24520
g2
ssI7860
(dp3327
I7860
g2
ssI24248
(dp3328
I24248
g2
sI10129
(I1
I1
tp3329
sI2869
(I1
I1
tp3330
ssI21791
(dp3331
I21791
g2
ssI7869
(dp3332
I7869
g2
ssI24524
(dp3333
I24524
g2
ssI24270
(dp3334
I24270
g2
ssI7891
(dp3335
I7891
g2
ssI24278
(dp3336
I24278
g2
ssI24284
(dp3337
I24284
g2
ssI24287
(dp3338
I24287
g2
ssI24289
(dp3339
I24289
g2
ssI24295
(dp3340
I24295
g2
ssI16104
(dp3341
I16104
g2
ssI24297
(dp3342
I24297
g2
ssI24298
(dp3343
I24298
g2
ssI24299
(dp3344
I24299
g2
ssI16109
(dp3345
I16109
g2
ssI24302
(dp3346
I24302
g2
ssI24305
(dp3347
I24305
g2
ssI16117
(dp3348
I1480
(I1
I1
tp3349
sI16117
g2
ssI16119
(dp3350
I1480
(I1
I1
tp3351
sI16119
g2
ssI24532
(dp3352
I24532
g2
ssI24321
(dp3353
I24321
g2
ssI24323
(dp3354
I24323
g2
ssI24324
(dp3355
I24324
g2
ssI16137
(dp3356
I16137
g2
ssI21805
(dp3357
I21805
g2
ssI24336
(dp3358
I24336
g2
ssI7966
(dp3359
I7314
(I1
I1
tp3360
sI7966
g2
ssI16166
(dp3361
I16166
g2
ssI16169
(dp3362
I16169
g2
ssI16172
(dp3363
I16172
g2
ssI24365
(dp3364
I24365
g2
ssI24366
(dp3365
I24366
g2
ssI24541
(dp3366
I24541
g2
ssI24369
(dp3367
I24369
g2
ssI16178
(dp3368
I16178
g2
ssI21811
(dp3369
I21811
g2
ssI16187
(dp3370
I16187
g2
ssI16192
(dp3371
I16192
g2
ssI25910
(dp3372
I25910
g2
ssI20998
(dp3373
I20998
g2
ssI24401
(dp3374
I24401
g2
ssI24402
(dp3375
I24402
g2
ssI20451
(dp3376
I20451
g2
ssI24404
(dp3377
I24404
g2
ssI16214
(dp3378
I16214
g2
ssI16218
(dp3379
I16218
g2
ssI24415
(dp3380
I24415
g2
ssI25915
(dp3381
I25915
g2
ssI24420
(dp3382
I24420
g2
ssI16230
(dp3383
I16230
g2
ssI24424
(dp3384
I24424
g2
ssI24425
(dp3385
I16804
(I1
I1
tp3386
ssI25917
(dp3387
I25917
g2
ssI16251
(dp3388
I16251
g2
ssI16255
(dp3389
I16255
g2
ssI16259
(dp3390
I16259
g2
ssI16262
(dp3391
I16262
g2
ssI16265
(dp3392
I16265
g2
ssI16267
(dp3393
I16267
g2
ssI24462
(dp3394
I24462
g2
ssI24466
(dp3395
I24466
g2
ssI23194
(dp3396
I23194
g2
ssI8094
(dp3397
I8094
g2
ssI13637
(dp3398
I13637
g2
ssI16288
(dp3399
I16288
g2
ssI24486
(dp3400
I24486
g2
ssI24488
(dp3401
I24488
g2
ssI24490
(dp3402
I24490
g2
ssI16299
(dp3403
I16299
g2
ssI25928
(dp3404
I25928
g2
ssI24501
(dp3405
I24501
g2
ssI22531
(dp3406
I22531
g2
ssI16910
(dp3407
I16910
g2
ssI24508
(dp3408
I859
(I1
I1
tp3409
sI24508
g2
ssI24509
(dp3410
I24509
g2
ssI16320
(dp3411
I16320
g2
ssI16322
(dp3412
I16322
g2
ssI16327
(dp3413
I611
(I1
I1
tp3414
ssI16328
(dp3415
I16328
g2
ssI16331
(dp3416
I16331
g2
ssI16332
(dp3417
I2851
(I1
I1
tp3418
sI16332
g2
ssI24527
(dp3419
I24527
g2
ssI16336
(dp3420
I16336
g2
ssI16340
(dp3421
I16340
g2
ssI24538
(dp3422
I24538
g2
ssI24549
(dp3423
I24549
g2
ssI16349
(dp3424
I2503
(I1
I1
tp3425
ssI16351
(dp3426
I16351
g2
ssI18548
(dp3427
I18548
g2
ssI20475
(dp3428
I20475
g2
ssI11183
(dp3429
I3051
(I1
I1
tp3430
sI11183
g2
ssI24556
(dp3431
I24556
g2
ssI24560
(dp3432
I24560
g2
ssI24561
(dp3433
I24561
g2
ss.