(dp0
I25096
(dp1
I25096
(I0
I1
tp2
ssI11
(dp3
I11
g2
ssI13
(dp4
I13
g2
ssI24591
(dp5
I11101
(I1
I1
tp6
ssI15208
(dp7
I15208
g2
ssI14356
(dp8
I14356
g2
ssI24597
(dp9
I24597
g2
ssI23897
(dp10
I23897
g2
ssI24600
(dp11
I24600
g2
ssI16411
(dp12
I16411
g2
ssI28
(dp13
I28
g2
ssI4128
(dp14
I4128
g2
ssI24609
(dp15
I24609
g2
ssI2083
(dp16
I2084
(I1
I1
tp17
ssI2084
(dp18
I2084
g2
ssI39
(dp19
I39
g2
ssI40
(dp20
I40
g2
ssI41
(dp21
I41
g2
ssI18478
(dp22
I18478
g2
ssI16437
(dp23
I16437
g2
ssI6202
(dp24
I6202
g2
ssI16445
(dp25
I16445
g2
ssI4159
(dp26
I4159
g2
ssI22592
(dp27
I9808
(I1
I1
tp28
ssI14404
(dp29
I14404
g2
ssI22597
(dp30
I22597
g2
ssI18504
(dp31
I18504
g2
ssI22541
(dp32
I22541
g2
ssI18512
(dp33
I18512
g2
ssI22610
(dp34
I18568
(I1
I1
tp35
sI22610
g2
ssI22613
(dp36
I22613
g2
ssI6236
(dp37
I6236
g2
ssI2141
(dp38
I426
(I1
I1
tp39
ssI94
(dp40
I94
g2
ssI4191
(dp41
I4191
g2
ssI96
(dp42
I97
(I1
I1
tp43
ssI97
(dp44
I97
g2
ssI98
(dp45
I98
g2
ssI24251
(dp46
I24251
g2
ssI16485
(dp47
I16485
g2
ssI102
(dp48
I102
g2
ssI109
(dp49
I109
g2
sI111
(I1
I1
tp50
ssI23190
(dp51
I23190
g2
ssI111
(dp52
I109
(I1
I1
tp53
sI111
g2
ssI18545
(dp54
I18545
g2
ssI4210
(dp55
I4210
g2
sI4211
(I1
I1
tp56
ssI4211
(dp57
I4210
(I1
I1
tp58
sI4211
g2
ssI2168
(dp59
I2168
g2
ssI24704
(dp60
I24704
g2
sI24705
(I1
I1
tp61
ssI24705
(dp62
I24704
(I1
I1
tp63
sI24705
g2
ssI18568
(dp64
I18568
g2
sI22610
(I1
I1
tp65
ssI24599
(dp66
I19955
(I1
I1
tp67
sI24599
g2
ssI16525
(dp68
I16525
g2
ssI1389
(dp69
I1389
g2
ssI16528
(dp70
I16528
g2
sI10158
(I1
I1
tp71
ssI2193
(dp72
I2193
g2
ssI24725
(dp73
I24725
g2
ssI14488
(dp74
I14488
g2
ssI18585
(dp75
I10116
(I1
I1
tp76
ssI16541
(dp77
I16541
g2
ssI10398
(dp78
I10398
g2
ssI22689
(dp79
I22689
g2
ssI16546
(dp80
I16546
g2
ssI22555
(dp81
I22555
g2
ssI18596
(dp82
I288
(I2
I1
tp83
ssI18597
(dp84
I288
(I1
I1
tp85
ssI11633
(dp86
I11633
g2
ssI16412
(dp87
I16412
g2
sI5831
(I1
I1
tp88
ssI20653
(dp89
I20653
g2
ssI14514
(dp90
I14514
g2
ssI2228
(dp91
I2228
g2
ssI16572
(dp92
I16572
g2
ssI2239
(dp93
I2239
g2
ssI18625
(dp94
I18625
g2
ssI2242
(dp95
I2239
(I1
I1
tp96
ssI24773
(dp97
I24773
g2
ssI22726
(dp98
I22726
g2
ssI13345
(dp99
I13345
g2
ssI14537
(dp100
I14537
g2
ssI18634
(dp101
I18634
g2
ssI24781
(dp102
I24781
g2
ssI6350
(dp103
I6350
g2
ssI17101
(dp104
I17102
(I1
I1
tp105
ssI16419
(dp106
I16419
g2
ssI6356
(dp107
I9410
(I1
I1
tp108
sI12923
(I1
I1
tp109
sI6356
g2
ssI18647
(dp110
I18647
g2
ssI2264
(dp111
I2264
g2
sI18241
(I1
I1
tp112
ssI18649
(dp113
I18649
g2
ssI12507
(dp114
I12507
g2
ssI10460
(dp115
I10460
g2
ssI6367
(dp116
I6367
g2
ssI226
(dp117
I226
g2
ssI2276
(dp118
I2276
g2
ssI12518
(dp119
I12518
g2
ssI20715
(dp120
I20715
g2
ssI16622
(dp121
I16622
g2
ssI16623
(dp122
I16623
g2
ssI22568
(dp123
I22568
g2
ssI6391
(dp124
I6391
g2
ssI4345
(dp125
I4345
g2
ssI16767
(dp126
I16767
g2
ssI12541
(dp127
I12541
g2
ssI6401
(dp128
I6401
g2
ssI10499
(dp129
I10499
g2
ssI12549
(dp130
I12549
g2
ssI6409
(dp131
I6409
g2
sI14826
(I1
I1
tp132
ssI20746
(dp133
I20746
g2
ssI25645
(dp134
I25645
g2
ssI12560
(dp135
I12560
g2
ssI12563
(dp136
I12564
(I1
I1
tp137
ssI12564
(dp138
I12564
g2
sI16733
(I1
I1
tp139
ssI16661
(dp140
I16661
g2
sI16662
(I1
I1
tp141
ssI16662
(dp142
I16661
(I1
I1
tp143
sI16662
g2
ssI14615
(dp144
I14615
g2
ssI19503
(dp145
I19503
g2
ssI16668
(dp146
I16668
g2
ssI288
(dp147
I288
g2
ssI22817
(dp148
I22817
g2
ssI14626
(dp149
I14626
g2
ssI293
(dp150
I293
g2
ssI4390
(dp151
I4390
g2
ssI24151
(dp152
I24151
g2
ssI22037
(dp153
I19500
(I1
I1
tp154
sI22037
g2
ssI14638
(dp155
I14638
g2
ssI4399
(dp156
I4399
g2
ssI18824
(dp157
I18824
g2
ssI24884
(dp158
I24884
g2
ssI24887
(dp159
I24887
g2
ssI24889
(dp160
I24889
g2
ssI319
(dp161
I4547
(I1
I1
tp162
sI319
g2
ssI24896
(dp163
I24896
g2
ssI16708
(dp164
I16708
g2
ssI16711
(dp165
I1675
(I1
I1
tp166
ssI396
(dp167
I4042
(I1
I1
tp168
sI396
g2
ssI18763
(dp169
I18763
g2
ssI13241
(dp170
I13242
(I1
I1
tp171
ssI17123
(dp172
I17123
g2
ssI16782
(dp173
I16782
g2
ssI12634
(dp174
I13859
(I1
I1
tp175
sI12634
g2
sI747
(I1
I1
tp176
ssI16733
(dp177
I12564
(I1
I1
tp178
sI16733
g2
ssI22884
(dp179
I22884
g2
ssI16745
(dp180
I16745
g2
ssI26199
(dp181
I26199
g2
ssI18796
(dp182
I18796
g2
ssI9618
(dp183
I9618
g2
ssI20846
(dp184
I20846
g2
ssI23446
(dp185
I23446
g2
ssI4466
(dp186
I4466
g2
ssI15763
(dp187
I15763
g2
ssI18808
(dp188
I18808
g2
ssI18810
(dp189
I18810
g2
ssI4479
(dp190
I4479
g2
ssI22912
(dp191
I22912
g2
ssI747
(dp192
I13033
(I1
I1
tp193
sI16202
(I1
I1
tp194
sI747
g2
sI16206
(I1
I1
tp195
sI12634
(I1
I1
tp196
sI16191
(I1
I1
tp197
sI13052
(I1
I1
tp198
sI16222
(I1
I1
tp199
sI991
(I1
I1
tp200
ssI12677
(dp201
I12677
g2
ssI392
(dp202
I392
g2
ssI12682
(dp203
I12682
g2
ssI16779
(dp204
I6027
(I1
I1
tp205
sI16779
g2
sI3037
(I1
I1
tp206
ssI12684
(dp207
I12684
g2
ssI24973
(dp208
I24973
g2
ssI4494
(dp209
I4494
g2
ssI12693
(dp210
I12693
g2
ssI20548
(dp211
I20548
g2
ssI4508
(dp212
I4508
g2
sI4510
(I1
I1
tp213
ssI4510
(dp214
I4508
(I1
I1
tp215
sI4510
g2
ssI24993
(dp216
I24993
g2
ssI12710
(dp217
I12710
g2
ssI10663
(dp218
I10663
g2
ssI18856
(dp219
I18856
g2
ssI25001
(dp220
I25001
g2
ssI426
(dp221
I11586
(I1
I1
tp222
sI12899
(I1
I1
tp223
sI1285
(I1
I1
tp224
sI426
g2
sI11597
(I1
I1
tp225
sI9808
(I2
I1
tp226
ssI427
(dp227
I428
(I1
I1
tp228
ssI428
(dp229
I428
g2
ssI429
(dp230
I429
g2
sI430
(I1
I1
tp231
ssI430
(dp232
I429
(I1
I1
tp233
sI430
g2
ssI433
(dp234
I433
g2
ssI435
(dp235
I435
g2
ssI12729
(dp236
I12729
g2
ssI12733
(dp237
I12733
g2
ssI4543
(dp238
I319
(I1
I1
tp239
ssI22976
(dp240
I426
(I1
I1
tp241
ssI4547
(dp242
I4547
g2
sI319
(I1
I1
tp243
ssI23065
(dp244
I23065
g2
ssI19873
(dp245
I19873
g2
ssI16840
(dp246
I16840
g2
ssI12746
(dp247
I12746
g2
ssI8653
(dp248
I8653
g2
ssI14803
(dp249
I14803
g2
ssI16855
(dp250
I16855
g2
ssI12763
(dp251
I12763
g2
ssI20956
(dp252
I20956
g2
ssI12771
(dp253
I12771
g2
sI4917
(I1
I1
tp254
ssI12772
(dp255
I12772
g2
ssI19046
(dp256
I4968
(I1
I1
tp257
ssI12777
(dp258
I12777
g2
ssI14826
(dp259
I6409
(I1
I1
tp260
sI14826
g2
ssI24076
(dp261
I24076
g2
ssI2548
(dp262
I288
(I1
I1
tp263
ssI18933
(dp264
I18933
g2
ssI10742
(dp265
I10742
g2
ssI12793
(dp266
I12793
g2
ssI8698
(dp267
I426
(I1
I1
tp268
sI1285
(I1
I1
tp269
ssI12797
(dp270
I12797
g2
ssI2559
(dp271
I2559
g2
ssI16898
(dp272
I16898
g2
ssI8709
(dp273
I8709
g2
sI599
(I1
I1
tp274
ssI22999
(dp275
I22999
g2
ssI4615
(dp276
I4615
g2
ssI18952
(dp277
I18952
g2
ssI21002
(dp278
I21002
g2
ssI18956
(dp279
I18956
g2
ssI10765
(dp280
I3437
(I1
I1
tp281
sI10765
g2
ssI4622
(dp282
I4622
g2
ssI23055
(dp283
I23055
g2
ssI8723
(dp284
I8723
g2
ssI2580
(dp285
I2580
g2
ssI16814
(dp286
I16814
g2
ssI10777
(dp287
I10777
g2
ssI12827
(dp288
I12827
g2
ssI542
(dp289
I542
g2
ssI13061
(dp290
I13061
g2
ssI544
(dp291
I544
g2
ssI14885
(dp292
I14885
g2
ssI12839
(dp293
I12839
g2
ssI2603
(dp294
I3833
(I1
I1
tp295
sI2603
g2
ssI25138
(dp296
I25138
g2
ssI16819
(dp297
I3833
(I1
I1
tp298
sI16819
g2
ssI10334
(dp299
I10334
g2
ssI2617
(dp300
I2617
g2
sI11790
(I1
I1
tp301
ssI8767
(dp302
I8767
g2
ssI14432
(dp303
I14432
g2
ssI16962
(dp304
I16962
g2
ssI25157
(dp305
I3833
(I1
I1
tp306
sI25157
g2
ssI4678
(dp307
I4678
g2
ssI19020
(dp308
I426
(I1
I1
tp309
ssI10829
(dp310
I10829
g2
ssI19028
(dp311
I19028
g2
ssI23125
(dp312
I23125
g2
ssI598
(dp313
I598
g2
sI599
(I1
I1
tp314
ssI599
(dp315
I8709
(I1
I1
tp316
sI598
(I1
I1
tp317
sI599
g2
ssI8794
(dp318
I11816
(I1
I1
tp319
sI9768
(I1
I1
tp320
sI8794
g2
ssI2653
(dp321
I2653
g2
ssI21605
(dp322
I21605
g2
ssI12896
(dp323
I12896
g2
ssI12899
(dp324
I426
(I1
I1
tp325
sI12899
g2
ssI16997
(dp326
I16997
g2
ssI12902
(dp327
I12902
g2
ssI19048
(dp328
I19048
g2
sI19049
(I1
I1
tp329
ssI13756
(dp330
I13756
g2
sI13757
(I1
I1
tp331
ssI25197
(dp332
I10890
(I1
I1
tp333
ssI8637
(dp334
I8637
g2
ssI2672
(dp335
I2672
g2
ssI629
(dp336
I629
g2
sI18039
(I1
I1
tp337
ssI23158
(dp338
I23158
g2
ssI25705
(dp339
I16662
(I1
I1
tp340
ssI19934
(dp341
I19934
g2
ssI447
(dp342
I17452
(I1
I1
tp343
sI447
g2
ssI14976
(dp344
I14976
g2
ssI21121
(dp345
I21121
g2
ssI14978
(dp346
I14978
g2
ssI21124
(dp347
I21124
g2
ssI21126
(dp348
I21126
g2
ssI25223
(dp349
I25223
g2
ssI21128
(dp350
I21128
g2
ssI10890
(dp351
I10890
g2
ssI10894
(dp352
I10894
g2
ssI19089
(dp353
I19089
g2
ssI25234
(dp354
I25234
g2
ssI8851
(dp355
I8851
g2
ssI21140
(dp356
I21140
g2
ssI12950
(dp357
I12950
g2
ssI19095
(dp358
I19095
g2
ssI8860
(dp359
I8860
g2
ssI25973
(dp360
I25973
g2
ssI671
(dp361
I671
g2
ssI25712
(dp362
I25712
g2
sI3833
(I1
I1
tp363
ssI8870
(dp364
I8870
g2
ssI19049
(dp365
I19048
(I1
I1
tp366
sI19049
g2
ssI4780
(dp367
I4780
g2
sI3375
(I1
I1
tp368
ssI18547
(dp369
I18547
g2
ssI19125
(dp370
I19125
g2
ssI2744
(dp371
I2744
g2
sI3833
(I1
I1
tp372
ssI17081
(dp373
I426
(I1
I1
tp374
ssI10938
(dp375
I10938
g2
ssI12987
(dp376
I12987
g2
ssI4796
(dp377
I4796
g2
ssI21181
(dp378
I21181
g2
ssI702
(dp379
I702
g2
sI5798
(I1
I1
tp380
ssI8895
(dp381
I4042
(I1
I1
tp382
sI8895
g2
ssI10946
(dp383
I10946
g2
ssI24011
(dp384
I24011
g2
ssI12996
(dp385
I12996
g2
ssI12997
(dp386
I12997
g2
ssI17099
(dp387
I17099
g2
ssI10956
(dp388
I10956
g2
ssI15053
(dp389
I15053
g2
ssI17102
(dp390
I17102
g2
ssI23247
(dp391
I23247
g2
ssI25529
(dp392
I25529
g2
ssI10963
(dp393
I10963
g2
ssI729
(dp394
I729
g2
ssI23259
(dp395
I23259
g2
ssI4830
(dp396
I4830
g2
ssI13024
(dp397
I13024
g2
ssI21218
(dp398
I21218
g2
ssI739
(dp399
I739
g2
sI743
(I1
I1
tp400
ssI743
(dp401
I739
(I1
I1
tp402
sI743
g2
ssI13033
(dp403
I13033
g2
sI747
(I1
I1
tp404
ssI10987
(dp405
I10987
g2
ssI19181
(dp406
I19181
g2
ssI21232
(dp407
I21232
g2
ssI753
(dp408
I753
g2
ssI21235
(dp409
I21235
g2
ssI4852
(dp410
I11376
(I1
I1
tp411
sI11377
(I1
I1
tp412
sI4852
g2
ssI13052
(dp413
I747
(I1
I1
tp414
sI13052
g2
ssI11009
(dp415
I11009
g2
ssI8962
(dp416
I8962
g2
ssI11013
(dp417
I11013
g2
ssI8968
(dp418
I8968
g2
ssI11017
(dp419
I11017
g2
ssI19210
(dp420
I19210
g2
ssI18903
(dp421
I18903
g2
ssI11021
(dp422
I11021
g2
sI3375
(I1
I1
tp423
ssI11028
(dp424
I11028
g2
ssI26145
(dp425
I10116
(I1
I1
tp426
ssI25368
(dp427
I25368
g2
ssI17177
(dp428
I17177
g2
ssI2845
(dp429
I20300
(I1
I1
tp430
sI2845
g2
ssI25374
(dp431
I25374
g2
ssI19231
(dp432
I19231
g2
ssI2523
(dp433
I2523
g2
ssI19239
(dp434
I19239
g2
ssI23337
(dp435
I23337
g2
ssI11050
(dp436
I11050
g2
ssI23339
(dp437
I9344
(I1
I1
tp438
sI23339
g2
ssI21293
(dp439
I21293
g2
ssI816
(dp440
I816
g2
ssI13106
(dp441
I13106
g2
ssI4917
(dp442
I12771
(I1
I1
tp443
sI17980
(I1
I1
tp444
sI4917
g2
ssI15161
(dp445
I15161
g2
ssI18372
(dp446
I18372
g2
ssI4929
(dp447
I4929
g2
ssI21643
(dp448
I21643
g2
ssI7308
(dp449
I7308
g2
ssI13131
(dp450
I13131
g2
ssI19280
(dp451
I19280
g2
sI2963
(I1
I1
tp452
ssI11093
(dp453
I11093
g2
ssI15194
(dp454
I6356
(I1
I1
tp455
ssI25947
(dp456
I25947
g2
ssI11101
(dp457
I11101
g2
ssI26085
(dp458
I26085
g2
ssI4963
(dp459
I4963
g2
ssI9060
(dp460
I9060
g2
ssI869
(dp461
I9778
(I1
I1
tp462
sI868
(I1
I1
tp463
sI869
g2
ssI4968
(dp464
I4968
g2
ssI2922
(dp465
I2922
g2
ssI25455
(dp466
I25455
g2
ssI25747
(dp467
I25747
g2
ssI885
(dp468
I885
g2
ssI11128
(dp469
I11128
g2
ssI25671
(dp470
I25671
g2
ssI20289
(dp471
I19847
(I1
I1
tp472
ssI5001
(dp473
I5001
g2
ssI13194
(dp474
I13194
g2
ssI26149
(dp475
I10116
(I1
I1
tp476
ssI911
(dp477
I911
g2
ssI16536
(dp478
I16536
g2
ssI2963
(dp479
I19280
(I1
I1
tp480
sI2963
g2
ssI13204
(dp481
I13204
g2
ssI18716
(dp482
I18716
g2
ssI19351
(dp483
I226
(I1
I1
tp484
ssI924
(dp485
I924
g2
ssI925
(dp486
I925
g2
ssI23454
(dp487
I23454
g2
ssI13215
(dp488
I13215
g2
ssI13226
(dp489
I13226
g2
ssI19374
(dp490
I10116
(I1
I1
tp491
ssI15279
(dp492
I15279
g2
ssI15280
(dp493
I15280
g2
ssI18248
(dp494
I18248
g2
ssI2998
(dp495
I2998
g2
ssI15287
(dp496
I15286
(I1
I1
tp497
sI15287
g2
ssI20642
(dp498
I20642
g2
sI1071
(I1
I1
tp499
ssI953
(dp500
I953
g2
sI5723
(I1
I1
tp501
ssI13242
(dp502
I13242
g2
ssI25532
(dp503
I25532
g2
ssI16202
(dp504
I16202
g2
sI747
(I1
I1
tp505
ssI25534
(dp506
I25534
g2
ssI23487
(dp507
I23487
g2
ssI25536
(dp508
I25536
g2
ssI25537
(dp509
I25537
g2
ssI25538
(dp510
I25538
g2
ssI965
(dp511
I965
g2
ssI20300
(dp512
I20300
g2
sI2845
(I1
I1
tp513
ssI3020
(dp514
I3020
g2
ssI15990
(dp515
I15990
g2
ssI17360
(dp516
I17360
g2
ssI977
(dp517
I977
g2
sI979
(I1
I1
tp518
ssI9170
(dp519
I9171
(I1
I1
tp520
ssI9171
(dp521
I9171
g2
ssI10745
(dp522
I10745
g2
ssI25561
(dp523
I3375
(I1
I1
tp524
ssI19418
(dp525
I19418
g2
ssI23833
(dp526
I23833
g2
sI3812
(I1
I1
tp527
ssI3037
(dp528
I16779
(I1
I1
tp529
sI3037
g2
sI18046
(I1
I1
tp530
ssI991
(dp531
I747
(I1
I1
tp532
sI991
g2
ssI25569
(dp533
I25569
g2
ssI15332
(dp534
I15332
g2
ssI23526
(dp535
I23526
g2
ssI13290
(dp536
I13290
g2
ssI16551
(dp537
I16551
g2
ssI9196
(dp538
I9196
g2
ssI1006
(dp539
I19619
(I1
I1
tp540
sI1006
g2
ssI15344
(dp541
I15344
g2
ssI21489
(dp542
I21489
g2
ssI25587
(dp543
I25587
g2
ssI25588
(dp544
I25588
g2
ssI18651
(dp545
I18651
g2
sI9525
(I1
I1
tp546
ssI21496
(dp547
I21496
g2
ssI5115
(dp548
I5115
g2
ssI25770
(dp549
I25770
g2
ssI15189
(dp550
I15189
g2
ssI19458
(dp551
I19458
g2
ssI19463
(dp552
I19463
g2
ssI23570
(dp553
I23570
g2
ssI9244
(dp554
I9244
g2
ssI19290
(dp555
I19290
g2
ssI1054
(dp556
I1054
g2
ssI3105
(dp557
I3105
g2
ssI5162
(dp558
I5162
g2
ssI18951
(dp559
I18951
g2
ssI17452
(dp560
I17452
g2
sI447
(I1
I1
tp561
ssI21549
(dp562
I21549
g2
ssI1071
(dp563
I20642
(I1
I1
tp564
sI1071
g2
ssI20426
(dp565
I20426
g2
ssI9265
(dp566
I9265
g2
ssI19506
(dp567
I19506
g2
ssI15411
(dp568
I15411
g2
ssI9268
(dp569
I9268
g2
ssI9269
(dp570
I9269
g2
ssI13833
(dp571
I13833
g2
ssI19512
(dp572
I19512
g2
ssI25780
(dp573
I25780
g2
ssI23768
(dp574
I23768
g2
ssI9287
(dp575
I9287
g2
ssI9288
(dp576
I9288
g2
ssI9289
(dp577
I9289
g2
ssI1100
(dp578
I1100
g2
ssI19534
(dp579
I19534
g2
ssI19511
(dp580
I19511
g2
ssI3156
(dp581
I3156
g2
ssI15445
(dp582
I15445
g2
ssI21590
(dp583
I21590
g2
ssI868
(dp584
I868
g2
sI869
(I1
I1
tp585
ssI22373
(dp586
I22373
g2
ssI9314
(dp587
I9314
g2
ssI15461
(dp588
I3489
(I1
I1
tp589
sI15461
g2
ssI18620
(dp590
I18620
g2
ssI13423
(dp591
I13423
g2
ssI11376
(dp592
I11376
g2
sI11377
(I1
I1
tp593
sI4852
(I1
I1
tp594
ssI11377
(dp595
I11376
(I1
I1
tp596
sI11377
g2
sI4852
(I1
I1
tp597
ssI23059
(dp598
I19636
(I1
I1
tp599
ssI11386
(dp600
I11386
g2
ssI18965
(dp601
I991
(I1
I1
tp602
ssI9344
(dp603
I9344
g2
sI23339
(I1
I1
tp604
ssI9348
(dp605
I9348
g2
ssI23794
(dp606
I3833
(I1
I1
tp607
sI23794
g2
ssI11399
(dp608
I19847
(I1
I1
tp609
sI11399
g2
ssI11400
(dp610
I11400
g2
sI10116
(I1
I1
tp611
ssI9355
(dp612
I9355
g2
ssI1164
(dp613
I1164
g2
ssI1165
(dp614
I1164
(I1
I1
tp615
ssI15504
(dp616
I15504
g2
ssI15507
(dp617
I15507
g2
ssI21017
(dp618
I21017
g2
ssI19610
(dp619
I19610
g2
ssI24017
(dp620
I24017
g2
ssI15518
(dp621
I15518
g2
ssI15519
(dp622
I15519
g2
ssI17570
(dp623
I17570
g2
ssI19619
(dp624
I19619
g2
sI1006
(I1
I1
tp625
ssI5287
(dp626
I5287
g2
ssI23721
(dp627
I23721
g2
ssI19626
(dp628
I19626
g2
ssI17581
(dp629
I17581
g2
ssI19636
(dp630
I19636
g2
ssI25781
(dp631
I25781
g2
ssI24777
(dp632
I24777
g2
ssI21688
(dp633
I21688
g2
ssI15547
(dp634
I15547
g2
ssI15549
(dp635
I15549
g2
ssI15551
(dp636
I15551
g2
ssI12832
(dp637
I12832
g2
ssI3266
(dp638
I3266
g2
ssI15556
(dp639
I15556
g2
ssI10338
(dp640
I10338
g2
ssI17953
(dp641
I17953
g2
ssI18317
(dp642
I18317
g2
ssI22818
(dp643
I22818
g2
ssI23841
(dp644
I2845
(I1
I1
tp645
ssI15569
(dp646
I15569
g2
ssI21715
(dp647
I21715
g2
ssI17620
(dp648
I17620
g2
ssI21718
(dp649
I21718
g2
ssI13528
(dp650
I13528
g2
ssI22735
(dp651
I702
(I1
I1
tp652
ssI18981
(dp653
I18981
g2
ssI16886
(dp654
I16886
g2
ssI15596
(dp655
I15596
g2
ssI13549
(dp656
I13549
g2
ssI19694
(dp657
I19694
g2
ssI17647
(dp658
I17647
g2
ssI15600
(dp659
I15600
g2
ssI9768
(dp660
I9768
g2
sI8794
(I1
I1
tp661
ssI15602
(dp662
I15602
g2
ssI21747
(dp663
I21747
g2
ssI13559
(dp664
I13559
g2
ssI24729
(dp665
I24729
g2
ssI19705
(dp666
I3489
(I1
I1
tp667
sI19705
g2
ssI15613
(dp668
I15613
g2
ssI23807
(dp669
I23807
g2
ssI15618
(dp670
I15618
g2
ssI12843
(dp671
I12843
g2
ssI1284
(dp672
I1284
g2
sI1285
(I1
I1
tp673
ssI1285
(dp674
I11586
(I1
I1
tp675
sI1284
(I1
I1
tp676
sI1285
g2
sI426
(I1
I1
tp677
sI11597
(I1
I1
tp678
sI9808
(I2
I1
tp679
ssI9482
(dp680
I9482
g2
ssI1295
(dp681
I1295
g2
ssI21776
(dp682
I21776
g2
ssI15633
(dp683
I15633
g2
ssI21783
(dp684
I21783
g2
ssI7449
(dp685
I7449
g2
sI13996
(I1
I1
tp686
ssI23835
(dp687
I23835
g2
ssI21790
(dp688
I21790
g2
ssI3361
(dp689
I3361
g2
ssI11555
(dp690
I11555
g2
ssI19748
(dp691
I19748
g2
ssI25897
(dp692
I25897
g2
ssI3370
(dp693
I3370
g2
ssI25900
(dp694
I25900
g2
ssI13874
(dp695
I13874
g2
ssI3375
(dp696
I4780
(I1
I1
tp697
sI11021
(I1
I1
tp698
sI3375
g2
ssI9525
(dp699
I18651
(I1
I1
tp700
sI9525
g2
ssI3383
(dp701
I6106
(I1
I1
tp702
sI3383
g2
ssI23867
(dp703
I23867
g2
ssI5441
(dp704
I5441
g2
ssI11586
(dp705
I426
(I1
I1
tp706
sI11586
g2
sI1285
(I1
I1
tp707
ssI19780
(dp708
I19780
g2
ssI11589
(dp709
I9808
(I1
I1
tp710
sI426
(I1
I1
tp711
sI1285
(I1
I1
tp712
ssI3399
(dp713
I3400
(I1
I1
tp714
sI3399
g2
ssI3400
(dp715
I3400
g2
sI3399
(I1
I1
tp716
ssI11595
(dp717
I1285
(I1
I1
tp718
ssI11596
(dp719
I1285
(I1
I1
tp720
ssI11597
(dp721
I426
(I1
I1
tp722
sI1285
(I1
I1
tp723
sI11597
g2
ssI11599
(dp724
I1285
(I1
I1
tp725
ssI3408
(dp726
I3408
g2
ssI13649
(dp727
I13649
g2
ssI11603
(dp728
I426
(I1
I1
tp729
sI1285
(I1
I1
tp730
ssI13652
(dp731
I3437
(I1
I1
tp732
ssI15701
(dp733
I15701
g2
ssI15703
(dp734
I15703
g2
ssI17752
(dp735
I17752
g2
ssI3417
(dp736
I3417
g2
ssI24463
(dp737
I24463
g2
ssI15458
(dp738
I10460
(I1
I1
tp739
ssI3430
(dp740
I3430
g2
ssI21864
(dp741
I21864
g2
ssI23913
(dp742
I23913
g2
ssI25962
(dp743
I21992
(I1
I1
tp744
ssI3437
(dp745
I10497
(I1
I1
tp746
sI3437
g2
sI10765
(I1
I1
tp747
ssI9585
(dp748
I9585
g2
ssI11634
(dp749
I11634
g2
ssI23923
(dp750
I23923
g2
ssI3445
(dp751
I3445
g2
ssI13686
(dp752
I13686
g2
ssI13691
(dp753
I13691
g2
ssI13695
(dp754
I671
(I1
I1
tp755
ssI3456
(dp756
I3456
g2
ssI25985
(dp757
I25985
g2
ssI25211
(dp758
I3833
(I1
I1
tp759
ssI21893
(dp760
I21893
g2
ssI19847
(dp761
I19847
g2
sI10116
(I1
I1
tp762
sI11399
(I1
I1
tp763
ssI9610
(dp764
I9610
g2
ssI18460
(dp765
I18460
g2
ssI9615
(dp766
I4042
(I1
I1
tp767
sI9615
g2
ssI17808
(dp768
I3833
(I1
I1
tp769
ssI11666
(dp770
I426
(I1
I1
tp771
ssI3475
(dp772
I3475
g2
ssI26011
(dp773
I10116
(I1
I1
tp774
ssI3488
(dp775
I3489
(I1
I1
tp776
ssI3489
(dp777
I3489
g2
sI15461
(I1
I1
tp778
sI19705
(I1
I1
tp779
ssI17829
(dp780
I17829
g2
ssI11686
(dp781
I11686
g2
ssI9640
(dp782
I9640
g2
ssI11693
(dp783
I11693
g2
ssI17838
(dp784
I17838
g2
ssI13213
(dp785
I13213
g2
ssI19888
(dp786
I19888
g2
ssI9651
(dp787
I9651
g2
ssI3516
(dp788
I3516
g2
ssI13757
(dp789
I13756
(I1
I1
tp790
sI13757
g2
ssI20059
(dp791
I20059
g2
ssI9664
(dp792
I9664
g2
ssI24009
(dp793
I24009
g2
ssI17867
(dp794
I17867
g2
ssI26063
(dp795
I26063
g2
ssI3537
(dp796
I3537
g2
ssI17874
(dp797
I17874
g2
ssI18339
(dp798
I18339
g2
ssI9685
(dp799
I9685
g2
ssI19926
(dp800
I19926
g2
ssI11737
(dp801
I11737
g2
ssI26074
(dp802
I26074
g2
ssI9691
(dp803
I9691
g2
ssI17884
(dp804
I17884
g2
ssI17885
(dp805
I19955
(I2
I1
tp806
sI17885
g2
ssI17886
(dp807
I17886
g2
ssI17888
(dp808
I17888
g2
ssI17890
(dp809
I17890
g2
ssI22691
(dp810
I22691
g2
ssI11750
(dp811
I11753
(I1
I1
tp812
sI11750
g2
sI11751
(I1
I1
tp813
ssI11751
(dp814
I11750
(I1
I1
tp815
sI11751
g2
ssI21992
(dp816
I21992
g2
ssI11753
(dp817
I11753
g2
sI11750
(I1
I1
tp818
ssI5611
(dp819
I5611
g2
ssI24044
(dp820
I24044
g2
ssI19954
(dp821
I19955
(I1
I1
tp822
sI17885
(I1
I1
tp823
ssI19955
(dp824
I19955
g2
sI17885
(I2
I1
tp825
sI24599
(I1
I1
tp826
ssI12735
(dp827
I12735
g2
ssI13818
(dp828
I13818
g2
ssI15804
(dp829
I15804
g2
ssI23466
(dp830
I23466
g2
ssI9729
(dp831
I9729
g2
ssI13827
(dp832
I13827
g2
ssI10497
(dp833
I10497
g2
sI3437
(I1
I1
tp834
ssI9737
(dp835
I9737
g2
ssI15883
(dp836
I15883
g2
ssI9740
(dp837
I9740
g2
ssI11790
(dp838
I2617
(I1
I1
tp839
sI11790
g2
ssI3599
(dp840
I3599
g2
ssI13840
(dp841
I13840
g2
ssI26200
(dp842
I3833
(I1
I1
tp843
ssI22036
(dp844
I22036
g2
sI19500
(I1
I1
tp845
ssI3605
(dp846
I3605
g2
ssI17944
(dp847
I17944
g2
ssI23471
(dp848
I23471
g2
ssI26143
(dp849
I10116
(I1
I1
tp850
ssI26144
(dp851
I10116
(I1
I1
tp852
ssI11809
(dp853
I11809
g2
ssI13859
(dp854
I12634
(I1
I1
tp855
sI13859
g2
ssI24100
(dp856
I16855
(I1
I1
tp857
ssI21602
(dp858
I21602
g2
ssI24103
(dp859
I24103
g2
ssI11816
(dp860
I11816
g2
sI8794
(I1
I1
tp861
ssI17962
(dp862
I17962
g2
ssI13869
(dp863
I13869
g2
ssI24112
(dp864
I24112
g2
ssI24113
(dp865
I24113
g2
ssI9778
(dp866
I9778
g2
sI869
(I1
I1
tp867
ssI13876
(dp868
I13876
g2
ssI24121
(dp869
I24121
g2
ssI17980
(dp870
I17980
g2
sI4917
(I1
I1
tp871
ssI23818
(dp872
I102
(I1
I1
tp873
ssI26174
(dp874
I26174
g2
ssI1601
(dp875
I1601
g2
ssI24130
(dp876
I24130
g2
ssI15286
(dp877
I15286
g2
sI15287
(I1
I1
tp878
ssI24139
(dp879
I24139
g2
ssI15949
(dp880
I15949
g2
ssI26190
(dp881
I26190
g2
ssI26191
(dp882
I26191
g2
ssI9808
(dp883
I9808
g2
sI426
(I2
I1
tp884
sI1285
(I2
I1
tp885
ssI979
(dp886
I977
(I1
I1
tp887
sI979
g2
ssI24152
(dp888
I24152
g2
ssI5722
(dp889
I5722
g2
ssI5723
(dp890
I953
(I1
I1
tp891
sI5723
g2
ssI25530
(dp892
I25530
g2
ssI23047
(dp893
I23047
g2
ssI18704
(dp894
I18704
g2
ssI26212
(dp895
I26212
g2
ssI11877
(dp896
I10460
(I1
I1
tp897
ssI24166
(dp898
I24166
g2
ssI3687
(dp899
I3687
g2
ssI24173
(dp900
I24173
g2
ssI3694
(dp901
I3694
g2
ssI24175
(dp902
I24175
g2
ssI13936
(dp903
I13936
g2
ssI3697
(dp904
I3697
g2
sI9986
(I1
I1
tp905
ssI25901
(dp906
I25901
g2
ssI1654
(dp907
I1654
g2
ssI14953
(dp908
I14953
g2
ssI23470
(dp909
I23470
g2
ssI22141
(dp910
I22141
g2
ssI18046
(dp911
I3037
(I1
I1
tp912
sI18046
g2
ssI20099
(dp913
I20099
g2
ssI22560
(dp914
I22560
g2
ssI1672
(dp915
I1672
g2
ssI3721
(dp916
I3721
g2
ssI1674
(dp917
I1674
g2
ssI1675
(dp918
I1675
g2
ssI1676
(dp919
I1676
g2
ssI1678
(dp920
I1678
g2
ssI26221
(dp921
I26221
g2
ssI13971
(dp922
I13971
g2
ssI1686
(dp923
I1686
g2
ssI9879
(dp924
I9879
g2
ssI21097
(dp925
I10116
(I1
I1
tp926
ssI13977
(dp927
I13977
g2
ssI13980
(dp928
I13980
g2
ssI22174
(dp929
I22174
g2
ssI5798
(dp930
I702
(I1
I1
tp931
sI5798
g2
ssI13993
(dp932
I13993
g2
ssI3755
(dp933
I3755
g2
ssI13996
(dp934
I7449
(I1
I1
tp935
sI13996
g2
ssI13997
(dp936
I13997
g2
ssI18097
(dp937
I18097
g2
ssI26290
(dp938
I21992
(I1
I1
tp939
ssI26291
(dp940
I26291
g2
ssI23838
(dp941
I23838
g2
ssI21449
(dp942
I21449
g2
ssI16057
(dp943
I16057
g2
ssI14010
(dp944
I14010
g2
ssI21948
(dp945
I21948
g2
ssI18378
(dp946
I18378
g2
ssI5829
(dp947
I5829
g2
ssI5831
(dp948
I16412
(I1
I1
tp949
sI5831
g2
ssI22494
(dp950
I22494
g2
ssI18039
(dp951
I629
(I1
I1
tp952
sI18039
g2
ssI5837
(dp953
I5837
g2
ssI9940
(dp954
I9940
g2
ssI16334
(dp955
I16334
g2
ssI18138
(dp956
I18138
g2
ssI9949
(dp957
I9949
g2
ssI12923
(dp958
I12923
g2
sI6356
(I1
I1
tp959
ssI3812
(dp960
I23833
(I1
I1
tp961
sI3812
g2
ssI9959
(dp962
I9959
g2
ssI26344
(dp963
I3833
(I1
I1
tp964
ssI26237
(dp965
I26237
g2
ssI9971
(dp966
I9971
g2
ssI3831
(dp967
I3831
g2
ssI3833
(dp968
I25157
(I1
I1
tp969
sI2603
(I1
I1
tp970
sI3886
(I1
I1
tp971
sI9999
(I1
I1
tp972
sI25712
(I1
I1
tp973
sI23794
(I1
I1
tp974
sI16819
(I1
I1
tp975
sI2744
(I1
I1
tp976
sI3833
g2
ssI25898
(dp977
I25898
g2
ssI9985
(dp978
I9985
g2
ssI9986
(dp979
I3697
(I1
I1
tp980
sI9986
g2
ssI9996
(dp981
I9996
g2
ssI9999
(dp982
I3833
(I1
I1
tp983
sI9999
g2
ssI26384
(dp984
I3833
(I1
I1
tp985
ssI18132
(dp986
I18132
g2
ssI3862
(dp987
I3869
(I1
I1
tp988
sI3862
g2
ssI25220
(dp989
I25220
g2
ssI10010
(dp990
I10010
g2
ssI3869
(dp991
I3869
g2
sI3862
(I1
I1
tp992
ssI16164
(dp993
I16164
g2
ssI3877
(dp994
I3877
g2
ssI20785
(dp995
I20785
g2
ssI18216
(dp996
I18216
g2
ssI14121
(dp997
I14121
g2
ssI18219
(dp998
I18219
g2
ssI21589
(dp999
I21589
g2
ssI3886
(dp1000
I3833
(I1
I1
tp1001
sI3886
g2
ssI3887
(dp1002
I3887
g2
ssI16177
(dp1003
I16177
g2
ssI12083
(dp1004
I12083
g2
ssI5940
(dp1005
I5940
g2
ssI5941
(dp1006
I5941
g2
ssI5945
(dp1007
I5945
g2
ssI24543
(dp1008
I24543
g2
ssI24380
(dp1009
I24380
g2
ssI3722
(dp1010
I3722
g2
ssI16191
(dp1011
I747
(I1
I1
tp1012
sI16191
g2
ssI18241
(dp1013
I2264
(I1
I1
tp1014
sI18241
g2
ssI25226
(dp1015
I25226
g2
ssI18247
(dp1016
I18247
g2
ssI14152
(dp1017
I14152
g2
ssI5961
(dp1018
I5961
g2
ssI5962
(dp1019
I5962
g2
ssI14156
(dp1020
I14156
g2
ssI16206
(dp1021
I747
(I1
I1
tp1022
sI16206
g2
ssI18258
(dp1023
I18258
g2
ssI14164
(dp1024
I14164
g2
ssI17038
(dp1025
I17038
g2
ssI25572
(dp1026
I25572
g2
ssI16222
(dp1027
I747
(I1
I1
tp1028
sI16222
g2
ssI2021
(dp1029
I2021
g2
sI2015
(I1
I1
tp1030
ssI1893
(dp1031
I10200
(I1
I1
tp1032
sI1893
g2
ssI12134
(dp1033
I12134
g2
ssI24423
(dp1034
I24423
g2
ssI22377
(dp1035
I22377
g2
ssI3946
(dp1036
I3946
g2
ssI20332
(dp1037
I20332
g2
ssI26046
(dp1038
I26046
g2
ssI18299
(dp1039
I18299
g2
ssI22397
(dp1040
I22397
g2
ssI24451
(dp1041
I24451
g2
ssI10116
(dp1042
I11400
(I1
I1
tp1043
sI10116
g2
sI19847
(I1
I1
tp1044
ssI9878
(dp1045
I9878
g2
ssI3052
(dp1046
I3052
g2
ssI6027
(dp1047
I6027
g2
sI16779
(I1
I1
tp1048
ssI18316
(dp1049
I18316
g2
ssI15682
(dp1050
I15682
g2
ssI19500
(dp1051
I22036
(I1
I1
tp1052
sI19500
g2
sI22037
(I1
I1
tp1053
ssI21546
(dp1054
I21546
g2
ssI15342
(dp1055
I15342
g2
ssI20374
(dp1056
I20374
g2
ssI18073
(dp1057
I18073
g2
ssI15886
(dp1058
I702
(I1
I1
tp1059
ssI22427
(dp1060
I8968
(I1
I1
tp1061
ssI18332
(dp1062
I18332
g2
ssI24479
(dp1063
I24479
g2
ssI24480
(dp1064
I24480
g2
ssI18337
(dp1065
I18337
g2
ssI16291
(dp1066
I16291
g2
ssI22490
(dp1067
I22490
g2
ssI14248
(dp1068
I14248
g2
ssI14249
(dp1069
I14249
g2
ssI10158
(dp1070
I16528
(I1
I1
tp1071
sI10158
g2
ssI4016
(dp1072
I4016
g2
ssI24498
(dp1073
I24498
g2
ssI24563
(dp1074
I24563
g2
ssI329
(dp1075
I329
g2
ssI18361
(dp1076
I18361
g2
ssI4032
(dp1077
I1285
(I1
I1
tp1078
ssI16324
(dp1079
I16324
g2
ssI14278
(dp1080
I14278
g2
ssI22473
(dp1081
I22473
g2
ssI4042
(dp1082
I4042
g2
sI9615
(I1
I1
tp1083
sI396
(I1
I1
tp1084
sI8895
(I1
I1
tp1085
ssI10190
(dp1086
I10190
g2
ssI9549
(dp1087
I9549
g2
ssI24531
(dp1088
I24531
g2
ssI20436
(dp1089
I20436
g2
ssI24535
(dp1090
I24535
g2
ssI10200
(dp1091
I10200
g2
sI1893
(I1
I1
tp1092
ssI6106
(dp1093
I6106
g2
sI3383
(I1
I1
tp1094
ssI16350
(dp1095
I16350
g2
ssI2015
(dp1096
I2021
(I1
I1
tp1097
sI2015
g2
ssI25595
(dp1098
I25595
g2
ssI4069
(dp1099
I4069
g2
ssI9410
(dp1100
I9410
g2
sI6356
(I1
I1
tp1101
ssI14313
(dp1102
I426
(I1
I1
tp1103
ssI18410
(dp1104
I18410
g2
ssI2027
(dp1105
I2027
g2
ssI4079
(dp1106
I4079
g2
ssI10224
(dp1107
I10224
g2
ssI24562
(dp1108
I24562
g2
ssI6131
(dp1109
I6131
g2
ssI22519
(dp1110
I9171
(I1
I1
tp1111
ssI19455
(dp1112
I19455
g2
ssI24572
(dp1113
I24572
g2
ssI2045
(dp1114
I2045
g2
ssI22869
(dp1115
I22869
g2
ss.