(dp0
I14336
(dp1
I14336
(I0
I1
tp2
sI14334
(I1
I1
tp3
ssI1
(dp4
I1
g2
sI3
(I1
I1
tp5
ssI3
(dp6
I1
(I1
I1
tp7
sI3
g2
ssI14345
(dp8
I14345
g2
ssI24586
(dp9
I24586
g2
ssI22539
(dp10
I22539
g2
sI862
(I1
I1
tp11
ssI22547
(dp12
I22547
g2
ssI16409
(dp13
I16409
g2
sI741
(I1
I1
tp14
ssI16410
(dp15
I16410
g2
sI741
(I1
I1
tp16
ssI16418
(dp17
I16418
g2
ssI23324
(dp18
I23324
g2
ssI4158
(dp19
I4158
g2
ssI10305
(dp20
I10305
g2
ssI22198
(dp21
I707
(I1
I1
tp22
ssI20552
(dp23
I20552
g2
ssI4094
(dp24
I14446
(I2
I1
tp25
sI3681
(I1
I1
tp26
sI6499
(I1
I1
tp27
sI1053
(I2
I1
tp28
sI4094
g2
ssI20554
(dp29
I20554
g2
ssI20557
(dp30
I20557
g2
ssI22612
(dp31
I22612
g2
ssI22614
(dp32
I22614
g2
ssI20568
(dp33
I20568
g2
ssI6235
(dp34
I6235
g2
ssI20576
(dp35
I20576
g2
ssI20577
(dp36
I20577
g2
ssI20581
(dp37
I20581
g2
ssI25372
(dp38
I2338
(I1
I1
tp39
ssI18535
(dp40
I18535
g2
ssI20584
(dp41
I20584
g2
ssI20586
(dp42
I20586
g2
ssI18540
(dp43
I18540
g2
sI18541
(I1
I1
tp44
sI16174
(I1
I1
tp45
ssI14445
(dp46
I14446
(I1
I1
tp47
sI4094
(I1
I1
tp48
ssI14446
(dp49
I14446
g2
sI4094
(I2
I1
tp50
ssI4209
(dp51
I4209
g2
ssI22643
(dp52
I22643
g2
ssI18549
(dp53
I18549
g2
ssI24694
(dp54
I24694
g2
ssI24697
(dp55
I24697
g2
ssI24699
(dp56
I24699
g2
ssI14463
(dp57
I14463
g2
ssI2180
(dp58
I2180
g2
ssI18565
(dp59
I707
(I1
I1
tp60
sI18565
g2
ssI2183
(dp61
I2183
g2
ssI14480
(dp62
I14480
g2
ssI16530
(dp63
I16530
g2
ssI6295
(dp64
I6295
g2
ssI2200
(dp65
I2200
g2
sI23278
(I1
I1
tp66
ssI4250
(dp67
I4250
g2
sI14653
(I1
I1
tp68
ssI4254
(dp69
I4254
g2
ssI18602
(dp70
I18602
g2
ssI24751
(dp71
I754
(I1
I1
tp72
ssI2224
(dp73
I2225
(I1
I1
tp74
sI757
(I1
I1
tp75
ssI2225
(dp76
I2225
g2
sI757
(I2
I1
tp77
ssI24754
(dp78
I24754
g2
ssI15077
(dp79
I15077
g2
ssI14516
(dp80
I14516
g2
ssI24757
(dp81
I1882
(I1
I1
tp82
sI24170
(I2
I1
tp83
sI24757
g2
ssI22716
(dp84
I22716
g2
ssI16575
(dp85
I754
(I1
I1
tp86
sI16575
g2
ssI2241
(dp87
I2241
g2
sI16179
(I1
I1
tp88
sI1639
(I1
I1
tp89
ssI14530
(dp90
I14530
g2
ssI22727
(dp91
I22727
g2
ssI4303
(dp92
I4303
g2
ssI4312
(dp93
I4312
g2
ssI4313
(dp94
I4313
g2
ssI4318
(dp95
I4318
g2
ssI4319
(dp96
I1899
(I1
I1
tp97
sI4340
(I1
I1
tp98
sI4326
(I1
I1
tp99
sI4319
g2
ssI4321
(dp100
I4319
(I1
I1
tp101
ssI9595
(dp102
I9595
g2
ssI4325
(dp103
I4319
(I1
I1
tp104
ssI4326
(dp105
I4326
g2
sI4319
(I1
I1
tp106
ssI4334
(dp107
I4319
(I1
I1
tp108
ssI4337
(dp109
I4319
(I1
I1
tp110
ssI12532
(dp111
I12532
g2
sI2733
(I1
I1
tp112
ssI14582
(dp113
I14582
g2
ssI4357
(dp114
I4357
g2
ssI2310
(dp115
I2310
g2
ssI16651
(dp116
I10000
(I1
I1
tp117
sI16651
g2
ssI14604
(dp118
I1899
(I1
I1
tp119
sI14604
g2
ssI12558
(dp120
I12558
g2
ssI9261
(dp121
I9261
g2
ssI4371
(dp122
I4371
g2
ssI20757
(dp123
I20757
g2
ssI20758
(dp124
I20758
g2
ssI22814
(dp125
I22814
g2
ssI14623
(dp126
I8972
(I1
I1
tp127
ssI22816
(dp128
I22816
g2
ssI2338
(dp129
I2338
g2
sI15154
(I1
I1
tp130
sI4394
(I1
I1
tp131
ssI291
(dp132
I290
(I1
I1
tp133
sI291
g2
ssI12582
(dp134
I12582
g2
ssI4393
(dp135
I4393
g2
sI4394
(I1
I1
tp136
ssI14634
(dp137
I14634
g2
ssI4408
(dp138
I4408
g2
sI4410
(I1
I1
tp139
ssI4410
(dp140
I4408
(I1
I1
tp141
sI25810
(I1
I1
tp142
sI4410
g2
sI16236
(I2
I1
tp143
sI25458
(I1
I1
tp144
ssI14653
(dp145
I4250
(I1
I1
tp146
sI14653
g2
ssI4418
(dp147
I4418
g2
ssI20813
(dp148
I9530
(I1
I1
tp149
ssI20817
(dp150
I20817
g2
ssI18771
(dp151
I18771
g2
ssI20822
(dp152
I20822
g2
ssI18775
(dp153
I18775
g2
ssI22877
(dp154
I22877
g2
ssI16734
(dp155
I16734
g2
ssI741
(dp156
I16409
(I1
I1
tp157
sI16410
(I1
I1
tp158
sI741
g2
ssI6499
(dp159
I6499
g2
sI4094
(I1
I1
tp160
ssI6500
(dp161
I6500
g2
ssI14398
(dp162
I14398
g2
ssI388
(dp163
I388
g2
ssI22593
(dp164
I22593
g2
ssI16776
(dp165
I16776
g2
ssI20877
(dp166
I20877
g2
ssI2447
(dp167
I2448
(I1
I1
tp168
ssI2448
(dp169
I2448
g2
ssI12689
(dp170
I12689
g2
ssI4501
(dp171
I4501
g2
ssI20889
(dp172
I20889
g2
ssI14753
(dp173
I14753
g2
ssI24994
(dp174
I4410
(I1
I1
tp175
ssI10661
(dp176
I10661
g2
ssI16113
(dp177
I16113
g2
ssI10664
(dp178
I10664
g2
ssI2473
(dp179
I2473
g2
sI2475
(I1
I1
tp180
ssI2475
(dp181
I2473
(I1
I1
tp182
sI2475
g2
ssI21234
(dp183
I21234
g2
ssI16815
(dp184
I16815
g2
ssI12721
(dp185
I12721
g2
ssI434
(dp186
I434
g2
ssI22968
(dp187
I754
(I1
I1
tp188
ssI12730
(dp189
I12730
g2
ssI18875
(dp190
I18875
g2
ssI8636
(dp191
I8636
g2
ssI14782
(dp192
I14782
g2
ssI2505
(dp193
I2506
(I1
I1
tp194
ssI2506
(dp195
I2506
g2
ssI16846
(dp196
I1899
(I1
I1
tp197
sI16846
g2
ssI19533
(dp198
I19533
g2
ssI12752
(dp199
I12752
g2
ssI2513
(dp200
I2513
g2
ssI4562
(dp201
I4562
g2
ssI6613
(dp202
I6613
g2
ssI8662
(dp203
I8662
g2
sI20406
(I1
I1
tp204
sI20407
(I1
I1
tp205
ssI6615
(dp206
I6613
(I1
I1
tp207
ssI6617
(dp208
I6613
(I1
I1
tp209
ssI2524
(dp210
I3683
(I1
I1
tp211
sI2524
g2
ssI20960
(dp212
I20960
g2
ssI12774
(dp213
I12774
g2
ssI25063
(dp214
I25063
g2
ssI26135
(dp215
I19504
(I1
I1
tp216
ssI8685
(dp217
I740
(I1
I1
tp218
sI8685
g2
ssI8686
(dp219
I8686
g2
ssI20985
(dp220
I1882
(I1
I1
tp221
ssI16894
(dp222
I16894
g2
ssI20991
(dp223
I20991
g2
ssI20997
(dp224
I20997
g2
ssI21004
(dp225
I21004
g2
ssI21006
(dp226
I21006
g2
ssI4627
(dp227
I4627
g2
ssI4629
(dp228
I4629
g2
ssI16918
(dp229
I16918
g2
ssI4631
(dp230
I4631
g2
ssI12845
(dp231
I1053
(I1
I1
tp232
sI12846
(I1
I1
tp233
sI12845
g2
ssI12846
(dp234
I12845
(I1
I1
tp235
sI12846
g2
ssI12858
(dp236
I12858
g2
ssI12865
(dp237
I12865
g2
sI1053
(I1
I1
tp238
ssI23342
(dp239
I23342
g2
ssI8972
(dp240
I8972
g2
ssI12875
(dp241
I12875
g2
ssI16975
(dp242
I16975
g2
ssI12883
(dp243
I12883
g2
sI12884
(I1
I1
tp244
ssI12884
(dp245
I12883
(I1
I1
tp246
sI4867
(I1
I1
tp247
sI12884
g2
ssI14936
(dp248
I14936
g2
ssI2490
(dp249
I291
(I1
I1
tp250
ssI16995
(dp251
I16995
g2
ssI2661
(dp252
I2661
g2
ssI618
(dp253
I618
g2
sI619
(I1
I1
tp254
ssI619
(dp255
I1680
(I1
I1
tp256
sI618
(I1
I1
tp257
sI619
g2
ssI12909
(dp258
I12909
g2
ssI8819
(dp259
I8819
g2
ssI8821
(dp260
I8819
(I1
I1
tp261
ssI14966
(dp262
I14966
g2
ssI6775
(dp263
I6775
g2
ssI4728
(dp264
I4728
g2
ssI19074
(dp265
I3888
(I1
I1
tp266
ssI12939
(dp267
I12939
g2
ssI25229
(dp268
I707
(I1
I1
tp269
sI25229
g2
ssI18541
(dp270
I707
(I1
I1
tp271
sI18540
(I1
I1
tp272
sI18541
g2
ssI19088
(dp273
I1680
(I1
I1
tp274
ssI8852
(dp275
I8852
g2
ssI21141
(dp276
I21141
g2
ssI793
(dp277
I793
g2
sI789
(I1
I1
tp278
ssI19098
(dp279
I1680
(I1
I1
tp280
sI707
(I1
I1
tp281
ssI12957
(dp282
I12957
g2
ssI8865
(dp283
I8865
g2
sI707
(I1
I1
tp284
ssI19107
(dp285
I19107
g2
sI16196
(I1
I1
tp286
ssI19108
(dp287
I19108
g2
sI16196
(I1
I1
tp288
ssI19110
(dp289
I16196
(I1
I1
tp290
ssI8873
(dp291
I8873
g2
ssI2733
(dp292
I12532
(I1
I1
tp293
sI2733
g2
ssI10931
(dp294
I10931
g2
ssI24693
(dp295
I24693
g2
ssI15040
(dp296
I15040
g2
ssI705
(dp297
I705
g2
sI707
(I1
I1
tp298
ssI21186
(dp299
I21186
g2
ssI707
(dp300
I8865
(I1
I1
tp301
sI707
g2
sI18565
(I1
I1
tp302
sI705
(I1
I1
tp303
sI23469
(I1
I1
tp304
sI25229
(I1
I1
tp305
sI1680
(I2
I1
tp306
sI1053
(I2
I1
tp307
sI18541
(I1
I1
tp308
ssI12998
(dp309
I12998
g2
ssI20755
(dp310
I20755
g2
ssI17098
(dp311
I17098
g2
ssI15068
(dp312
I15068
g2
ssI2781
(dp313
I25627
(I1
I1
tp314
sI2781
g2
ssI2785
(dp315
I2785
g2
ssI10979
(dp316
I2506
(I1
I1
tp317
ssI740
(dp318
I740
g2
sI8685
(I1
I1
tp319
ssI10981
(dp320
I754
(I1
I1
tp321
ssI21225
(dp322
I21225
g2
ssI17132
(dp323
I1899
(I1
I1
tp324
sI17132
g2
ssI17133
(dp325
I1899
(I1
I1
tp326
sI17133
g2
ssI23278
(dp327
I2200
(I1
I1
tp328
sI23278
g2
ssI2799
(dp329
I15483
(I1
I1
tp330
sI2799
g2
ssI754
(dp331
I754
g2
sI16575
(I1
I1
tp332
sI26231
(I1
I1
tp333
ssI757
(dp334
I2225
(I2
I1
tp335
sI15381
(I1
I1
tp336
sI757
g2
ssI21242
(dp337
I21242
g2
ssI23296
(dp338
I754
(I1
I1
tp339
ssI25326
(dp340
I2013
(I1
I1
tp341
sI25326
g2
ssI4867
(dp342
I960
(I1
I1
tp343
sI15969
(I1
I1
tp344
sI4867
g2
sI12884
(I1
I1
tp345
ssI13066
(dp346
I13066
g2
ssI13068
(dp347
I13068
g2
ssI13069
(dp348
I13069
g2
sI15863
(I1
I1
tp349
ssI13070
(dp350
I13070
g2
ssI23417
(dp351
I23417
g2
ssI11025
(dp352
I11025
g2
ssI13074
(dp353
I13074
g2
ssI789
(dp354
I793
(I1
I1
tp355
sI789
g2
ssI25366
(dp356
I25366
g2
sI25367
(I1
I1
tp357
ssI19223
(dp358
I19223
g2
ssI13081
(dp359
I13081
g2
ssI13083
(dp360
I13084
(I1
I1
tp361
ssI13084
(dp362
I13084
g2
sI1053
(I1
I1
tp363
ssI21294
(dp364
I21294
g2
ssI15154
(dp365
I2338
(I1
I1
tp366
sI15154
g2
ssI23348
(dp367
I23348
g2
ssI13123
(dp368
I1002
(I1
I1
tp369
ssI4941
(dp370
I4941
g2
ssI11095
(dp371
I11095
g2
ssI13145
(dp372
I13145
g2
ssI11099
(dp373
I11099
g2
ssI862
(dp374
I22539
(I1
I1
tp375
sI862
g2
ssI2192
(dp376
I2192
g2
ssI19300
(dp377
I19300
g2
ssI25062
(dp378
I754
(I1
I1
tp379
ssI19305
(dp380
I19305
g2
ssI23402
(dp381
I23402
g2
ssI25458
(dp382
I25458
g2
sI4410
(I1
I1
tp383
ssI9081
(dp384
I9081
g2
ssI23418
(dp385
I23418
g2
ssI19327
(dp386
I19327
g2
ssI13184
(dp387
I13184
g2
ssI19331
(dp388
I19331
g2
ssI23430
(dp389
I23430
g2
ssI19341
(dp390
I19341
g2
ssI19343
(dp391
I19343
g2
ssI13200
(dp392
I13200
g2
ssI13202
(dp393
I13202
g2
ssI17011
(dp394
I17011
g2
ssI5015
(dp395
I1053
(I1
I1
tp396
sI5015
g2
ssI23448
(dp397
I23448
g2
ssI922
(dp398
I922
g2
ssI11163
(dp399
I11163
g2
ssI21404
(dp400
I21404
g2
ssI15262
(dp401
I1680
(I1
I1
tp402
sI1053
(I1
I1
tp403
ssI23458
(dp404
I23458
g2
ssI23462
(dp405
I23462
g2
ssI13227
(dp406
I13227
g2
ssI23469
(dp407
I707
(I1
I1
tp408
sI23469
g2
ssI942
(dp409
I942
g2
ssI23473
(dp410
I23473
g2
ssI21430
(dp411
I21430
g2
ssI19383
(dp412
I19383
g2
ssI25531
(dp413
I25531
g2
ssI960
(dp414
I960
g2
sI4867
(I1
I1
tp415
ssI25547
(dp416
I25547
g2
ssI13262
(dp417
I13262
g2
ssI15181
(dp418
I15181
g2
ssI13273
(dp419
I13273
g2
ssI9179
(dp420
I9179
g2
ssI1001
(dp421
I1002
(I1
I1
tp422
ssI1002
(dp423
I1002
g2
ssI22013
(dp424
I22013
g2
ssI9217
(dp425
I9217
g2
ssI15381
(dp426
I15381
g2
sI757
(I1
I1
tp427
ssI9238
(dp428
I9238
g2
ssI25627
(dp429
I25627
g2
sI2781
(I1
I1
tp430
ssI15388
(dp431
I15388
g2
ssI1053
(dp432
I12865
(I1
I1
tp433
sI707
(I2
I1
tp434
sI15716
(I1
I1
tp435
sI12845
(I1
I1
tp436
sI1680
(I2
I1
tp437
sI5015
(I1
I1
tp438
sI15737
(I1
I1
tp439
sI13084
(I1
I1
tp440
sI1053
g2
sI4094
(I2
I1
tp441
ssI25634
(dp442
I754
(I1
I1
tp443
ssI9256
(dp444
I9256
g2
ssI1069
(dp445
I1069
g2
sI1687
(I1
I1
tp446
ssI19502
(dp447
I19502
g2
ssI19504
(dp448
I19504
g2
ssI9270
(dp449
I9270
g2
ssI9271
(dp450
I9271
g2
ssI24756
(dp451
I24170
(I1
I1
tp452
sI24757
(I1
I1
tp453
ssI9274
(dp454
I9274
g2
ssI26122
(dp455
I754
(I1
I1
tp456
ssI19524
(dp457
I19524
g2
ssI1101
(dp458
I11584
(I1
I1
tp459
sI1101
g2
ssI9302
(dp460
I9302
g2
ssI5305
(dp461
I5305
g2
sI14132
(I1
I1
tp462
ssI13407
(dp463
I13407
g2
ssI15457
(dp464
I15457
g2
ssI11366
(dp465
I11366
g2
ssI15483
(dp466
I15483
g2
sI2799
(I1
I1
tp467
ssI5250
(dp468
I5250
g2
ssI1899
(dp469
I17132
(I1
I1
tp470
sI1899
g2
sI14604
(I1
I1
tp471
sI17133
(I1
I1
tp472
sI16846
(I1
I1
tp473
sI4319
(I1
I1
tp474
ssI15493
(dp475
I15493
g2
ssI13446
(dp476
I13446
g2
ssI21015
(dp477
I21015
g2
ssI25794
(dp478
I6295
(I1
I1
tp479
ssI15508
(dp480
I15508
g2
ssI9365
(dp481
I9365
g2
ssI25750
(dp482
I25750
g2
ssI15897
(dp483
I15897
g2
ssI25749
(dp484
I25749
g2
ssI25762
(dp485
I754
(I1
I1
tp486
ssI5285
(dp487
I5285
g2
ssI15529
(dp488
I15529
g2
ssI26227
(dp489
I754
(I1
I1
tp490
ssI13497
(dp491
I13497
g2
ssI21698
(dp492
I21698
g2
ssI25796
(dp493
I25796
g2
ssI21704
(dp494
I21704
g2
ssI25810
(dp495
I25810
g2
sI4410
(I1
I1
tp496
ssI19667
(dp497
I754
(I1
I1
tp498
ssI889
(dp499
I889
g2
ssI1243
(dp500
I1243
g2
sI1244
(I1
I1
tp501
ssI1244
(dp502
I1243
(I1
I1
tp503
sI1244
g2
ssI1253
(dp504
I1254
(I1
I1
tp505
ssI1254
(dp506
I1254
g2
ssI13544
(dp507
I13544
g2
ssI25833
(dp508
I707
(I1
I1
tp509
ssI13546
(dp510
I1002
(I1
I1
tp511
ssI25835
(dp512
I707
(I1
I1
tp513
ssI11500
(dp514
I11500
g2
ssI5361
(dp515
I5361
g2
ssI13555
(dp516
I1002
(I1
I1
tp517
ssI23798
(dp518
I6295
(I1
I1
tp519
ssI5368
(dp520
I5368
g2
ssI25853
(dp521
I10664
(I1
I1
tp522
ssI21760
(dp523
I21760
g2
ssI19731
(dp524
I19731
g2
ssI19732
(dp525
I19732
g2
ssI11545
(dp526
I11545
g2
ssI13596
(dp527
I13596
g2
ssI17979
(dp528
I17979
g2
ssI9510
(dp529
I9510
g2
ssI9513
(dp530
I9513
g2
ssI21806
(dp531
I21806
g2
ssI9529
(dp532
I9530
(I1
I1
tp533
ssI9530
(dp534
I22850
(I1
I1
tp535
sI9530
g2
ssI16607
(dp536
I4410
(I1
I1
tp537
sI16236
(I1
I1
tp538
ssI11584
(dp539
I11584
g2
sI1101
(I1
I1
tp540
ssI23437
(dp541
I23437
g2
ssI23893
(dp542
I23893
g2
ssI5465
(dp543
I5465
g2
ssI17755
(dp544
I17755
g2
ssI11612
(dp545
I11612
g2
ssI15462
(dp546
I15462
g2
ssI15715
(dp547
I1053
(I1
I1
tp548
ssI15716
(dp549
I15716
g2
sI1053
(I1
I1
tp550
ssI15719
(dp551
I1053
(I1
I1
tp552
sI4094
(I1
I1
tp553
ssI22076
(dp554
I22076
g2
ssI15731
(dp555
I1053
(I1
I1
tp556
ssI15732
(dp557
I707
(I1
I1
tp558
sI1053
(I1
I1
tp559
ssI15737
(dp560
I15737
g2
sI1053
(I1
I1
tp561
ssI15738
(dp562
I1053
(I1
I1
tp563
ssI15739
(dp564
I1053
(I1
I1
tp565
ssI15740
(dp566
I1053
(I1
I1
tp567
ssI24123
(dp568
I24123
g2
ssI15742
(dp569
I1053
(I1
I1
tp570
ssI10133
(dp571
I10133
g2
sI15863
(I1
I1
tp572
ssI15748
(dp573
I1053
(I1
I1
tp574
ssI9609
(dp575
I9609
g2
ssI21903
(dp576
I1652
(I1
I1
tp577
ssI11675
(dp578
I11675
g2
ssI26013
(dp579
I26013
g2
ssI17824
(dp580
I17824
g2
ssI23451
(dp581
I23451
g2
ssI19889
(dp582
I19889
g2
ssI4340
(dp583
I20199
(I1
I1
tp584
sI4340
g2
sI4319
(I1
I1
tp585
ssI19902
(dp586
I291
(I1
I1
tp587
ssI26051
(dp588
I754
(I1
I1
tp589
ssI26057
(dp590
I24157
(I1
I1
tp591
ssI15826
(dp592
I15826
g2
ssI13779
(dp593
I13779
g2
ssI24022
(dp594
I4410
(I1
I1
tp595
ssI1495
(dp596
I1496
(I1
I1
tp597
sI1495
g2
ssI1496
(dp598
I1496
g2
sI1495
(I1
I1
tp599
ssI1501
(dp600
I1501
g2
ssI3550
(dp601
I3550
g2
ssI19937
(dp602
I19937
g2
ssI19938
(dp603
I19938
g2
ssI13798
(dp604
I13798
g2
ssI1517
(dp605
I1517
g2
ssI26096
(dp606
I754
(I1
I1
tp607
ssI15858
(dp608
I15858
g2
ssI17907
(dp609
I17907
g2
sI17908
(I1
I1
tp610
ssI17908
(dp611
I17907
(I1
I1
tp612
sI17908
g2
ssI15862
(dp613
I15863
(I1
I1
tp614
ssI15863
(dp615
I10133
(I1
I1
tp616
sI13069
(I1
I1
tp617
sI15863
g2
ssI15122
(dp618
I15122
g2
ssI19965
(dp619
I19965
g2
ssI13823
(dp620
I13823
g2
ssI21260
(dp621
I21260
g2
ssI26119
(dp622
I754
(I1
I1
tp623
ssI17930
(dp624
I17930
g2
ssI13835
(dp625
I13835
g2
ssI17936
(dp626
I17936
g2
ssI3601
(dp627
I3601
g2
ssI13847
(dp628
I13847
g2
ssI13849
(dp629
I13849
g2
ssI13850
(dp630
I13850
g2
ssI23443
(dp631
I23443
g2
ssI22789
(dp632
I22789
g2
ssI1568
(dp633
I1568
g2
ssI22049
(dp634
I22049
g2
ssI13858
(dp635
I13858
g2
ssI11822
(dp636
I11822
g2
ssI3636
(dp637
I3636
g2
ssI11833
(dp638
I11833
g2
ssI13883
(dp639
I13883
g2
ssI15932
(dp640
I15932
g2
ssI13886
(dp641
I13886
g2
ssI20406
(dp642
I8662
(I1
I1
tp643
sI20406
g2
ssI15969
(dp644
I15969
g2
sI4867
(I1
I1
tp645
ssI24138
(dp646
I24138
g2
ssI20407
(dp647
I8662
(I1
I1
tp648
sI20407
g2
ssI24146
(dp649
I24146
g2
ssI24163
(dp650
I24163
g2
ssI24148
(dp651
I24148
g2
ssI24149
(dp652
I24149
g2
ssI24150
(dp653
I24150
g2
ssI24157
(dp654
I24157
g2
ssI20064
(dp655
I20064
g2
ssI3681
(dp656
I3681
g2
sI4094
(I1
I1
tp657
ssI3683
(dp658
I3683
g2
sI2524
(I1
I1
tp659
sI3709
(I1
I1
tp660
ssI13924
(dp661
I13924
g2
ssI1639
(dp662
I2241
(I1
I1
tp663
sI1639
g2
ssI5736
(dp664
I5736
g2
ssI24170
(dp665
I24170
g2
sI24757
(I2
I1
tp666
ssI22119
(dp667
I22119
g2
ssI13933
(dp668
I13933
g2
ssI13939
(dp669
I13939
g2
ssI1652
(dp670
I1652
g2
ssI26229
(dp671
I754
(I1
I1
tp672
ssI26230
(dp673
I754
(I1
I1
tp674
ssI26231
(dp675
I754
(I1
I1
tp676
sI26231
g2
ssI7800
(dp677
I7800
g2
ssI13948
(dp678
I13948
g2
ssI3709
(dp679
I3683
(I1
I1
tp680
sI3709
g2
ssI16014
(dp681
I16014
g2
ssI1680
(dp682
I1680
g2
sI619
(I1
I1
tp683
sI707
(I2
I1
tp684
sI16236
(I1
I1
tp685
sI1053
(I2
I1
tp686
ssI13969
(dp687
I13969
g2
ssI3731
(dp688
I3683
(I1
I1
tp689
ssI1687
(dp690
I1069
(I1
I1
tp691
sI1687
g2
ssI1689
(dp692
I1069
(I1
I1
tp693
ssI1691
(dp694
I1069
(I1
I1
tp695
ssI5793
(dp696
I5793
g2
ssI25748
(dp697
I25748
g2
ssI13989
(dp698
I13989
g2
ssI3754
(dp699
I3754
g2
ssI20142
(dp700
I20142
g2
ssI14963
(dp701
I14963
g2
ssI3766
(dp702
I3766
g2
ssI9911
(dp703
I9911
g2
ssI14008
(dp704
I14008
g2
ssI26228
(dp705
I754
(I1
I1
tp706
ssI20157
(dp707
I20157
g2
ssI16065
(dp708
I16065
g2
ssI16066
(dp709
I16066
g2
ssI290
(dp710
I290
g2
sI291
(I1
I1
tp711
ssI9935
(dp712
I9935
g2
ssI22235
(dp713
I22235
g2
ssI26336
(dp714
I26336
g2
ssI20199
(dp715
I4340
(I1
I1
tp716
sI20199
g2
ssI16107
(dp717
I16107
g2
ssI5873
(dp718
I960
(I1
I1
tp719
ssI3828
(dp720
I3828
g2
ssI4394
(dp721
I4393
(I1
I1
tp722
sI2338
(I1
I1
tp723
sI4394
g2
ssI20314
(dp724
I20314
g2
ssI26383
(dp725
I26383
g2
ssI10000
(dp726
I10000
g2
sI16651
(I1
I1
tp727
ssI18195
(dp728
I18195
g2
ssI24537
(dp729
I24537
g2
ssI26404
(dp730
I26404
g2
ssI16165
(dp731
I16165
g2
ssI18220
(dp732
I18220
g2
ssI16173
(dp733
I16174
(I1
I1
tp734
ssI16174
(dp735
I18540
(I1
I1
tp736
sI16174
g2
ssI3888
(dp737
I3888
g2
ssI16179
(dp738
I2241
(I1
I1
tp739
sI16179
g2
ssI14132
(dp740
I5305
(I1
I1
tp741
sI14132
g2
ssI10046
(dp742
I10046
g2
ssI16193
(dp743
I16193
g2
ssI14146
(dp744
I14146
g2
ssI20291
(dp745
I20291
g2
ssI16196
(dp746
I19108
(I1
I1
tp747
sI19107
(I1
I1
tp748
sI16196
g2
ssI20294
(dp749
I20294
g2
ssI16199
(dp750
I16199
g2
ssI16201
(dp751
I16201
g2
ssI16205
(dp752
I16205
g2
ssI16207
(dp753
I16207
g2
ssI26450
(dp754
I26450
g2
ssI14163
(dp755
I14163
g2
ssI16213
(dp756
I16213
g2
ssI14166
(dp757
I14166
g2
ssI23865
(dp758
I23865
g2
ssI1881
(dp759
I1881
g2
sI1882
(I1
I1
tp760
ssI1882
(dp761
I1881
(I1
I1
tp762
sI1882
g2
sI24757
(I1
I1
tp763
ssI19087
(dp764
I1680
(I1
I1
tp765
ssI16223
(dp766
I16223
g2
ssI26464
(dp767
I26464
g2
ssI26472
(dp768
I6295
(I1
I1
tp769
ssI1898
(dp770
I1899
(I1
I1
tp771
ssI16235
(dp772
I16235
g2
ssI16236
(dp773
I1680
(I1
I1
tp774
sI4410
(I2
I1
tp775
sI16236
g2
ssI16237
(dp776
I16237
g2
ssI16238
(dp777
I16238
g2
ssI14191
(dp778
I14191
g2
ssI22388
(dp779
I22388
g2
ssI25577
(dp780
I25577
g2
ssI14207
(dp781
I14207
g2
ssI22850
(dp782
I22850
g2
sI9530
(I1
I1
tp783
ssI16277
(dp784
I16277
g2
sI16279
(I1
I1
tp785
ssI16279
(dp786
I16277
(I1
I1
tp787
sI16279
g2
ssI18333
(dp788
I18333
g2
ssI12197
(dp789
I12197
g2
ssI10160
(dp790
I10160
g2
ssI18353
(dp791
I18353
g2
ssI24499
(dp792
I24499
g2
ssI16310
(dp793
I16310
g2
ssI16311
(dp794
I16311
g2
ssI14266
(dp795
I14266
g2
ssI4041
(dp796
I4041
g2
ssI24523
(dp797
I24523
g2
ssI25367
(dp798
I25366
(I1
I1
tp799
sI25367
g2
ssI16337
(dp800
I16337
g2
ssI14296
(dp801
I1680
(I1
I1
tp802
ssI23204
(dp803
I23204
g2
ssI2013
(dp804
I2013
g2
sI25326
(I1
I1
tp805
ssI6120
(dp806
I6120
g2
ssI14325
(dp807
I14325
g2
ssI22518
(dp808
I22518
g2
ssI22522
(dp809
I22522
g2
ssI14332
(dp810
I2661
(I1
I1
tp811
ssI14334
(dp812
I14336
(I1
I1
tp813
sI14334
g2
ss.