(dp0
I22507
(dp1
I22507
(I0
I1
tp2
ssI10117
(dp3
I10117
g2
sI3374
(I1
I1
tp4
ssI9480
(dp5
I9480
g2
sI3374
(I1
I1
tp6
ssI6410
(dp7
I6410
g2
ssI25906
(dp8
I1944
(I1
I1
tp9
sI25906
g2
ssI13520
(dp10
I13520
g2
sI9234
(I1
I1
tp11
ssI16039
(dp12
I16039
g2
ssI25335
(dp13
I25336
(I1
I1
tp14
ssI4624
(dp15
I4624
g2
ssI4888
(dp16
I4888
g2
ssI3346
(dp17
I3346
g2
ssI10051
(dp18
I10051
g2
ssI11157
(dp19
I2298
(I1
I1
tp20
sI11157
g2
ssI9366
(dp21
I9366
g2
ssI20398
(dp22
I1944
(I1
I1
tp23
sI20398
g2
ssI1944
(dp24
I1944
g2
sI25906
(I1
I1
tp25
sI20398
(I1
I1
tp26
sI25399
(I1
I1
tp27
ssI4762
(dp28
I4762
g2
ssI602
(dp29
I602
g2
sI2298
(I1
I1
tp30
ssI18516
(dp31
I18516
g2
sI2047
(I1
I1
tp32
ssI16176
(dp33
I1488
(I1
I1
tp34
sI16176
g2
ssI16070
(dp35
I16070
g2
ssI1063
(dp36
I1063
g2
ssI12841
(dp37
I12841
g2
ssI10923
(dp38
I10923
g2
ssI25613
(dp39
I25613
g2
ssI23213
(dp40
I23213
g2
ssI3374
(dp41
I9480
(I1
I1
tp42
sI16508
(I1
I1
tp43
sI10117
(I1
I1
tp44
sI3374
g2
ssI22398
(dp45
I22398
g2
ssI16048
(dp46
I16048
g2
ssI16049
(dp47
I16049
g2
ssI5938
(dp48
I5938
g2
ssI25399
(dp49
I1944
(I1
I1
tp50
sI25399
g2
ssI20575
(dp51
I20575
g2
ssI5948
(dp52
I5948
g2
ssI22218
(dp53
I22218
g2
ssI25406
(dp54
I25406
g2
ssI2251
(dp55
I2251
g2
ssI5958
(dp56
I5958
g2
ssI15440
(dp57
I1488
(I1
I1
tp58
sI15440
g2
ssI25161
(dp59
I25161
g2
ssI3274
(dp60
I3274
g2
ssI2507
(dp61
I2512
(I1
I1
tp62
sI2507
g2
sI2510
(I1
I1
tp63
ssI4450
(dp64
I4450
g2
ssI2510
(dp65
I2512
(I1
I1
tp66
sI2507
(I1
I1
tp67
sI2510
g2
sI735
(I1
I1
tp68
ssI2253
(dp69
I2251
(I1
I1
tp70
ssI2512
(dp71
I2512
g2
sI2507
(I1
I1
tp72
sI2510
(I1
I1
tp73
ssI25336
(dp74
I25336
g2
sI4204
(I1
I1
tp75
ssI15699
(dp76
I15699
g2
ssI10964
(dp77
I10964
g2
sI2047
(I1
I1
tp78
ssI3278
(dp79
I3278
g2
ssI26198
(dp80
I1944
(I1
I1
tp81
ssI22313
(dp82
I22313
g2
ssI2509
(dp83
I2507
(I1
I1
tp84
ssI9368
(dp85
I9368
g2
ssI15121
(dp86
I15121
g2
ssI9338
(dp87
I9338
g2
ssI735
(dp88
I2510
(I1
I1
tp89
sI735
g2
ssI22240
(dp90
I22240
g2
ssI1488
(dp91
I1488
g2
sI15440
(I1
I1
tp92
sI16176
(I1
I1
tp93
ssI866
(dp94
I866
g2
ssI25829
(dp95
I4204
(I1
I1
tp96
ssI24072
(dp97
I1944
(I1
I1
tp98
ssI9233
(dp99
I9234
(I1
I1
tp100
ssI20714
(dp101
I20714
g2
ssI3307
(dp102
I3307
g2
ssI4204
(dp103
I25336
(I1
I1
tp104
sI9234
(I1
I1
tp105
sI4204
g2
ssI9234
(dp106
I13520
(I1
I1
tp107
sI9234
g2
sI4204
(I1
I1
tp108
ssI22227
(dp109
I22227
g2
ssI22862
(dp110
I5938
(I1
I1
tp111
ssI15486
(dp112
I15486
g2
ssI9335
(dp113
I9335
g2
ssI13048
(dp114
I13048
g2
ssI16084
(dp115
I16084
g2
ssI2298
(dp116
I602
(I1
I1
tp117
sI2298
g2
sI11157
(I1
I1
tp118
ssI16508
(dp119
I16508
g2
sI3374
(I1
I1
tp120
ssI2046
(dp121
I2047
(I1
I1
tp122
ssI2047
(dp123
I18516
(I1
I1
tp124
sI10964
(I1
I1
tp125
sI2047
g2
ss.