(dp0
I16004
(dp1
I943
(I1
I1
tp2
ssI11525
(dp3
I11525
(I0
I1
tp4
sI95
(I1
I1
tp5
ssI16263
(dp6
I16264
(I1
I1
tp7
sI95
(I1
I1
tp8
ssI16264
(dp9
I16264
g4
sI95
(I2
I1
tp10
ssI3593
(dp11
I3593
g4
sI13523
(I1
I1
tp12
sI16229
(I1
I1
tp13
sI24886
(I1
I1
tp14
sI95
(I1
I1
tp15
ssI395
(dp16
I395
g4
sI5116
(I1
I1
tp17
ssI18957
(dp18
I18957
g4
ssI16142
(dp19
I16143
(I1
I1
tp20
ssI16143
(dp21
I16143
g4
sI95
(I1
I1
tp22
ssI25233
(dp23
I95
(I1
I1
tp24
ssI25237
(dp25
I95
(I1
I1
tp26
ssI25238
(dp27
I25238
g4
sI95
(I1
I1
tp28
ssI25239
(dp29
I95
(I1
I1
tp30
ssI25240
(dp31
I95
(I1
I1
tp32
ssI22170
(dp33
I95
(I1
I1
tp34
ssI20893
(dp35
I20893
g4
ssI11166
(dp36
I11167
(I1
I1
tp37
ssI15749
(dp38
I15749
g4
ssI25250
(dp39
I95
(I1
I1
tp40
ssI9379
(dp41
I9379
g4
ssI10916
(dp42
I10916
g4
sI95
(I1
I1
tp43
ssI25225
(dp44
I95
(I1
I1
tp45
ssI19499
(dp46
I943
(I1
I1
tp47
ssI25262
(dp48
I25262
g4
ssI943
(dp49
I943
g4
sI95
(I1
I1
tp50
ssI22813
(dp51
I706
(I1
I1
tp52
ssI24886
(dp53
I3593
(I1
I1
tp54
sI24886
g4
sI15735
(I1
I1
tp55
ssI20937
(dp56
I95
(I1
I1
tp57
ssI26041
(dp58
I20553
(I1
I1
tp59
ssI11167
(dp60
I11167
g4
sI95
(I1
I1
tp61
ssI24513
(dp62
I24513
g4
ssI706
(dp63
I706
g4
sI22815
(I1
I1
tp64
sI15727
(I1
I1
tp65
sI95
(I1
I1
tp66
ssI1475
(dp67
I1475
g4
sI15565
(I1
I1
tp68
ssI16197
(dp69
I16197
g4
sI15735
(I1
I1
tp70
ssI20553
(dp71
I20553
g4
sI95
(I1
I1
tp72
ssI15565
(dp73
I1475
(I1
I1
tp74
sI15565
g4
ssI22426
(dp75
I95
(I1
I1
tp76
ssI16079
(dp77
I16079
g4
sI95
(I1
I1
tp78
ssI24144
(dp79
I24144
g4
sI95
(I1
I1
tp80
ssI13523
(dp81
I3593
(I1
I1
tp82
sI13523
g4
ssI25252
(dp83
I95
(I1
I1
tp84
ssI25231
(dp85
I95
(I1
I1
tp86
ssI18524
(dp87
I18524
g4
sI95
(I1
I1
tp88
ssI95
(dp89
I16143
(I1
I1
tp90
sI706
(I1
I1
tp91
sI10916
(I1
I1
tp92
sI11525
(I1
I1
tp93
sI16264
(I2
I1
tp94
sI3593
(I1
I1
tp95
sI24940
(I1
I1
tp96
sI5116
(I1
I1
tp97
sI943
(I1
I1
tp98
sI24144
(I1
I1
tp99
sI5365
(I1
I1
tp100
sI25238
(I1
I1
tp101
sI20553
(I1
I1
tp102
sI11167
(I1
I1
tp103
sI18524
(I1
I1
tp104
sI16079
(I1
I1
tp105
sI95
g4
ssI16229
(dp106
I3593
(I1
I1
tp107
sI16229
g4
ssI22853
(dp108
I95
(I1
I1
tp109
ssI16489
(dp110
I16489
g4
ssI23274
(dp111
I95
(I1
I1
tp112
ssI24940
(dp113
I24940
g4
sI95
(I1
I1
tp114
ssI15727
(dp115
I706
(I1
I1
tp116
sI15727
g4
ssI22815
(dp117
I706
(I1
I1
tp118
sI22815
g4
ssI25256
(dp119
I95
(I1
I1
tp120
ssI5365
(dp121
I5365
g4
sI95
(I1
I1
tp122
ssI15735
(dp123
I16197
(I1
I1
tp124
sI24886
(I1
I1
tp125
sI15735
g4
ssI19706
(dp126
I19706
g4
ssI5116
(dp127
I395
(I1
I1
tp128
sI5116
g4
sI95
(I1
I1
tp129
ss.