(dp0
I6657
(dp1
I6657
(I0
I1
tp2
sI82
(I1
I1
tp3
ssI14852
(dp4
I9046
(I1
I1
tp5
ssI8278
(dp6
I82
(I1
I1
tp7
sI8278
g2
ssI4107
(dp8
I82
(I1
I1
tp9
sI4107
g2
ssI8330
(dp10
I82
(I1
I1
tp11
ssI8474
(dp12
I82
(I1
I1
tp13
sI8474
g2
ssI8048
(dp14
I8048
g2
sI82
(I1
I1
tp15
ssI12330
(dp16
I12330
g2
sI814
(I1
I1
tp17
ssI7216
(dp18
I7216
g2
sI82
(I1
I1
tp19
ssI1593
(dp20
I1593
g2
sI82
(I2
I1
tp21
sI13599
(I1
I1
tp22
ssI570
(dp23
I14681
(I1
I1
tp24
sI82
(I1
I1
tp25
sI7955
(I1
I1
tp26
sI570
g2
sI2767
(I1
I1
tp27
ssI19041
(dp28
I16642
(I1
I1
tp29
ssI5182
(dp30
I5182
g2
sI1142
(I1
I1
tp31
ssI2624
(dp32
I2624
g2
sI82
(I1
I1
tp33
ssI19040
(dp34
I16642
(I1
I1
tp35
ssI7234
(dp36
I82
(I1
I1
tp37
sI7234
g2
ssI7521
(dp38
I7521
g2
sI82
(I1
I1
tp39
ssI82
(dp40
I6657
(I1
I1
tp41
sI4107
(I1
I1
tp42
sI8048
(I1
I1
tp43
sI7216
(I1
I1
tp44
sI1593
(I2
I1
tp45
sI570
(I1
I1
tp46
sI2624
(I1
I1
tp47
sI7234
(I1
I1
tp48
sI82
g2
sI8277
(I1
I1
tp49
sI8278
(I1
I1
tp50
sI7260
(I1
I1
tp51
sI8287
(I1
I1
tp52
sI6752
(I1
I1
tp53
sI7265
(I1
I1
tp54
sI2153
(I1
I1
tp55
sI8300
(I1
I1
tp56
sI621
(I1
I1
tp57
sI8303
(I1
I1
tp58
sI7300
(I1
I1
tp59
sI8325
(I1
I1
tp60
sI6793
(I1
I1
tp61
sI138
(I1
I1
tp62
sI8301
(I1
I1
tp63
sI1177
(I1
I1
tp64
sI667
(I1
I1
tp65
sI8348
(I1
I1
tp66
sI7837
(I1
I1
tp67
sI2928
(I1
I1
tp68
sI7842
(I1
I1
tp69
sI8355
(I1
I1
tp70
sI2222
(I1
I1
tp71
sI1214
(I1
I1
tp72
sI8383
(I1
I1
tp73
sI4806
(I1
I1
tp74
sI1227
(I1
I1
tp75
sI6861
(I1
I1
tp76
sI1231
(I2
I2
tp77
sI8400
(I1
I1
tp78
sI8402
(I1
I1
tp79
sI7892
(I1
I1
tp80
sI8405
(I1
I1
tp81
sI8409
(I1
I1
tp82
sI8410
(I1
I1
tp83
sI8415
(I1
I1
tp84
sI8418
(I1
I1
tp85
sI8422
(I1
I1
tp86
sI7912
(I1
I1
tp87
sI6890
(I1
I1
tp88
sI8430
(I1
I1
tp89
sI5877
(I1
I1
tp90
sI7415
(I1
I1
tp91
sI1278
(I1
I1
tp92
sI8457
(I1
I1
tp93
sI6924
(I1
I1
tp94
sI7949
(I1
I1
tp95
sI273
(I1
I1
tp96
sI7955
(I1
I1
tp97
sI7961
(I1
I1
tp98
sI8474
(I1
I1
tp99
sI5923
(I1
I1
tp100
sI903
(I1
I1
tp101
sI814
(I2
I1
tp102
sI7471
(I1
I1
tp103
sI8498
(I1
I1
tp104
sI8501
(I1
I1
tp105
sI310
(I2
I1
tp106
sI2873
(I1
I1
tp107
sI7818
(I1
I1
tp108
sI7990
(I1
I1
tp109
sI8519
(I1
I1
tp110
sI8521
(I1
I1
tp111
sI6987
(I1
I1
tp112
sI8528
(I1
I1
tp113
sI8529
(I1
I1
tp114
sI8530
(I1
I1
tp115
sI7509
(I1
I1
tp116
sI7517
(I1
I1
tp117
sI7521
(I1
I1
tp118
sI8552
(I1
I1
tp119
sI8557
(I1
I1
tp120
sI880
(I1
I1
tp121
sI8050
(I1
I1
tp122
sI8052
(I1
I1
tp123
sI8567
(I1
I1
tp124
sI8571
(I1
I1
tp125
sI2430
(I1
I1
tp126
sI6764
(I1
I1
tp127
sI2437
(I1
I1
tp128
sI8071
(I1
I1
tp129
sI8590
(I1
I1
tp130
sI2966
(I1
I1
tp131
sI7577
(I1
I1
tp132
sI8095
(I1
I1
tp133
sI7584
(I1
I1
tp134
sI8612
(I1
I1
tp135
sI8613
(I1
I1
tp136
sI8628
(I1
I1
tp137
sI8629
(I1
I1
tp138
sI439
(I1
I1
tp139
sI2492
(I1
I1
tp140
sI446
(I1
I1
tp141
sI1474
(I1
I1
tp142
sI8135
(I1
I1
tp143
sI3017
(I1
I1
tp144
sI464
(I1
I1
tp145
sI3548
(I1
I1
tp146
sI2527
(I1
I1
tp147
sI7143
(I1
I1
tp148
sI1874
(I1
I1
tp149
sI85
(I1
I1
tp150
ssI85
(dp151
I82
(I1
I1
tp152
sI85
g2
ssI5206
(dp153
I5206
g2
ssI7260
(dp154
I82
(I1
I1
tp155
sI7260
g2
sI14642
(I1
I1
tp156
ssI8287
(dp157
I82
(I1
I1
tp158
sI8287
g2
ssI6752
(dp159
I6752
g2
sI82
(I1
I1
tp160
ssI7265
(dp161
I7265
g2
sI82
(I1
I1
tp162
ssI2153
(dp163
I2153
g2
sI82
(I1
I1
tp164
sI2158
(I1
I1
tp165
sI2161
(I1
I1
tp166
ssI6764
(dp167
I82
(I1
I1
tp168
sI6764
g2
ssI2157
(dp169
I2153
(I1
I1
tp170
ssI2158
(dp171
I2153
(I1
I1
tp172
sI2158
g2
ssI8303
(dp173
I82
(I1
I1
tp174
sI8303
g2
ssI2161
(dp175
I2153
(I1
I1
tp176
sI2161
g2
ssI1214
(dp177
I82
(I1
I1
tp178
sI1214
g2
ssI1142
(dp179
I19433
(I1
I1
tp180
sI5182
(I1
I1
tp181
sI19429
(I1
I1
tp182
sI1142
g2
sI7949
(I1
I1
tp183
ssI5243
(dp184
I5243
g2
ssI7300
(dp185
I82
(I1
I1
tp186
sI7300
g2
ssI8325
(dp187
I82
(I1
I1
tp188
sI8325
g2
ssI8326
(dp189
I82
(I1
I1
tp190
ssI6793
(dp191
I6793
g2
sI82
(I1
I1
tp192
ssI138
(dp193
I82
(I1
I1
tp194
sI138
g2
ssI2699
(dp195
I2699
g2
sI2492
(I1
I1
tp196
ssI621
(dp197
I82
(I1
I1
tp198
sI621
g2
ssI19304
(dp199
I667
(I1
I1
tp200
ssI24129
(dp201
I2767
(I1
I1
tp202
ssI1177
(dp203
I1177
g2
sI82
(I1
I1
tp204
ssI667
(dp205
I19178
(I1
I1
tp206
sI82
(I1
I1
tp207
sI667
g2
sI5525
(I1
I1
tp208
sI5543
(I1
I1
tp209
ssI8348
(dp210
I82
(I1
I1
tp211
sI8348
g2
ssI7837
(dp212
I82
(I1
I1
tp213
sI7837
g2
ssI2720
(dp214
I2720
g2
ssI880
(dp215
I880
g2
sI82
(I1
I1
tp216
ssI7842
(dp217
I82
(I1
I1
tp218
sI7842
g2
ssI8355
(dp219
I82
(I1
I1
tp220
sI8355
g2
sI16547
(I1
I1
tp221
sI16550
(I1
I1
tp222
ssI16550
(dp223
I16642
(I1
I1
tp224
sI8355
(I1
I1
tp225
sI16550
g2
sI7415
(I1
I1
tp226
ssI2222
(dp227
I82
(I1
I1
tp228
sI2222
g2
ssI5822
(dp229
I5822
g2
ssI8383
(dp230
I82
(I1
I1
tp231
sI8383
g2
ssI193
(dp232
I193
g2
sI3548
(I1
I1
tp233
ssI1219
(dp234
I1219
g2
sI310
(I1
I1
tp235
ssI4806
(dp236
I82
(I1
I1
tp237
sI4806
g2
ssI1227
(dp238
I82
(I1
I1
tp239
sI1227
g2
ssI1228
(dp240
I1227
(I1
I1
tp241
ssI6861
(dp242
I82
(I1
I1
tp243
sI6861
g2
ssI1231
(dp244
I1231
g2
sI1233
(I1
I1
tp245
sI82
(I2
I2
tp246
sI1237
(I1
I1
tp247
sI1241
(I1
I1
tp248
sI1242
(I1
I1
tp249
ssI8400
(dp250
I8400
g2
sI82
(I1
I1
tp251
ssI1233
(dp252
I1233
g2
sI1231
(I1
I1
tp253
ssI8402
(dp254
I82
(I1
I1
tp255
sI8402
g2
ssI1236
(dp256
I82
(I1
I1
tp257
sI1231
(I1
I1
tp258
ssI1237
(dp259
I1237
g2
sI1231
(I1
I1
tp260
ssI1238
(dp261
I82
(I1
I1
tp262
sI1231
(I1
I1
tp263
ssI1241
(dp264
I1241
g2
sI1231
(I1
I1
tp265
ssI1242
(dp266
I1242
g2
sI1231
(I1
I1
tp267
ssI2767
(dp268
I570
(I1
I1
tp269
sI2767
g2
ssI21370
(dp270
I21370
g2
sI3548
(I1
I1
tp271
ssI8415
(dp272
I82
(I1
I1
tp273
sI8415
g2
ssI2784
(dp274
I2784
g2
ssI8418
(dp275
I82
(I1
I1
tp276
sI8418
g2
ssI8422
(dp277
I82
(I1
I1
tp278
sI8422
g2
ssI7912
(dp279
I7912
g2
sI82
(I1
I1
tp280
ssI6890
(dp281
I82
(I1
I1
tp282
sI6890
g2
ssI7916
(dp283
I82
(I1
I1
tp284
ssI8430
(dp285
I82
(I1
I1
tp286
sI8430
g2
ssI5877
(dp287
I82
(I1
I1
tp288
sI5877
g2
ssI7415
(dp289
I82
(I1
I1
tp290
sI16547
(I1
I1
tp291
sI16642
(I1
I1
tp292
sI16550
(I1
I1
tp293
sI7415
g2
ssI20216
(dp294
I2492
(I1
I1
tp295
ssI7892
(dp296
I82
(I1
I1
tp297
sI7892
g2
sI24461
(I1
I1
tp298
ssI1278
(dp299
I82
(I1
I1
tp300
sI1278
g2
ssI8405
(dp301
I82
(I1
I1
tp302
sI8405
g2
ssI19712
(dp303
I1593
(I1
I1
tp304
ssI16642
(dp305
I16642
g2
sI16547
(I1
I1
tp306
sI16550
(I1
I1
tp307
sI7415
(I1
I1
tp308
ssI8406
(dp309
I1593
(I1
I1
tp310
sI82
(I1
I1
tp311
ssI8457
(dp312
I8457
g2
sI82
(I1
I1
tp313
ssI6924
(dp314
I82
(I1
I1
tp315
sI6924
g2
ssI7949
(dp316
I82
(I1
I1
tp317
sI7949
g2
sI1142
(I1
I1
tp318
ssI273
(dp319
I273
g2
sI82
(I1
I1
tp320
ssI7955
(dp321
I82
(I1
I1
tp322
sI7955
g2
sI570
(I1
I1
tp323
ssI2324
(dp324
I2324
g2
sI2430
(I1
I1
tp325
ssI8409
(dp326
I8409
g2
sI82
(I1
I1
tp327
ssI8329
(dp328
I82
(I1
I1
tp329
ssI7961
(dp330
I7961
g2
sI82
(I1
I1
tp331
ssI794
(dp332
I794
g2
ssI26395
(dp333
I26395
g2
ssI8410
(dp334
I82
(I1
I1
tp335
sI8410
g2
ssI13599
(dp336
I1593
(I1
I1
tp337
sI13599
g2
ssI5923
(dp338
I82
(I1
I1
tp339
sI5923
g2
ssI8484
(dp340
I82
(I1
I1
tp341
ssI7975
(dp342
I82
(I1
I1
tp343
ssI8071
(dp344
I82
(I1
I1
tp345
sI8071
g2
ssI813
(dp346
I813
g2
sI814
(I1
I1
tp347
ssI814
(dp348
I82
(I2
I1
tp349
sI12330
(I1
I1
tp350
sI814
g2
sI813
(I1
I1
tp351
ssI7471
(dp352
I82
(I1
I1
tp353
sI7471
g2
ssI8498
(dp354
I82
(I1
I1
tp355
sI8498
g2
ssI309
(dp356
I82
(I1
I1
tp357
sI310
(I1
I1
tp358
ssI310
(dp359
I82
(I2
I1
tp360
sI1219
(I1
I1
tp361
sI310
g2
ssI7614
(dp362
I82
(I1
I1
tp363
sI814
(I1
I1
tp364
ssI2873
(dp365
I2873
g2
sI82
(I1
I1
tp366
ssI7818
(dp367
I82
(I1
I1
tp368
sI7818
g2
ssI8501
(dp369
I82
(I1
I1
tp370
sI8501
g2
ssI8416
(dp371
I82
(I1
I1
tp372
ssI7990
(dp373
I82
(I1
I1
tp374
sI7990
g2
ssI8519
(dp375
I82
(I1
I1
tp376
sI8519
g2
ssI8521
(dp377
I8521
g2
sI82
(I1
I1
tp378
ssI2891
(dp379
I2891
g2
ssI8528
(dp380
I8528
g2
sI82
(I1
I1
tp381
ssI8529
(dp382
I8529
g2
sI82
(I1
I1
tp383
ssI1874
(dp384
I82
(I1
I1
tp385
sI1874
g2
ssI2387
(dp386
I2387
g2
sI2430
(I1
I1
tp387
ssI7509
(dp388
I82
(I1
I1
tp389
sI7509
g2
ssI9046
(dp390
I9571
(I1
I1
tp391
sI8095
(I1
I1
tp392
sI9046
g2
sI14847
(I1
I1
tp393
ssI14681
(dp394
I14681
g2
sI570
(I1
I1
tp395
ssI18779
(dp396
I18779
g2
ssI7517
(dp397
I82
(I1
I1
tp398
sI7517
g2
ssI3425
(dp399
I3425
g2
ssI9571
(dp400
I9571
g2
sI9046
(I1
I1
tp401
ssI8552
(dp402
I8552
g2
sI82
(I1
I1
tp403
ssI19431
(dp404
I1142
(I1
I1
tp405
ssI6508
(dp406
I6508
g2
sI2430
(I1
I1
tp407
ssI8557
(dp408
I82
(I1
I1
tp409
sI8557
g2
ssI2928
(dp410
I2928
g2
sI82
(I1
I1
tp411
ssI8050
(dp412
I82
(I1
I1
tp413
sI8050
g2
ssI8052
(dp414
I82
(I1
I1
tp415
sI8052
g2
ssI8567
(dp416
I82
(I1
I1
tp417
sI8567
g2
ssI8568
(dp418
I82
(I1
I1
tp419
ssI8570
(dp420
I82
(I1
I1
tp421
ssI8571
(dp422
I82
(I1
I1
tp423
sI8571
g2
ssI19178
(dp424
I19178
g2
sI667
(I1
I1
tp425
ssI2430
(dp426
I6508
(I1
I1
tp427
sI82
(I1
I1
tp428
sI2387
(I1
I1
tp429
sI2324
(I1
I1
tp430
sI2430
g2
ssI2437
(dp431
I82
(I1
I1
tp432
sI2437
g2
ssI903
(dp433
I82
(I1
I1
tp434
sI903
g2
ssI24461
(dp435
I7892
(I1
I1
tp436
sI24461
g2
ssI8590
(dp437
I82
(I1
I1
tp438
sI8590
g2
ssI26422
(dp439
I7216
(I1
I1
tp440
ssI5525
(dp441
I667
(I1
I1
tp442
sI5525
g2
ssI2966
(dp443
I82
(I1
I1
tp444
sI2966
g2
ssI7577
(dp445
I7577
g2
sI82
(I1
I1
tp446
ssI8095
(dp447
I82
(I1
I1
tp448
sI9046
(I1
I1
tp449
sI8095
g2
ssI7584
(dp450
I7584
g2
sI82
(I1
I1
tp451
ssI8612
(dp452
I82
(I1
I1
tp453
sI8612
g2
ssI8613
(dp454
I82
(I1
I1
tp455
sI8613
g2
ssI5543
(dp456
I667
(I1
I1
tp457
sI5543
g2
ssI14642
(dp458
I14642
g2
sI7260
(I1
I1
tp459
ssI25516
(dp460
I464
(I1
I1
tp461
ssI8300
(dp462
I82
(I1
I1
tp463
sI8300
g2
ssI8628
(dp464
I82
(I1
I1
tp465
sI8628
g2
ssI8629
(dp466
I82
(I1
I1
tp467
sI8629
g2
ssI439
(dp468
I82
(I1
I1
tp469
sI439
g2
ssI8120
(dp470
I82
(I1
I1
tp471
ssI2492
(dp472
I82
(I1
I1
tp473
sI2699
(I1
I1
tp474
sI2492
g2
ssI446
(dp475
I82
(I1
I1
tp476
sI446
g2
ssI1474
(dp477
I82
(I1
I1
tp478
sI1474
g2
ssI6987
(dp479
I82
(I1
I1
tp480
sI6987
g2
ssI8135
(dp481
I82
(I1
I1
tp482
sI8135
g2
ssI3017
(dp483
I3017
g2
sI82
(I1
I1
tp484
ssI8301
(dp485
I82
(I1
I1
tp486
sI8301
g2
ssI464
(dp487
I464
g2
sI82
(I1
I1
tp488
ssI16547
(dp489
I16642
(I1
I1
tp490
sI8355
(I1
I1
tp491
sI16547
g2
sI7415
(I1
I1
tp492
ssI13786
(dp493
I1278
(I1
I1
tp494
ssI3548
(dp495
I193
(I1
I1
tp496
sI82
(I1
I1
tp497
sI3548
g2
sI21370
(I1
I1
tp498
ssI2527
(dp499
I82
(I1
I1
tp500
sI2527
g2
ssI26220
(dp501
I2767
(I1
I1
tp502
ssI19429
(dp503
I19429
g2
sI1142
(I1
I1
tp504
ssI7143
(dp505
I82
(I1
I1
tp506
sI7143
g2
ssI19433
(dp507
I19433
g2
sI1142
(I1
I1
tp508
ssI19436
(dp509
I1142
(I1
I1
tp510
ssI8530
(dp511
I82
(I1
I1
tp512
sI8530
g2
ssI19438
(dp513
I1142
(I1
I1
tp514
ssI19439
(dp515
I1142
(I1
I1
tp516
ssI14847
(dp517
I9046
(I1
I1
tp518
sI14847
g2
ssI8277
(dp519
I82
(I1
I1
tp520
sI8277
g2
ss.